

Microchip MPLAB XC8 Assembler V2.45 build 20230818022343 
                                                                                               Mon Jun 24 17:55:07 2024

Microchip MPLAB XC8 C Compiler v2.45 (Free license) build 20230818022343 Og1 
     1                           	processor	18F4620
     2                           	fnconf	rparam,??,?,0
     3                           	pagewidth 120
     4                           	opt	flic
     5                           	psect	idataBANK0,global,class=CODE,delta=1,noexec
     6                           	psect	idataBANK1,global,class=CODE,delta=1,noexec
     7                           	psect	smallconst,global,reloc=2,class=SMALLCONST,delta=1,noexec
     8                           	psect	cinit,global,reloc=2,class=CODE,delta=1
     9                           	psect	bssCOMRAM,global,class=COMRAM,space=1,delta=1,lowdata,noexec
    10                           	psect	bssBANK0,global,class=BANK0,space=1,delta=1,lowdata,noexec
    11                           	psect	dataBANK0,global,class=BANK0,space=1,delta=1,lowdata,noexec
    12                           	psect	bssBANK1,global,class=BANK1,space=1,delta=1,lowdata,noexec
    13                           	psect	dataBANK1,global,class=BANK1,space=1,delta=1,lowdata,noexec
    14                           	psect	cstackBANK1,global,class=BANK1,space=1,delta=1,lowdata,noexec
    15                           	psect	cstackBANK0,global,class=BANK0,space=1,delta=1,lowdata,noexec
    16                           	psect	cstackCOMRAM,global,class=COMRAM,space=1,delta=1,lowdata,noexec
    17                           	psect	text0,global,reloc=2,class=CODE,delta=1
    18                           	psect	text1,global,reloc=2,class=CODE,delta=1
    19                           	psect	text2,global,reloc=2,class=CODE,delta=1
    20                           	psect	text3,global,reloc=2,class=CODE,delta=1
    21                           	psect	text4,global,reloc=2,class=CODE,delta=1
    22                           	psect	text5,global,reloc=2,class=CODE,delta=1
    23                           	psect	text6,global,reloc=2,class=CODE,delta=1
    24                           	psect	text7,global,reloc=2,class=CODE,delta=1
    25                           	psect	text8,global,reloc=2,class=CODE,delta=1
    26                           	psect	text9,global,reloc=2,class=CODE,delta=1
    27                           	psect	text10,global,reloc=2,class=CODE,delta=1
    28                           	psect	text11,global,reloc=2,class=CODE,delta=1
    29                           	psect	text12,global,reloc=2,class=CODE,delta=1
    30                           	psect	text13,global,reloc=2,class=CODE,delta=1
    31                           	psect	text14,global,reloc=2,class=CODE,delta=1
    32                           	psect	text15,global,reloc=2,class=CODE,delta=1
    33                           	psect	text16,global,reloc=2,class=CODE,delta=1
    34                           	psect	text17,global,reloc=2,class=CODE,delta=1
    35                           	psect	text18,global,reloc=2,class=CODE,delta=1
    36                           	psect	text19,global,reloc=2,class=CODE,delta=1
    37                           	psect	text20,global,reloc=2,class=CODE,delta=1
    38                           	psect	text21,global,reloc=2,class=CODE,delta=1
    39                           	psect	text22,global,reloc=2,class=CODE,delta=1
    40                           	psect	text23,global,reloc=2,class=CODE,delta=1
    41                           	psect	text24,global,reloc=2,class=CODE,delta=1,group=2
    42                           	psect	text25,global,reloc=2,class=CODE,delta=1,group=2
    43                           	psect	text26,global,reloc=2,class=CODE,delta=1,group=2
    44                           	psect	text27,global,reloc=2,class=CODE,delta=1,group=2
    45                           	psect	text28,global,reloc=2,class=CODE,delta=1,group=2
    46                           	psect	text29,global,reloc=2,class=CODE,delta=1
    47                           	psect	text30,global,reloc=2,class=CODE,delta=1
    48                           	psect	text31,global,reloc=2,class=CODE,delta=1
    49                           	psect	text32,global,reloc=2,class=CODE,delta=1
    50                           	psect	text33,global,reloc=2,class=CODE,delta=1
    51                           	psect	text34,global,reloc=2,class=CODE,delta=1
    52                           	psect	text35,global,reloc=2,class=CODE,delta=1
    53                           	psect	text36,global,reloc=2,class=CODE,delta=1
    54                           	psect	intcode,global,reloc=2,class=CODE,delta=1
    55                           	psect	intcode_body,global,reloc=2,class=CODE,delta=1
    56                           	psect	text38,global,reloc=2,class=CODE,delta=1
    57                           	psect	text39,global,reloc=2,class=CODE,delta=1
    58                           	psect	text40,global,reloc=2,class=CODE,delta=1
    59                           	psect	text41,global,reloc=2,class=CODE,delta=1
    60                           	psect	text42,global,reloc=2,class=CODE,delta=1
    61                           	psect	text43,global,reloc=2,class=CODE,delta=1
    62                           	psect	text44,global,reloc=2,class=CODE,delta=1
    63                           	psect	text45,global,reloc=2,class=CODE,delta=1
    64                           	psect	text46,global,reloc=2,class=CODE,delta=1
    65                           	psect	text47,global,reloc=2,class=CODE,delta=1
    66                           	psect	text48,global,reloc=2,class=CODE,delta=1
    67                           	psect	text49,global,reloc=2,class=CODE,delta=1
    68                           	psect	text50,global,reloc=2,class=CODE,delta=1
    69                           	psect	text51,global,reloc=2,class=CODE,delta=1
    70                           	psect	text52,global,reloc=2,class=CODE,delta=1
    71                           	psect	text53,global,reloc=2,class=CODE,delta=1
    72                           	psect	text54,global,reloc=2,class=CODE,delta=1
    73                           	psect	text55,global,reloc=2,class=CODE,delta=1
    74                           	psect	text56,global,reloc=2,class=CODE,delta=1
    75                           	psect	text57,global,reloc=2,class=CODE,delta=1
    76                           	psect	text58,global,reloc=2,class=CODE,delta=1
    77                           	psect	text59,global,reloc=2,class=CODE,delta=1
    78                           	psect	text60,global,reloc=2,class=CODE,delta=1
    79                           	psect	text61,global,reloc=2,class=CODE,delta=1
    80                           	psect	text62,global,reloc=2,class=CODE,delta=1,group=3
    81                           	psect	text63,global,reloc=2,class=CODE,delta=1,group=1
    82                           	psect	text64,global,reloc=2,class=CODE,delta=1,group=1
    83                           	psect	text65,global,reloc=2,class=CODE,delta=1,group=3
    84                           	psect	text66,global,reloc=2,class=CODE,delta=1,group=3
    85                           	psect	text67,global,reloc=2,class=CODE,delta=1,group=3
    86                           	psect	text68,global,reloc=2,class=CODE,delta=1,group=2
    87                           	psect	text69,global,reloc=2,class=CODE,delta=1,group=2
    88                           	psect	text70,global,reloc=2,class=CODE,delta=1,group=3
    89                           	psect	intsave_regs,global,class=BIGRAM,space=1,delta=1,noexec
    90                           	psect	text71,global,reloc=2,class=CODE,delta=1,group=3
    91                           	psect	rparam,global,class=COMRAM,space=1,delta=1,noexec
    92                           	psect	temp,global,ovrld,common,class=COMRAM,space=1,delta=1
    93                           	psect	config,global,abs,ovrld,class=CONFIG,space=4,delta=1,noexec
    94   000000                     
    95                           ; Generated 23/03/2023 GMT
    96                           ; 
    97                           ; Copyright © 2023, Microchip Technology Inc. and its subsidiaries ("Microchip")
    98                           ; All rights reserved.
    99                           ; 
   100                           ; This software is developed by Microchip Technology Inc. and its subsidiaries ("Microch
      +                          ip").
   101                           ; 
   102                           ; Redistribution and use in source and binary forms, with or without modification, are
   103                           ; permitted provided that the following conditions are met:
   104                           ; 
   105                           ;     1. Redistributions of source code must retain the above copyright notice, this lis
      +                          t of
   106                           ;        conditions and the following disclaimer.
   107                           ; 
   108                           ;     2. Redistributions in binary form must reproduce the above copyright notice, this 
      +                          list
   109                           ;        of conditions and the following disclaimer in the documentation and/or other
   110                           ;        materials provided with the distribution. Publication is not required when
   111                           ;        this file is used in an embedded application.
   112                           ; 
   113                           ;     3. Microchip's name may not be used to endorse or promote products derived from th
      +                          is
   114                           ;        software without specific prior written permission.
   115                           ; 
   116                           ; THIS SOFTWARE IS PROVIDED BY MICROCHIP "AS IS" AND ANY EXPRESS OR IMPLIED WARRANTIES,
   117                           ; INCLUDING, BUT NOT LIMITED TO, THE IMPLIED WARRANTIES OF MERCHANTABILITY AND FITNESS F
      +                          OR
   118                           ; PURPOSE ARE DISCLAIMED.  IN NO EVENT SHALL MICROCHIP BE LIABLE FOR ANY DIRECT, INDIREC
      +                          T,
   119                           ; INCIDENTAL, SPECIAL, EXEMPLARY, OR CONSEQUENTIAL DAMAGES (INCLUDING BUT NOT LIMITED TO
   120                           ; PROCUREMENT OF SUBSTITUTE GOODS OR SERVICES; LOSS OF USE, DATA OR PROFITS; OR BUSINESS
   121                           ; INTERRUPTION) HOWSOEVER CAUSED AND ON ANY THEORY OF LIABILITY, WHETHER IN CONTRACT, ST
      +                          RICT
   122                           ; LIABILITY, OR TORT (INCLUDING NEGLIGENCE OR OTHERWISE) ARISING IN ANY WAY OUT OF THE U
      +                          SE OF
   123                           ; THIS SOFTWARE, EVEN IF ADVISED OF THE POSSIBILITY OF SUCH DAMAGE.
   124                           ; 
   125                           ; 
   126                           ; Code-generator required, PIC18F4620 Definitions
   127                           ; 
   128                           ; SFR Addresses
   129   000000                     
   130                           	psect	idataBANK0
   131   004B7A                     __pidataBANK0:
   132                           	callstack 0
   133                           
   134                           ;initializer for _base_speed
   135   004B7A  0014               	dw	20
   136                           
   137                           	psect	idataBANK1
   138   00487E                     __pidataBANK1:
   139                           	callstack 0
   140                           
   141                           ;initializer for _port_registers
   142   00487E  80                 	db	128
   143   00487F  0F                 	db	15
   144   004880  81                 	db	129
   145   004881  0F                 	db	15
   146   004882  82                 	db	130
   147   004883  0F                 	db	15
   148   004884  83                 	db	131
   149   004885  0F                 	db	15
   150   004886  84                 	db	132
   151   004887  0F                 	db	15
   152                           
   153                           ;initializer for _lat_registers
   154   004888  89                 	db	137
   155   004889  0F                 	db	15
   156   00488A  8A                 	db	138
   157   00488B  0F                 	db	15
   158   00488C  8B                 	db	139
   159   00488D  0F                 	db	15
   160   00488E  8C                 	db	140
   161   00488F  0F                 	db	15
   162   004890  8D                 	db	141
   163   004891  0F                 	db	15
   164                           
   165                           ;initializer for _tris_registers
   166   004892  92                 	db	146
   167   004893  0F                 	db	15
   168   004894  93                 	db	147
   169   004895  0F                 	db	15
   170   004896  94                 	db	148
   171   004897  0F                 	db	15
   172   004898  95                 	db	149
   173   004899  0F                 	db	15
   174   00489A  96                 	db	150
   175   00489B  0F                 	db	15
   176                           
   177                           ;initializer for _Heater
   178   00489C  01                 	db	1
   179   00489D  02                 	db	2
   180   00489E  00                 	db	0
   181   00489F  12                 	db	18
   182   0048A0  00                 	db	0
   183   0048A1  2710               	dw	10000
   184   0048A3  01                 	db	1
   185   0048A4  01                 	db	1
   186   0048A5  00                 	db	0
   187   0048A6  00                 	db	0
   188   0048A7  00                 	db	0
   189                           
   190                           ;initializer for _AC
   191   0048A8  02                 	db	2
   192   0048A9  02                 	db	2
   193   0048AA  00                 	db	0
   194   0048AB  0A                 	db	10
   195   0048AC  00                 	db	0
   196   0048AD  2710               	dw	10000
   197   0048AF  01                 	db	1
   198   0048B0  01                 	db	1
   199   0048B1  00                 	db	0
   200   0048B2  00                 	db	0
   201   0048B3  00                 	db	0
   202                           
   203                           ;initializer for _Tempe_reader
   204   0048B4  32                 	db	low _Write_temp_LCD
   205   0048B5  3B                 	db	high _Write_temp_LCD
   206   0048B6  00                 	db	0
   207   0048B7  00                 	db	0
   208   0048B8  01                 	db	1
   209   0048B9  00                 	db	0
   210   0048BA  00                 	db	0
   211   0048BB  01                 	db	1
   212                           
   213                           ;initializer for _lcd
   214   0048BC  03                 	db	3
   215   0048BD  0B                 	db	11
   216   0048BE  13                 	db	19
   217   0048BF  1B                 	db	27
   218   0048C0  23                 	db	35
   219   0048C1  2B                 	db	43
   220   000000                     _TMR3L	set	4018
   221   000000                     _TMR3H	set	4019
   222   000000                     _TMR2	set	4044
   223   000000                     _TMR1L	set	4046
   224   000000                     _TMR1H	set	4047
   225   000000                     _T1CONbits	set	4045
   226   000000                     _TMR0L	set	4054
   227   000000                     _TMR0H	set	4055
   228   000000                     _T0CONbits	set	4053
   229   000000                     _INTCON2bits	set	4081
   230   000000                     _INTCON3bits	set	4080
   231   000000                     _EECON2	set	4007
   232   000000                     _ADCON1bits	set	4033
   233   000000                     _TRISD	set	3989
   234   000000                     _TRISC	set	3988
   235   000000                     _TRISB	set	3987
   236   000000                     _TRISE	set	3990
   237   000000                     _PIE1bits	set	3997
   238   000000                     _ADCON2bits	set	4032
   239   000000                     _ADCON0bits	set	4034
   240   000000                     _PORTE	set	3972
   241   000000                     _PORTD	set	3971
   242   000000                     _PORTC	set	3970
   243   000000                     _PORTB	set	3969
   244   000000                     _PORTA	set	3968
   245   000000                     _LATA	set	3977
   246   000000                     _TRISA	set	3986
   247   000000                     _T2CONbits	set	4042
   248   000000                     _ADRESH	set	4036
   249   000000                     _ADRESL	set	4035
   250   000000                     _INTCONbits	set	4082
   251   000000                     _PR2	set	4043
   252   000000                     _PIE2bits	set	4000
   253   000000                     _CCP2CONbits	set	4026
   254   000000                     _CCP1CONbits	set	4029
   255   000000                     _PIR1bits	set	3998
   256   000000                     _CCPR1L	set	4030
   257   000000                     _CCPR2L	set	4027
   258   000000                     _EECON1bits	set	4006
   259   000000                     _EEDATA	set	4008
   260   000000                     _EEADR	set	4009
   261   000000                     _EEADRH	set	4010
   262   000000                     _T3CONbits	set	4017
   263   000000                     _PIR2bits	set	4001
   264   000000                     _LATE	set	3981
   265   000000                     _LATD	set	3980
   266   000000                     _LATC	set	3979
   267   000000                     _LATB	set	3978
   268                           
   269                           	psect	smallconst
   270   001000                     __psmallconst:
   271                           	callstack 0
   272   001000  00                 	db	0
   273   001001                     STR_5:
   274   001001  54                 	db	84	;'T'
   275   001002  65                 	db	101	;'e'
   276   001003  6D                 	db	109	;'m'
   277   001004  70                 	db	112	;'p'
   278   001005  65                 	db	101	;'e'
   279   001006  72                 	db	114	;'r'
   280   001007  61                 	db	97	;'a'
   281   001008  74                 	db	116	;'t'
   282   001009  75                 	db	117	;'u'
   283   00100A  72                 	db	114	;'r'
   284   00100B  65                 	db	101	;'e'
   285   00100C  20                 	db	32
   286   00100D  3D                 	db	61	;'='
   287   00100E  00                 	db	0
   288   00100F                     STR_4:
   289   00100F  57                 	db	87	;'W'
   290   001010  65                 	db	101	;'e'
   291   001011  6C                 	db	108	;'l'
   292   001012  63                 	db	99	;'c'
   293   001013  6F                 	db	111	;'o'
   294   001014  6D                 	db	109	;'m'
   295   001015  65                 	db	101	;'e'
   296   001016  00                 	db	0
   297   001017                     STR_1:
   298   001017  25                 	db	37
   299   001018  69                 	db	105	;'i'
   300   001019  00                 	db	0
   301   00101A  00                 	db	0	; dummy byte at the end
   302   000000                     
   303                           ; #config settings
   304                           
   305                           	psect	cinit
   306   004296                     __pcinit:
   307                           	callstack 0
   308   004296                     start_initialization:
   309                           	callstack 0
   310   004296                     __initialization:
   311                           	callstack 0
   312                           
   313                           ; Initialize objects allocated to BANK1 (68 bytes)
   314                           ; load TBLPTR registers with __pidataBANK1
   315   004296  0E7E               	movlw	low __pidataBANK1
   316   004298  6EF6               	movwf	tblptrl,c
   317   00429A  0E48               	movlw	high __pidataBANK1
   318   00429C  6EF7               	movwf	tblptrh,c
   319   00429E  0E00               	movlw	low (__pidataBANK1 shr (0+16))
   320   0042A0  6EF8               	movwf	tblptru,c
   321   0042A2  EE01  F000         	lfsr	0,__pdataBANK1
   322   0042A6  EE10 F044          	lfsr	1,68
   323   0042AA                     copy_data0:
   324   0042AA  0009               	tblrd		*+
   325   0042AC  CFF5 FFEE          	movff	tablat,postinc0
   326   0042B0  50E5               	movf	postdec1,w,c
   327   0042B2  50E1               	movf	fsr1l,w,c
   328   0042B4  E1FA               	bnz	copy_data0
   329                           
   330                           ; Initialize objects allocated to BANK0 (2 bytes)
   331                           ; load TBLPTR registers with __pidataBANK0
   332   0042B6  0E7A               	movlw	low __pidataBANK0
   333   0042B8  6EF6               	movwf	tblptrl,c
   334   0042BA  0E4B               	movlw	high __pidataBANK0
   335   0042BC  6EF7               	movwf	tblptrh,c
   336   0042BE  0E00               	movlw	low (__pidataBANK0 shr (0+16))
   337   0042C0  6EF8               	movwf	tblptru,c
   338   0042C2  0009               	tblrd		*+	;fetch initializer
   339   0042C4  CFF5 F0F0          	movff	tablat,__pdataBANK0
   340   0042C8  0009               	tblrd		*+	;fetch initializer
   341   0042CA  CFF5 F0F1          	movff	tablat,__pdataBANK0+1
   342                           
   343                           ; Clear objects allocated to BANK1 (46 bytes)
   344   0042CE  EE01  F044         	lfsr	0,__pbssBANK1
   345   0042D2  0E2E               	movlw	46
   346   0042D4                     clear_0:
   347   0042D4  6AEE               	clrf	postinc0,c
   348   0042D6  06E8               	decf	wreg,f,c
   349   0042D8  E1FD               	bnz	clear_0
   350                           
   351                           ; Clear objects allocated to BANK0 (12 bytes)
   352   0042DA  EE00  F0E4         	lfsr	0,__pbssBANK0
   353   0042DE  0E0C               	movlw	12
   354   0042E0                     clear_1:
   355   0042E0  6AEE               	clrf	postinc0,c
   356   0042E2  06E8               	decf	wreg,f,c
   357   0042E4  E1FD               	bnz	clear_1
   358                           
   359                           ; Clear objects allocated to COMRAM (39 bytes)
   360   0042E6  EE00  F04B         	lfsr	0,__pbssCOMRAM
   361   0042EA  0E27               	movlw	39
   362   0042EC                     clear_2:
   363   0042EC  6AEE               	clrf	postinc0,c
   364   0042EE  06E8               	decf	wreg,f,c
   365   0042F0  E1FD               	bnz	clear_2
   366   0042F2                     end_of_initialization:
   367                           	callstack 0
   368   0042F2                     __end_of__initialization:
   369                           	callstack 0
   370   0042F2  9072               	bcf	int$flags,0,c	;clear compiler interrupt flag (level 1)
   371   0042F4  9272               	bcf	int$flags,1,c	;clear compiler interrupt flag (level 2)
   372   0042F6  0100               	movlb	0
   373   0042F8  EF7A  F025         	goto	_main	;jump to C main() function
   374                           
   375                           	psect	bssCOMRAM
   376   00004B                     __pbssCOMRAM:
   377                           	callstack 0
   378   00004B                     _prec:
   379                           	callstack 0
   380   00004B                     	ds	2
   381   00004D                     _temp:
   382                           	callstack 0
   383   00004D                     	ds	2
   384   00004F                     _TMR3_preload:
   385                           	callstack 0
   386   00004F                     	ds	2
   387   000051                     _TMR3_InterruptHandler:
   388                           	callstack 0
   389   000051                     	ds	2
   390   000053                     _TMR1_preload:
   391                           	callstack 0
   392   000053                     	ds	2
   393   000055                     _TMR1_InterruptHandler:
   394                           	callstack 0
   395   000055                     	ds	2
   396   000057                     _tmr0_preload:
   397                           	callstack 0
   398   000057                     	ds	2
   399   000059                     _Timer0_InterruptHandler:
   400                           	callstack 0
   401   000059                     	ds	2
   402   00005B                     	ds	2
   403   00005D                     	ds	2
   404   00005F                     	ds	2
   405   000061                     	ds	2
   406   000063                     _INT2_InterruptHandler:
   407                           	callstack 0
   408   000063                     	ds	2
   409   000065                     _INT1_InterruptHandler:
   410                           	callstack 0
   411   000065                     	ds	2
   412   000067                     _INT0_InterruptHandler:
   413                           	callstack 0
   414   000067                     	ds	2
   415   000069                     _ADC_InterruptHandler:
   416                           	callstack 0
   417   000069                     	ds	2
   418   00006B                     _flags:
   419                           	callstack 0
   420   00006B                     	ds	1
   421   00006C                     led_toggle@F3075:
   422                           	callstack 0
   423   00006C                     	ds	1
   424   00006D                     led_turn_off@F3070:
   425                           	callstack 0
   426   00006D                     	ds	1
   427   00006E                     led_turn_on@F3065:
   428                           	callstack 0
   429   00006E                     	ds	1
   430   00006F                     led_initialize@F3060:
   431                           	callstack 0
   432   00006F                     	ds	1
   433   000070                     _adc_read:
   434                           	callstack 0
   435   000070                     	ds	2
   436                           
   437                           	psect	bssBANK0
   438   0000E4                     __pbssBANK0:
   439                           	callstack 0
   440   0000E4                     _width:
   441                           	callstack 0
   442   0000E4                     	ds	2
   443   0000E6                     _speed:
   444                           	callstack 0
   445   0000E6                     	ds	2
   446   0000E8                     _TMR2_InterruptHandler:
   447                           	callstack 0
   448   0000E8                     	ds	2
   449   0000EA                     _CCP2_InterruptHandler:
   450                           	callstack 0
   451   0000EA                     	ds	2
   452   0000EC                     _CCP1_InterruptHandler:
   453                           	callstack 0
   454   0000EC                     	ds	2
   455   0000EE                     _TMR2_preload:
   456                           	callstack 0
   457   0000EE                     	ds	1
   458   0000EF                     _lcd_counter:
   459                           	callstack 0
   460   0000EF                     	ds	1
   461                           
   462                           	psect	dataBANK0
   463   0000F0                     __pdataBANK0:
   464                           	callstack 0
   465   0000F0                     _base_speed:
   466                           	callstack 0
   467   0000F0                     	ds	2
   468                           
   469                           	psect	bssBANK1
   470   000144                     __pbssBANK1:
   471                           	callstack 0
   472   000144                     _dbuf:
   473                           	callstack 0
   474   000144                     	ds	32
   475   000164                     _temp_display:
   476                           	callstack 0
   477   000164                     	ds	8
   478   00016C                     _time:
   479                           	callstack 0
   480   00016C                     	ds	6
   481                           
   482                           	psect	dataBANK1
   483   000100                     __pdataBANK1:
   484                           	callstack 0
   485   000100                     _port_registers:
   486                           	callstack 0
   487   000100                     	ds	10
   488   00010A                     _lat_registers:
   489                           	callstack 0
   490   00010A                     	ds	10
   491   000114                     _tris_registers:
   492                           	callstack 0
   493   000114                     	ds	10
   494   00011E                     _Heater:
   495                           	callstack 0
   496   00011E                     	ds	12
   497   00012A                     _AC:
   498                           	callstack 0
   499   00012A                     	ds	12
   500   000136                     _Tempe_reader:
   501                           	callstack 0
   502   000136                     	ds	8
   503   00013E                     _lcd:
   504                           	callstack 0
   505   00013E                     	ds	6
   506                           
   507                           	psect	cstackBANK1
   508   000172                     __pcstackBANK1:
   509                           	callstack 0
   510   000172                     ??___fltol:
   511                           
   512                           ; 1 bytes @ 0x0
   513   000172                     	ds	4
   514   000176                     CCP_PWM_Set_Duty@ccp_obj:
   515                           	callstack 0
   516   000176                     CCPx_SET_PWM_MODE@ccp_obj:
   517                           	callstack 0
   518                           
   519                           ; 2 bytes @ 0x4
   520   000176                     	ds	2
   521   000178                     ??_CCPx_SET_PWM_MODE:
   522   000178                     CCP_PWM_Set_Duty@_duty:
   523                           	callstack 0
   524                           
   525                           ; 1 bytes @ 0x6
   526   000178                     	ds	1
   527   000179                     ??_CCP_PWM_Set_Duty:
   528                           
   529                           ; 1 bytes @ 0x7
   530   000179                     	ds	1
   531   00017A                     _CCPx_SET_PWM_MODE$3866:
   532                           	callstack 0
   533                           
   534                           ; 4 bytes @ 0x8
   535   00017A                     	ds	1
   536   00017B                     _CCP_PWM_Set_Duty$3865:
   537                           	callstack 0
   538                           
   539                           ; 4 bytes @ 0x9
   540   00017B                     	ds	3
   541   00017E                     _CCPx_SET_PWM_MODE$3867:
   542                           	callstack 0
   543                           
   544                           ; 4 bytes @ 0xC
   545   00017E                     	ds	1
   546   00017F                     CCP_PWM_Set_Duty@duty_cyc:
   547                           	callstack 0
   548                           
   549                           ; 2 bytes @ 0xD
   550   00017F                     	ds	2
   551   000181                     ??_AC_Operate:
   552   000181                     ??_Heater_Operate:
   553                           
   554                           ; 1 bytes @ 0xF
   555   000181                     	ds	1
   556   000182                     CCPx_Init@ccp_obj:
   557                           	callstack 0
   558                           
   559                           ; 2 bytes @ 0x10
   560   000182                     	ds	1
   561   000183                     AC_Operate@ACC:
   562                           	callstack 0
   563   000183                     Heater_Operate@ACC:
   564                           	callstack 0
   565                           
   566                           ; 2 bytes @ 0x11
   567   000183                     	ds	1
   568   000184                     ??_CCPx_Init:
   569                           
   570                           ; 1 bytes @ 0x12
   571   000184                     	ds	2
   572   000186                     
   573                           ; 2 bytes @ 0x14
   574   000186                     	ds	2
   575   000188                     
   576                           ; 3 bytes @ 0x16
   577   000188                     	ds	3
   578                           
   579                           	psect	cstackBANK0
   580   000080                     __pcstackBANK0:
   581                           	callstack 0
   582   000080                     ??_InterruptManger:
   583                           
   584                           ; 1 bytes @ 0x0
   585   000080                     	ds	14
   586   00008E                     ??_ADC_Set_bit:
   587   00008E                     ?___xxtofl:
   588                           	callstack 0
   589   00008E                     ADC_StartConversion@pin:
   590                           	callstack 0
   591   00008E                     ADC_GetResult@pin:
   592                           	callstack 0
   593   00008E                     CCP_PWM_Start@ccp_obj:
   594                           	callstack 0
   595   00008E                     CCP_PWM_Stop@ccp_obj:
   596                           	callstack 0
   597   00008E                     CCPx_SET_CAPTURE_MODE@ccp_obj:
   598                           	callstack 0
   599   00008E                     CCPx_SET_COMPARE_MODE@ccp_obj:
   600                           	callstack 0
   601   00008E                     CCPx_SET_TIMER_CONFIG@ccp_obj:
   602                           	callstack 0
   603   00008E                     gpio_pin_Write_logic@_pin_config:
   604                           	callstack 0
   605   00008E                     gpio_pin_direction_intialize@_pin_config:
   606                           	callstack 0
   607   00008E                     TMR2_Init@obj:
   608                           	callstack 0
   609   00008E                     ___xxtofl@val:
   610                           	callstack 0
   611                           
   612                           ; 4 bytes @ 0xE
   613   00008E                     	ds	2
   614   000090                     ??_gpio_pin_direction_intialize:
   615   000090                     ??_CCPx_SET_CAPTURE_MODE:
   616   000090                     ??_CCPx_SET_COMPARE_MODE:
   617   000090                     ??_CCPx_SET_TIMER_CONFIG:
   618   000090                     ??_TMR2_Init:
   619   000090                     ADC_GetResult@result:
   620                           	callstack 0
   621   000090                     ADC_Set_bit@channel:
   622                           	callstack 0
   623   000090                     gpio_pin_Write_logic@logic:
   624                           	callstack 0
   625                           
   626                           ; 1 bytes @ 0x10
   627   000090                     	ds	1
   628   000091                     ??_gpio_pin_Write_logic:
   629   000091                     ??_ADC_GetResult:
   630   000091                     ADC_Init@pin:
   631                           	callstack 0
   632   000091                     ADC_Select_channel@pin:
   633                           	callstack 0
   634                           
   635                           ; 2 bytes @ 0x11
   636   000091                     	ds	1
   637   000092                     ??___xxtofl:
   638                           
   639                           ; 1 bytes @ 0x12
   640   000092                     	ds	1
   641   000093                     ??_ADC_Init:
   642   000093                     ADC_Select_channel@channel:
   643                           	callstack 0
   644                           
   645                           ; 1 bytes @ 0x13
   646   000093                     	ds	1
   647   000094                     ??_ADC_Select_channel:
   648                           
   649                           ; 1 bytes @ 0x14
   650   000094                     	ds	1
   651   000095                     ADC_GetConversion@pin:
   652                           	callstack 0
   653                           
   654                           ; 2 bytes @ 0x15
   655   000095                     	ds	1
   656   000096                     ___xxtofl@sign:
   657                           	callstack 0
   658                           
   659                           ; 1 bytes @ 0x16
   660   000096                     	ds	1
   661   000097                     ADC_GetConversion@channel:
   662                           	callstack 0
   663   000097                     ___xxtofl@exp:
   664                           	callstack 0
   665   000097                     send_4bit@lcd:
   666                           	callstack 0
   667   000097                     send_4bit_enable_signal@lcd:
   668                           	callstack 0
   669   000097                     gpio_pin_intialize@_pin_config:
   670                           	callstack 0
   671                           
   672                           ; 2 bytes @ 0x17
   673   000097                     	ds	1
   674   000098                     ADC_GetConversion@result:
   675                           	callstack 0
   676   000098                     ___xxtofl@arg:
   677                           	callstack 0
   678                           
   679                           ; 4 bytes @ 0x18
   680   000098                     	ds	1
   681   000099                     ??_gpio_pin_intialize:
   682   000099                     send_4bit@_data_command:
   683                           	callstack 0
   684                           
   685                           ; 1 bytes @ 0x19
   686   000099                     	ds	1
   687   00009A                     gpio_pin_intialize@ret:
   688                           	callstack 0
   689   00009A                     lcd_4bit_send_command@lcd:
   690                           	callstack 0
   691   00009A                     lcd_4bit_send_data@lcd:
   692                           	callstack 0
   693                           
   694                           ; 2 bytes @ 0x1A
   695   00009A                     	ds	2
   696   00009C                     ?___fldiv:
   697                           	callstack 0
   698   00009C                     lcd_4bit_send_command@command:
   699                           	callstack 0
   700   00009C                     lcd_4bit_send_data@data:
   701                           	callstack 0
   702   00009C                     ___fldiv@b:
   703                           	callstack 0
   704                           
   705                           ; 4 bytes @ 0x1C
   706   00009C                     	ds	1
   707   00009D                     lcd_4bit_intialize@lcd:
   708                           	callstack 0
   709   00009D                     lcd_4bit_send_string@lcd:
   710                           	callstack 0
   711   00009D                     set_cursor_4bit@lcd:
   712                           	callstack 0
   713                           
   714                           ; 2 bytes @ 0x1D
   715   00009D                     	ds	2
   716   00009F                     ??_lcd_4bit_intialize:
   717   00009F                     set_cursor_4bit@row:
   718                           	callstack 0
   719   00009F                     lcd_4bit_send_string@str:
   720                           	callstack 0
   721                           
   722                           ; 2 bytes @ 0x1F
   723   00009F                     	ds	1
   724   0000A0                     set_cursor_4bit@column:
   725                           	callstack 0
   726   0000A0                     ___fldiv@a:
   727                           	callstack 0
   728                           
   729                           ; 4 bytes @ 0x20
   730   0000A0                     	ds	1
   731   0000A1                     ??_set_cursor_4bit:
   732   0000A1                     lcd_4bit_intialize@ret:
   733                           	callstack 0
   734                           
   735                           ; 1 bytes @ 0x21
   736   0000A1                     	ds	2
   737   0000A3                     lcd_4bit_send_string_pos@lcd:
   738                           	callstack 0
   739                           
   740                           ; 2 bytes @ 0x23
   741   0000A3                     	ds	1
   742   0000A4                     ??___fldiv:
   743                           
   744                           ; 1 bytes @ 0x24
   745   0000A4                     	ds	1
   746   0000A5                     lcd_4bit_send_string_pos@row:
   747                           	callstack 0
   748                           
   749                           ; 1 bytes @ 0x25
   750   0000A5                     	ds	1
   751   0000A6                     lcd_4bit_send_string_pos@column:
   752                           	callstack 0
   753                           
   754                           ; 1 bytes @ 0x26
   755   0000A6                     	ds	1
   756   0000A7                     lcd_4bit_send_string_pos@str:
   757                           	callstack 0
   758                           
   759                           ; 2 bytes @ 0x27
   760   0000A7                     	ds	1
   761   0000A8                     ___fldiv@rem:
   762                           	callstack 0
   763                           
   764                           ; 4 bytes @ 0x28
   765   0000A8                     	ds	1
   766   0000A9                     ??_welcome_message:
   767                           
   768                           ; 1 bytes @ 0x29
   769   0000A9                     	ds	3
   770   0000AC                     ___fldiv@sign:
   771                           	callstack 0
   772                           
   773                           ; 1 bytes @ 0x2C
   774   0000AC                     	ds	1
   775   0000AD                     ___fldiv@new_exp:
   776                           	callstack 0
   777                           
   778                           ; 2 bytes @ 0x2D
   779   0000AD                     	ds	2
   780   0000AF                     ___fldiv@grs:
   781                           	callstack 0
   782                           
   783                           ; 4 bytes @ 0x2F
   784   0000AF                     	ds	4
   785   0000B3                     ___fldiv@bexp:
   786                           	callstack 0
   787                           
   788                           ; 1 bytes @ 0x33
   789   0000B3                     	ds	1
   790   0000B4                     ___fldiv@aexp:
   791                           	callstack 0
   792                           
   793                           ; 1 bytes @ 0x34
   794   0000B4                     	ds	1
   795   0000B5                     ?___fladd:
   796                           	callstack 0
   797   0000B5                     ___fladd@b:
   798                           	callstack 0
   799                           
   800                           ; 4 bytes @ 0x35
   801   0000B5                     	ds	4
   802   0000B9                     ___fladd@a:
   803                           	callstack 0
   804                           
   805                           ; 4 bytes @ 0x39
   806   0000B9                     	ds	4
   807   0000BD                     ??___fladd:
   808                           
   809                           ; 1 bytes @ 0x3D
   810   0000BD                     	ds	4
   811   0000C1                     ___fladd@signs:
   812                           	callstack 0
   813                           
   814                           ; 1 bytes @ 0x41
   815   0000C1                     	ds	1
   816   0000C2                     ___fladd@aexp:
   817                           	callstack 0
   818                           
   819                           ; 1 bytes @ 0x42
   820   0000C2                     	ds	1
   821   0000C3                     ___fladd@bexp:
   822                           	callstack 0
   823                           
   824                           ; 1 bytes @ 0x43
   825   0000C3                     	ds	1
   826   0000C4                     ___fladd@grs:
   827                           	callstack 0
   828                           
   829                           ; 1 bytes @ 0x44
   830   0000C4                     	ds	1
   831   0000C5                     ?___flmul:
   832                           	callstack 0
   833   0000C5                     ___flmul@b:
   834                           	callstack 0
   835                           
   836                           ; 4 bytes @ 0x45
   837   0000C5                     	ds	4
   838   0000C9                     ___flmul@a:
   839                           	callstack 0
   840                           
   841                           ; 4 bytes @ 0x49
   842   0000C9                     	ds	4
   843   0000CD                     ??___flmul:
   844                           
   845                           ; 1 bytes @ 0x4D
   846   0000CD                     	ds	4
   847   0000D1                     ___flmul@sign:
   848                           	callstack 0
   849                           
   850                           ; 1 bytes @ 0x51
   851   0000D1                     	ds	1
   852   0000D2                     ___flmul@aexp:
   853                           	callstack 0
   854                           
   855                           ; 1 bytes @ 0x52
   856   0000D2                     	ds	1
   857   0000D3                     ___flmul@grs:
   858                           	callstack 0
   859                           
   860                           ; 4 bytes @ 0x53
   861   0000D3                     	ds	4
   862   0000D7                     ___flmul@bexp:
   863                           	callstack 0
   864                           
   865                           ; 1 bytes @ 0x57
   866   0000D7                     	ds	1
   867   0000D8                     ___flmul@prod:
   868                           	callstack 0
   869                           
   870                           ; 4 bytes @ 0x58
   871   0000D8                     	ds	4
   872   0000DC                     ___flmul@temp:
   873                           	callstack 0
   874                           
   875                           ; 2 bytes @ 0x5C
   876   0000DC                     	ds	2
   877   0000DE                     ?___fltol:
   878                           	callstack 0
   879   0000DE                     ___fltol@f1:
   880                           	callstack 0
   881                           
   882                           ; 4 bytes @ 0x5E
   883   0000DE                     	ds	4
   884   0000E2                     ___fltol@sign1:
   885                           	callstack 0
   886                           
   887                           ; 1 bytes @ 0x62
   888   0000E2                     	ds	1
   889   0000E3                     ___fltol@exp1:
   890                           	callstack 0
   891                           
   892                           ; 1 bytes @ 0x63
   893   0000E3                     	ds	1
   894   0000E4                     
   895                           ; 1 bytes @ 0x64
   896                           
   897                           	psect	cstackCOMRAM
   898   000001                     __pcstackCOMRAM:
   899                           	callstack 0
   900   000001                     ?___awdiv:
   901                           	callstack 0
   902   000001                     ?___awmod:
   903                           	callstack 0
   904   000001                     ?i2___xxtofl:
   905                           	callstack 0
   906   000001                     ___awdiv@dividend:
   907                           	callstack 0
   908   000001                     ___awmod@dividend:
   909                           	callstack 0
   910   000001                     memset@dest:
   911                           	callstack 0
   912   000001                     fputc@c:
   913                           	callstack 0
   914   000001                     i2gpio_pin_Write_logic@_pin_config:
   915                           	callstack 0
   916   000001                     i2___xxtofl@val:
   917                           	callstack 0
   918                           
   919                           ; 4 bytes @ 0x0
   920   000001                     	ds	2
   921   000003                     fputc@fp:
   922                           	callstack 0
   923   000003                     i2gpio_pin_Write_logic@logic:
   924                           	callstack 0
   925   000003                     ___awdiv@divisor:
   926                           	callstack 0
   927   000003                     ___awmod@divisor:
   928                           	callstack 0
   929   000003                     memset@c:
   930                           	callstack 0
   931                           
   932                           ; 2 bytes @ 0x2
   933   000003                     	ds	1
   934   000004                     ??_fputc:
   935   000004                     ??i2_gpio_pin_Write_logic:
   936                           
   937                           ; 1 bytes @ 0x3
   938   000004                     	ds	1
   939   000005                     ??i2___xxtofl:
   940   000005                     ___awdiv@counter:
   941                           	callstack 0
   942   000005                     ___awmod@counter:
   943                           	callstack 0
   944   000005                     memset@n:
   945                           	callstack 0
   946                           
   947                           ; 2 bytes @ 0x4
   948   000005                     	ds	1
   949   000006                     ___awdiv@sign:
   950                           	callstack 0
   951   000006                     ___awmod@sign:
   952                           	callstack 0
   953                           
   954                           ; 1 bytes @ 0x5
   955   000006                     	ds	1
   956   000007                     ?_abs:
   957                           	callstack 0
   958   000007                     ___awdiv@quotient:
   959                           	callstack 0
   960   000007                     memset@p:
   961                           	callstack 0
   962   000007                     abs@a:
   963                           	callstack 0
   964                           
   965                           ; 2 bytes @ 0x6
   966   000007                     	ds	2
   967   000009                     ??_abs:
   968   000009                     i2___xxtofl@sign:
   969                           	callstack 0
   970                           
   971                           ; 1 bytes @ 0x8
   972   000009                     	ds	1
   973   00000A                     i2___xxtofl@exp:
   974                           	callstack 0
   975   00000A                     i2send_4bit@lcd:
   976                           	callstack 0
   977   00000A                     i2send_4bit_enable_signal@lcd:
   978                           	callstack 0
   979                           
   980                           ; 2 bytes @ 0x9
   981   00000A                     	ds	1
   982   00000B                     vfpfcnvrt@fp:
   983                           	callstack 0
   984   00000B                     i2___xxtofl@arg:
   985                           	callstack 0
   986                           
   987                           ; 4 bytes @ 0xA
   988   00000B                     	ds	1
   989   00000C                     vfpfcnvrt@fmt:
   990                           	callstack 0
   991   00000C                     i2send_4bit@_data_command:
   992                           	callstack 0
   993                           
   994                           ; 1 bytes @ 0xB
   995   00000C                     	ds	1
   996   00000D                     vfpfcnvrt@ap:
   997                           	callstack 0
   998   00000D                     i2lcd_4bit_send_command@lcd:
   999                           	callstack 0
  1000   00000D                     i2lcd_4bit_send_data@lcd:
  1001                           	callstack 0
  1002                           
  1003                           ; 2 bytes @ 0xC
  1004   00000D                     	ds	1
  1005   00000E                     ??_vfpfcnvrt:
  1006                           
  1007                           ; 1 bytes @ 0xD
  1008   00000E                     	ds	1
  1009   00000F                     ?i2___flmul:
  1010                           	callstack 0
  1011   00000F                     vfpfcnvrt@done:
  1012                           	callstack 0
  1013   00000F                     i2lcd_4bit_send_command@command:
  1014                           	callstack 0
  1015   00000F                     i2lcd_4bit_send_data@data:
  1016                           	callstack 0
  1017   00000F                     i2___flmul@b:
  1018                           	callstack 0
  1019                           
  1020                           ; 4 bytes @ 0xE
  1021   00000F                     	ds	1
  1022   000010                     vfpfcnvrt@cp:
  1023                           	callstack 0
  1024   000010                     i2lcd_4bit_send_string@lcd:
  1025                           	callstack 0
  1026   000010                     i2set_cursor_4bit@lcd:
  1027                           	callstack 0
  1028                           
  1029                           ; 2 bytes @ 0xF
  1030   000010                     	ds	1
  1031   000011                     vfpfcnvrt@convarg:
  1032                           	callstack 0
  1033                           
  1034                           ; 4 bytes @ 0x10
  1035   000011                     	ds	1
  1036   000012                     i2set_cursor_4bit@row:
  1037                           	callstack 0
  1038   000012                     i2lcd_4bit_send_string@str:
  1039                           	callstack 0
  1040                           
  1041                           ; 2 bytes @ 0x11
  1042   000012                     	ds	1
  1043   000013                     i2set_cursor_4bit@column:
  1044                           	callstack 0
  1045   000013                     i2___flmul@a:
  1046                           	callstack 0
  1047                           
  1048                           ; 4 bytes @ 0x12
  1049   000013                     	ds	1
  1050   000014                     ??i2_set_cursor_4bit:
  1051                           
  1052                           ; 1 bytes @ 0x13
  1053   000014                     	ds	1
  1054   000015                     vfpfcnvrt@c:
  1055                           	callstack 0
  1056                           
  1057                           ; 1 bytes @ 0x14
  1058   000015                     	ds	1
  1059   000016                     ?_vfprintf:
  1060                           	callstack 0
  1061   000016                     vfprintf@fp:
  1062                           	callstack 0
  1063   000016                     i2lcd_4bit_send_string_pos@lcd:
  1064                           	callstack 0
  1065                           
  1066                           ; 2 bytes @ 0x15
  1067   000016                     	ds	1
  1068   000017                     ??i2___flmul:
  1069   000017                     vfprintf@fmt:
  1070                           	callstack 0
  1071                           
  1072                           ; 1 bytes @ 0x16
  1073   000017                     	ds	1
  1074   000018                     vfprintf@ap:
  1075                           	callstack 0
  1076   000018                     i2lcd_4bit_send_string_pos@row:
  1077                           	callstack 0
  1078                           
  1079                           ; 1 bytes @ 0x17
  1080   000018                     	ds	1
  1081   000019                     vfprintf@cfmt:
  1082                           	callstack 0
  1083   000019                     i2lcd_4bit_send_string_pos@column:
  1084                           	callstack 0
  1085                           
  1086                           ; 1 bytes @ 0x18
  1087   000019                     	ds	1
  1088   00001A                     ?_sprintf:
  1089                           	callstack 0
  1090   00001A                     sprintf@s:
  1091                           	callstack 0
  1092   00001A                     i2lcd_4bit_send_string_pos@str:
  1093                           	callstack 0
  1094                           
  1095                           ; 2 bytes @ 0x19
  1096   00001A                     	ds	1
  1097   00001B                     i2___flmul@sign:
  1098                           	callstack 0
  1099                           
  1100                           ; 1 bytes @ 0x1A
  1101   00001B                     	ds	1
  1102   00001C                     sprintf@fmt:
  1103                           	callstack 0
  1104   00001C                     i2___flmul@grs:
  1105                           	callstack 0
  1106                           
  1107                           ; 4 bytes @ 0x1B
  1108   00001C                     	ds	3
  1109   00001F                     sprintf@ap:
  1110                           	callstack 0
  1111                           
  1112                           ; 1 bytes @ 0x1E
  1113   00001F                     	ds	1
  1114   000020                     i2___flmul@aexp:
  1115                           	callstack 0
  1116   000020                     sprintf@f:
  1117                           	callstack 0
  1118                           
  1119                           ; 12 bytes @ 0x1F
  1120   000020                     	ds	1
  1121   000021                     i2___flmul@bexp:
  1122                           	callstack 0
  1123                           
  1124                           ; 1 bytes @ 0x20
  1125   000021                     	ds	1
  1126   000022                     i2___flmul@prod:
  1127                           	callstack 0
  1128                           
  1129                           ; 4 bytes @ 0x21
  1130   000022                     	ds	4
  1131   000026                     i2___flmul@temp:
  1132                           	callstack 0
  1133                           
  1134                           ; 2 bytes @ 0x25
  1135   000026                     	ds	2
  1136   000028                     ?i2___fldiv:
  1137                           	callstack 0
  1138   000028                     i2___fldiv@b:
  1139                           	callstack 0
  1140                           
  1141                           ; 4 bytes @ 0x27
  1142   000028                     	ds	4
  1143   00002C                     convert_byte_to_string@str:
  1144                           	callstack 0
  1145   00002C                     i2___fldiv@a:
  1146                           	callstack 0
  1147                           
  1148                           ; 4 bytes @ 0x2B
  1149   00002C                     	ds	2
  1150   00002E                     convert_byte_to_string@value:
  1151                           	callstack 0
  1152                           
  1153                           ; 1 bytes @ 0x2D
  1154   00002E                     	ds	2
  1155   000030                     ??i2___fldiv:
  1156                           
  1157                           ; 1 bytes @ 0x2F
  1158   000030                     	ds	4
  1159   000034                     i2___fldiv@rem:
  1160                           	callstack 0
  1161                           
  1162                           ; 4 bytes @ 0x33
  1163   000034                     	ds	4
  1164   000038                     i2___fldiv@sign:
  1165                           	callstack 0
  1166                           
  1167                           ; 1 bytes @ 0x37
  1168   000038                     	ds	1
  1169   000039                     i2___fldiv@new_exp:
  1170                           	callstack 0
  1171                           
  1172                           ; 2 bytes @ 0x38
  1173   000039                     	ds	2
  1174   00003B                     i2___fldiv@grs:
  1175                           	callstack 0
  1176                           
  1177                           ; 4 bytes @ 0x3A
  1178   00003B                     	ds	4
  1179   00003F                     i2___fldiv@bexp:
  1180                           	callstack 0
  1181                           
  1182                           ; 1 bytes @ 0x3E
  1183   00003F                     	ds	1
  1184   000040                     i2___fldiv@aexp:
  1185                           	callstack 0
  1186                           
  1187                           ; 1 bytes @ 0x3F
  1188   000040                     	ds	1
  1189   000041                     ?i2___fltol:
  1190                           	callstack 0
  1191   000041                     i2___fltol@f1:
  1192                           	callstack 0
  1193                           
  1194                           ; 4 bytes @ 0x40
  1195   000041                     	ds	4
  1196   000045                     ??i2___fltol:
  1197                           
  1198                           ; 1 bytes @ 0x44
  1199   000045                     	ds	4
  1200   000049                     i2___fltol@sign1:
  1201                           	callstack 0
  1202                           
  1203                           ; 1 bytes @ 0x48
  1204   000049                     	ds	1
  1205   00004A                     i2___fltol@exp1:
  1206                           	callstack 0
  1207                           
  1208                           ; 1 bytes @ 0x49
  1209   00004A                     	ds	1
  1210   00004B                     
  1211                           ; 1 bytes @ 0x4A
  1212 ;;
  1213 ;;Main: autosize = 0, tempsize = 0, incstack = 0, save=0
  1214 ;;
  1215 ;; *************** function _main *****************
  1216 ;; Defined at:
  1217 ;;		line 12 in file "main.c"
  1218 ;; Parameters:    Size  Location     Type
  1219 ;;  argc            2   20[BANK1 ] int 
  1220 ;;  argv            3   22[BANK1 ] PTR PTR unsigned char 
  1221 ;; Auto vars:     Size  Location     Type
  1222 ;;		None
  1223 ;; Return value:  Size  Location     Type
  1224 ;;                  2   20[BANK1 ] int 
  1225 ;; Registers used:
  1226 ;;		wreg, fsr0l, fsr0h, fsr2l, fsr2h, status,2, status,0, tblptrl, tblptrh, tblptru, prodl, prodh, cstack
  1227 ;; Tracked objects:
  1228 ;;		On entry : 0/0
  1229 ;;		On exit  : 0/0
  1230 ;;		Unchanged: 0/0
  1231 ;; Data sizes:     COMRAM   BANK0   BANK1   BANK2   BANK3   BANK4   BANK5   BANK6   BANK7   BANK8   BANK9  BANK10  BANK1
      +1  BANK12  BANK13  BANK14  BANK15
  1232 ;;      Params:         0       0       5       0       0       0       0       0       0       0       0       0       
      +0       0       0       0       0
  1233 ;;      Locals:         0       0       0       0       0       0       0       0       0       0       0       0       
      +0       0       0       0       0
  1234 ;;      Temps:          0       0       0       0       0       0       0       0       0       0       0       0       
      +0       0       0       0       0
  1235 ;;      Totals:         0       0       5       0       0       0       0       0       0       0       0       0       
      +0       0       0       0       0
  1236 ;;Total ram usage:        5 bytes
  1237 ;; Hardware stack levels required when called: 15
  1238 ;; This function calls:
  1239 ;;		_ADC_GetConversion
  1240 ;;		_intialization
  1241 ;;		_operation_select
  1242 ;;		_welcome_message
  1243 ;; This function is called by:
  1244 ;;		Startup code after reset
  1245 ;; This function uses a non-reentrant model
  1246 ;;
  1247                           
  1248                           	psect	text0
  1249   004AF4                     __ptext0:
  1250                           	callstack 0
  1251   004AF4                     _main:
  1252                           	callstack 16
  1253   004AF4                     
  1254                           ;main.c: 16:     intialization();
  1255   004AF4  EC1B  F024         	call	_intialization	;wreg free
  1256   004AF8                     
  1257                           ;main.c: 18:     welcome_message();
  1258   004AF8  ECAD  F022         	call	_welcome_message	;wreg free
  1259   004AFC                     l9131:
  1260                           
  1261                           ;main.c: 21:      ADC_GetConversion(&Tempe_reader,ADC_AN0,&adc_read);
  1262   004AFC  0E36               	movlw	low _Tempe_reader
  1263   004AFE  0100               	movlb	0	; () banked
  1264   004B00  6F95               	movwf	ADC_GetConversion@pin& (0+255),b
  1265   004B02  0E01               	movlw	high _Tempe_reader
  1266   004B04  6F96               	movwf	(ADC_GetConversion@pin+1)& (0+255),b
  1267   004B06  0E00               	movlw	0
  1268   004B08  6F97               	movwf	ADC_GetConversion@channel& (0+255),b
  1269   004B0A  0E70               	movlw	low _adc_read
  1270   004B0C  6F98               	movwf	ADC_GetConversion@result& (0+255),b
  1271   004B0E  EC49  F022         	call	_ADC_GetConversion	;wreg free
  1272   004B12                     
  1273                           ;main.c: 22:      operation_select();
  1274   004B12  EC14  F01F         	call	_operation_select	;wreg free
  1275   004B16  EF7E  F025         	goto	l9131
  1276   004B1A  EF07  F000         	goto	start
  1277   004B1E                     __end_of_main:
  1278                           	callstack 0
  1279                           
  1280 ;; *************** function _welcome_message *****************
  1281 ;; Defined at:
  1282 ;;		line 24 in file "functions.c"
  1283 ;; Parameters:    Size  Location     Type
  1284 ;;		None
  1285 ;; Auto vars:     Size  Location     Type
  1286 ;;		None
  1287 ;; Return value:  Size  Location     Type
  1288 ;;                  1    wreg      void 
  1289 ;; Registers used:
  1290 ;;		wreg, fsr0l, fsr0h, fsr2l, fsr2h, status,2, status,0, tblptrl, tblptrh, tblptru, prodl, prodh, cstack
  1291 ;; Tracked objects:
  1292 ;;		On entry : 0/0
  1293 ;;		On exit  : 0/0
  1294 ;;		Unchanged: 0/0
  1295 ;; Data sizes:     COMRAM   BANK0   BANK1   BANK2   BANK3   BANK4   BANK5   BANK6   BANK7   BANK8   BANK9  BANK10  BANK1
      +1  BANK12  BANK13  BANK14  BANK15
  1296 ;;      Params:         0       0       0       0       0       0       0       0       0       0       0       0       
      +0       0       0       0       0
  1297 ;;      Locals:         0       0       0       0       0       0       0       0       0       0       0       0       
      +0       0       0       0       0
  1298 ;;      Temps:          0       2       0       0       0       0       0       0       0       0       0       0       
      +0       0       0       0       0
  1299 ;;      Totals:         0       2       0       0       0       0       0       0       0       0       0       0       
      +0       0       0       0       0
  1300 ;;Total ram usage:        2 bytes
  1301 ;; Hardware stack levels used: 1
  1302 ;; Hardware stack levels required when called: 14
  1303 ;; This function calls:
  1304 ;;		_lcd_4bit_send_command
  1305 ;;		_lcd_4bit_send_string_pos
  1306 ;; This function is called by:
  1307 ;;		_main
  1308 ;; This function uses a non-reentrant model
  1309 ;;
  1310                           
  1311                           	psect	text1
  1312   00455A                     __ptext1:
  1313                           	callstack 0
  1314   00455A                     _welcome_message:
  1315                           	callstack 16
  1316   00455A                     
  1317                           ;functions.c: 26:     lcd_4bit_send_string_pos(&lcd,2,7,"Welcome");
  1318   00455A  0E3E               	movlw	low _lcd
  1319   00455C  0100               	movlb	0	; () banked
  1320   00455E  6FA3               	movwf	lcd_4bit_send_string_pos@lcd& (0+255),b
  1321   004560  0E01               	movlw	high _lcd
  1322   004562  6FA4               	movwf	(lcd_4bit_send_string_pos@lcd+1)& (0+255),b
  1323   004564  0E02               	movlw	2
  1324   004566  6FA5               	movwf	lcd_4bit_send_string_pos@row& (0+255),b
  1325   004568  0E07               	movlw	7
  1326   00456A  6FA6               	movwf	lcd_4bit_send_string_pos@column& (0+255),b
  1327   00456C  0E0F               	movlw	low STR_4
  1328   00456E  6FA7               	movwf	lcd_4bit_send_string_pos@str& (0+255),b
  1329   004570  51A7               	movf	lcd_4bit_send_string_pos@str& (0+255),w,b
  1330   004572  A4D8               	btfss	status,2,c
  1331   004574  0E10               	movlw	high __smallconst
  1332   004576  6FA8               	movwf	(lcd_4bit_send_string_pos@str+1)& (0+255),b
  1333   004578  EC61  F024         	call	_lcd_4bit_send_string_pos	;wreg free
  1334   00457C                     
  1335                           ;functions.c: 27:     _delay((unsigned long)((250)*(8000000UL/4000.0)));
  1336   00457C  0E03               	movlw	3
  1337   00457E  0100               	movlb	0	; () banked
  1338   004580  6FAA               	movwf	(??_welcome_message+1)& (0+255),b
  1339   004582  0E8A               	movlw	138
  1340   004584  6FA9               	movwf	??_welcome_message& (0+255),b
  1341   004586  0E55               	movlw	85
  1342   004588                     u9457:
  1343   004588  2EE8               	decfsz	wreg,f,c
  1344   00458A  D7FE               	bra	u9457
  1345   00458C  2FA9               	decfsz	??_welcome_message& (0+255),f,b
  1346   00458E  D7FC               	bra	u9457
  1347   004590  2FAA               	decfsz	(??_welcome_message+1)& (0+255),f,b
  1348   004592  D7FA               	bra	u9457
  1349   004594  D000               	nop2	
  1350   004596                     
  1351                           ;functions.c: 28:     lcd_4bit_send_command(&lcd,0X01);
  1352   004596  0E3E               	movlw	low _lcd
  1353   004598  0100               	movlb	0	; () banked
  1354   00459A  6F9A               	movwf	lcd_4bit_send_command@lcd& (0+255),b
  1355   00459C  0E01               	movlw	high _lcd
  1356   00459E  6F9B               	movwf	(lcd_4bit_send_command@lcd+1)& (0+255),b
  1357   0045A0  0E01               	movlw	1
  1358   0045A2  6F9C               	movwf	lcd_4bit_send_command@command& (0+255),b
  1359   0045A4  ECB1  F021         	call	_lcd_4bit_send_command	;wreg free
  1360   0045A8                     
  1361                           ;functions.c: 29:     _delay((unsigned long)((20)*(8000000UL/4000.0)));
  1362   0045A8  0E34               	movlw	52
  1363   0045AA  0100               	movlb	0	; () banked
  1364   0045AC  6FA9               	movwf	??_welcome_message& (0+255),b
  1365   0045AE  0EF1               	movlw	241
  1366   0045B0                     u9467:
  1367   0045B0  2EE8               	decfsz	wreg,f,c
  1368   0045B2  D7FE               	bra	u9467
  1369   0045B4  2FA9               	decfsz	??_welcome_message& (0+255),f,b
  1370   0045B6  D7FC               	bra	u9467
  1371   0045B8  D000               	nop2	
  1372   0045BA  0012               	return		;funcret
  1373   0045BC                     __end_of_welcome_message:
  1374                           	callstack 0
  1375                           
  1376 ;; *************** function _lcd_4bit_send_string_pos *****************
  1377 ;; Defined at:
  1378 ;;		line 122 in file "ECU_LAYER/LCD/ecu_lcd.c"
  1379 ;; Parameters:    Size  Location     Type
  1380 ;;  lcd             2   35[BANK0 ] PTR const struct .
  1381 ;;		 -> lcd(6), 
  1382 ;;  row             1   37[BANK0 ] unsigned char 
  1383 ;;  column          1   38[BANK0 ] unsigned char 
  1384 ;;  str             2   39[BANK0 ] PTR unsigned char 
  1385 ;;		 -> STR_5(14), temp_display(8), STR_4(8), 
  1386 ;; Auto vars:     Size  Location     Type
  1387 ;;  ret             1    0        unsigned char 
  1388 ;; Return value:  Size  Location     Type
  1389 ;;                  1    wreg      unsigned char 
  1390 ;; Registers used:
  1391 ;;		wreg, fsr0l, fsr0h, fsr2l, fsr2h, status,2, status,0, tblptrl, tblptrh, tblptru, prodl, prodh, cstack
  1392 ;; Tracked objects:
  1393 ;;		On entry : 0/0
  1394 ;;		On exit  : 0/0
  1395 ;;		Unchanged: 0/0
  1396 ;; Data sizes:     COMRAM   BANK0   BANK1   BANK2   BANK3   BANK4   BANK5   BANK6   BANK7   BANK8   BANK9  BANK10  BANK1
      +1  BANK12  BANK13  BANK14  BANK15
  1397 ;;      Params:         0       6       0       0       0       0       0       0       0       0       0       0       
      +0       0       0       0       0
  1398 ;;      Locals:         0       0       0       0       0       0       0       0       0       0       0       0       
      +0       0       0       0       0
  1399 ;;      Temps:          0       0       0       0       0       0       0       0       0       0       0       0       
      +0       0       0       0       0
  1400 ;;      Totals:         0       6       0       0       0       0       0       0       0       0       0       0       
      +0       0       0       0       0
  1401 ;;Total ram usage:        6 bytes
  1402 ;; Hardware stack levels used: 1
  1403 ;; Hardware stack levels required when called: 13
  1404 ;; This function calls:
  1405 ;;		_lcd_4bit_send_string
  1406 ;;		_set_cursor_4bit
  1407 ;; This function is called by:
  1408 ;;		_welcome_message
  1409 ;; This function uses a non-reentrant model
  1410 ;;
  1411                           
  1412                           	psect	text2
  1413   0048C2                     __ptext2:
  1414                           	callstack 0
  1415   0048C2                     _lcd_4bit_send_string_pos:
  1416                           	callstack 16
  1417   0048C2                     
  1418                           ;ECU_LAYER/LCD/ecu_lcd.c: 126:     if (((void*)0) == lcd ){
  1419   0048C2  0100               	movlb	0	; () banked
  1420   0048C4  51A3               	movf	lcd_4bit_send_string_pos@lcd& (0+255),w,b
  1421   0048C6  11A4               	iorwf	(lcd_4bit_send_string_pos@lcd+1)& (0+255),w,b
  1422   0048C8  A4D8               	btfss	status,2,c
  1423   0048CA  EF69  F024         	goto	u8661
  1424   0048CE  EF6B  F024         	goto	u8660
  1425   0048D2                     u8661:
  1426   0048D2  EF6D  F024         	goto	l8487
  1427   0048D6                     u8660:
  1428   0048D6                     
  1429                           ; BSR set to: 0
  1430                           ;ECU_LAYER/LCD/ecu_lcd.c: 128:     }
  1431   0048D6  EF81  F024         	goto	l85
  1432   0048DA                     l8487:
  1433                           
  1434                           ; BSR set to: 0
  1435                           ;ECU_LAYER/LCD/ecu_lcd.c: 130:         set_cursor_4bit(lcd,row,column);
  1436   0048DA  C0A3  F09D         	movff	lcd_4bit_send_string_pos@lcd,set_cursor_4bit@lcd
  1437   0048DE  C0A4  F09E         	movff	lcd_4bit_send_string_pos@lcd+1,set_cursor_4bit@lcd+1
  1438   0048E2  C0A5  F09F         	movff	lcd_4bit_send_string_pos@row,set_cursor_4bit@row
  1439   0048E6  C0A6  F0A0         	movff	lcd_4bit_send_string_pos@column,set_cursor_4bit@column
  1440   0048EA  EC63  F01F         	call	_set_cursor_4bit	;wreg free
  1441   0048EE                     
  1442                           ;ECU_LAYER/LCD/ecu_lcd.c: 131:         lcd_4bit_send_string(lcd,str);
  1443   0048EE  C0A3  F09D         	movff	lcd_4bit_send_string_pos@lcd,lcd_4bit_send_string@lcd
  1444   0048F2  C0A4  F09E         	movff	lcd_4bit_send_string_pos@lcd+1,lcd_4bit_send_string@lcd+1
  1445   0048F6  C0A7  F09F         	movff	lcd_4bit_send_string_pos@str,lcd_4bit_send_string@str
  1446   0048FA  C0A8  F0A0         	movff	lcd_4bit_send_string_pos@str+1,lcd_4bit_send_string@str+1
  1447   0048FE  EC94  F020         	call	_lcd_4bit_send_string	;wreg free
  1448   004902                     l85:
  1449   004902  0012               	return		;funcret
  1450   004904                     __end_of_lcd_4bit_send_string_pos:
  1451                           	callstack 0
  1452                           
  1453 ;; *************** function _set_cursor_4bit *****************
  1454 ;; Defined at:
  1455 ;;		line 430 in file "ECU_LAYER/LCD/ecu_lcd.c"
  1456 ;; Parameters:    Size  Location     Type
  1457 ;;  lcd             2   29[BANK0 ] PTR const struct .
  1458 ;;		 -> lcd(6), 
  1459 ;;  row             1   31[BANK0 ] unsigned char 
  1460 ;;  column          1   32[BANK0 ] unsigned char 
  1461 ;; Auto vars:     Size  Location     Type
  1462 ;;		None
  1463 ;; Return value:  Size  Location     Type
  1464 ;;                  1    wreg      void 
  1465 ;; Registers used:
  1466 ;;		wreg, fsr2l, fsr2h, status,2, status,0, prodl, prodh, cstack
  1467 ;; Tracked objects:
  1468 ;;		On entry : 0/0
  1469 ;;		On exit  : 0/0
  1470 ;;		Unchanged: 0/0
  1471 ;; Data sizes:     COMRAM   BANK0   BANK1   BANK2   BANK3   BANK4   BANK5   BANK6   BANK7   BANK8   BANK9  BANK10  BANK1
      +1  BANK12  BANK13  BANK14  BANK15
  1472 ;;      Params:         0       4       0       0       0       0       0       0       0       0       0       0       
      +0       0       0       0       0
  1473 ;;      Locals:         0       0       0       0       0       0       0       0       0       0       0       0       
      +0       0       0       0       0
  1474 ;;      Temps:          0       2       0       0       0       0       0       0       0       0       0       0       
      +0       0       0       0       0
  1475 ;;      Totals:         0       6       0       0       0       0       0       0       0       0       0       0       
      +0       0       0       0       0
  1476 ;;Total ram usage:        6 bytes
  1477 ;; Hardware stack levels used: 1
  1478 ;; Hardware stack levels required when called: 12
  1479 ;; This function calls:
  1480 ;;		_lcd_4bit_send_command
  1481 ;; This function is called by:
  1482 ;;		_lcd_4bit_send_string_pos
  1483 ;;		_lcd_4bit_send_data_pos
  1484 ;; This function uses a non-reentrant model
  1485 ;;
  1486                           
  1487                           	psect	text3
  1488   003EC6                     __ptext3:
  1489                           	callstack 0
  1490   003EC6                     _set_cursor_4bit:
  1491                           	callstack 16
  1492   003EC6                     
  1493                           ;ECU_LAYER/LCD/ecu_lcd.c: 431:     column--;
  1494   003EC6  0100               	movlb	0	; () banked
  1495   003EC8  07A0               	decf	set_cursor_4bit@column& (0+255),f,b
  1496                           
  1497                           ;ECU_LAYER/LCD/ecu_lcd.c: 432:     switch (row){
  1498   003ECA  EF93  F01F         	goto	l8253
  1499   003ECE                     l8245:
  1500                           
  1501                           ; BSR set to: 0
  1502   003ECE  C09D  F09A         	movff	set_cursor_4bit@lcd,lcd_4bit_send_command@lcd
  1503   003ED2  C09E  F09B         	movff	set_cursor_4bit@lcd+1,lcd_4bit_send_command@lcd+1
  1504   003ED6  51A0               	movf	set_cursor_4bit@column& (0+255),w,b
  1505   003ED8  0F80               	addlw	128
  1506   003EDA  6F9C               	movwf	lcd_4bit_send_command@command& (0+255),b
  1507   003EDC  ECB1  F021         	call	_lcd_4bit_send_command	;wreg free
  1508   003EE0  EFB0  F01F         	goto	l182
  1509   003EE4                     l8247:
  1510                           
  1511                           ; BSR set to: 0
  1512   003EE4  C09D  F09A         	movff	set_cursor_4bit@lcd,lcd_4bit_send_command@lcd
  1513   003EE8  C09E  F09B         	movff	set_cursor_4bit@lcd+1,lcd_4bit_send_command@lcd+1
  1514   003EEC  51A0               	movf	set_cursor_4bit@column& (0+255),w,b
  1515   003EEE  0FC0               	addlw	192
  1516   003EF0  6F9C               	movwf	lcd_4bit_send_command@command& (0+255),b
  1517   003EF2  ECB1  F021         	call	_lcd_4bit_send_command	;wreg free
  1518   003EF6  EFB0  F01F         	goto	l182
  1519   003EFA                     l8249:
  1520                           
  1521                           ; BSR set to: 0
  1522   003EFA  C09D  F09A         	movff	set_cursor_4bit@lcd,lcd_4bit_send_command@lcd
  1523   003EFE  C09E  F09B         	movff	set_cursor_4bit@lcd+1,lcd_4bit_send_command@lcd+1
  1524   003F02  51A0               	movf	set_cursor_4bit@column& (0+255),w,b
  1525   003F04  0F94               	addlw	148
  1526   003F06  6F9C               	movwf	lcd_4bit_send_command@command& (0+255),b
  1527   003F08  ECB1  F021         	call	_lcd_4bit_send_command	;wreg free
  1528   003F0C  EFB0  F01F         	goto	l182
  1529   003F10                     l8251:
  1530                           
  1531                           ; BSR set to: 0
  1532   003F10  C09D  F09A         	movff	set_cursor_4bit@lcd,lcd_4bit_send_command@lcd
  1533   003F14  C09E  F09B         	movff	set_cursor_4bit@lcd+1,lcd_4bit_send_command@lcd+1
  1534   003F18  51A0               	movf	set_cursor_4bit@column& (0+255),w,b
  1535   003F1A  0FD4               	addlw	212
  1536   003F1C  6F9C               	movwf	lcd_4bit_send_command@command& (0+255),b
  1537   003F1E  ECB1  F021         	call	_lcd_4bit_send_command	;wreg free
  1538   003F22  EFB0  F01F         	goto	l182
  1539   003F26                     l8253:
  1540                           
  1541                           ; BSR set to: 0
  1542   003F26  519F               	movf	set_cursor_4bit@row& (0+255),w,b
  1543   003F28  6FA1               	movwf	??_set_cursor_4bit& (0+255),b
  1544   003F2A  6BA2               	clrf	(??_set_cursor_4bit+1)& (0+255),b
  1545                           
  1546                           ; Switch on 2 bytes has been partitioned into a top level switch of size 1, and 1 sub-sw
      +                          itches
  1547                           ; Switch size 1, requested type "simple"
  1548                           ; Number of cases is 1, Range of values is 0 to 0
  1549                           ; switch strategies available:
  1550                           ; Name         Instructions Cycles
  1551                           ; simple_byte            4     3 (average)
  1552                           ;	Chosen strategy is simple_byte
  1553   003F2C  51A2               	movf	(??_set_cursor_4bit+1)& (0+255),w,b
  1554   003F2E  0A00               	xorlw	0	; case 0
  1555   003F30  B4D8               	btfsc	status,2,c
  1556   003F32  EF9D  F01F         	goto	l9465
  1557   003F36  EFB0  F01F         	goto	l182
  1558   003F3A                     l9465:
  1559                           
  1560                           ; BSR set to: 0
  1561                           ; Switch size 1, requested type "simple"
  1562                           ; Number of cases is 4, Range of values is 1 to 4
  1563                           ; switch strategies available:
  1564                           ; Name         Instructions Cycles
  1565                           ; simple_byte           13     7 (average)
  1566                           ;	Chosen strategy is simple_byte
  1567   003F3A  51A1               	movf	??_set_cursor_4bit& (0+255),w,b
  1568   003F3C  0A01               	xorlw	1	; case 1
  1569   003F3E  B4D8               	btfsc	status,2,c
  1570   003F40  EF67  F01F         	goto	l8245
  1571   003F44  0A03               	xorlw	3	; case 2
  1572   003F46  B4D8               	btfsc	status,2,c
  1573   003F48  EF72  F01F         	goto	l8247
  1574   003F4C  0A01               	xorlw	1	; case 3
  1575   003F4E  B4D8               	btfsc	status,2,c
  1576   003F50  EF7D  F01F         	goto	l8249
  1577   003F54  0A07               	xorlw	7	; case 4
  1578   003F56  B4D8               	btfsc	status,2,c
  1579   003F58  EF88  F01F         	goto	l8251
  1580   003F5C  EFB0  F01F         	goto	l182
  1581   003F60                     l182:
  1582   003F60  0012               	return		;funcret
  1583   003F62                     __end_of_set_cursor_4bit:
  1584                           	callstack 0
  1585                           
  1586 ;; *************** function _lcd_4bit_send_string *****************
  1587 ;; Defined at:
  1588 ;;		line 105 in file "ECU_LAYER/LCD/ecu_lcd.c"
  1589 ;; Parameters:    Size  Location     Type
  1590 ;;  lcd             2   29[BANK0 ] PTR const struct .
  1591 ;;		 -> lcd(6), 
  1592 ;;  str             2   31[BANK0 ] PTR unsigned char 
  1593 ;;		 -> STR_5(14), temp_display(8), STR_4(8), 
  1594 ;; Auto vars:     Size  Location     Type
  1595 ;;  ret             1    0        unsigned char 
  1596 ;; Return value:  Size  Location     Type
  1597 ;;                  1    wreg      unsigned char 
  1598 ;; Registers used:
  1599 ;;		wreg, fsr0l, fsr0h, fsr2l, fsr2h, status,2, status,0, tblptrl, tblptrh, tblptru, prodl, prodh, cstack
  1600 ;; Tracked objects:
  1601 ;;		On entry : 0/0
  1602 ;;		On exit  : 0/0
  1603 ;;		Unchanged: 0/0
  1604 ;; Data sizes:     COMRAM   BANK0   BANK1   BANK2   BANK3   BANK4   BANK5   BANK6   BANK7   BANK8   BANK9  BANK10  BANK1
      +1  BANK12  BANK13  BANK14  BANK15
  1605 ;;      Params:         0       4       0       0       0       0       0       0       0       0       0       0       
      +0       0       0       0       0
  1606 ;;      Locals:         0       0       0       0       0       0       0       0       0       0       0       0       
      +0       0       0       0       0
  1607 ;;      Temps:          0       0       0       0       0       0       0       0       0       0       0       0       
      +0       0       0       0       0
  1608 ;;      Totals:         0       4       0       0       0       0       0       0       0       0       0       0       
      +0       0       0       0       0
  1609 ;;Total ram usage:        4 bytes
  1610 ;; Hardware stack levels used: 1
  1611 ;; Hardware stack levels required when called: 12
  1612 ;; This function calls:
  1613 ;;		_lcd_4bit_send_data
  1614 ;; This function is called by:
  1615 ;;		_lcd_4bit_send_string_pos
  1616 ;; This function uses a non-reentrant model
  1617 ;;
  1618                           
  1619                           	psect	text4
  1620   004128                     __ptext4:
  1621                           	callstack 0
  1622   004128                     _lcd_4bit_send_string:
  1623                           	callstack 16
  1624   004128                     
  1625                           ;ECU_LAYER/LCD/ecu_lcd.c: 109:     if (((void*)0) == lcd ){
  1626   004128  0100               	movlb	0	; () banked
  1627   00412A  519D               	movf	lcd_4bit_send_string@lcd& (0+255),w,b
  1628   00412C  119E               	iorwf	(lcd_4bit_send_string@lcd+1)& (0+255),w,b
  1629   00412E  A4D8               	btfss	status,2,c
  1630   004130  EF9C  F020         	goto	u8461
  1631   004134  EF9E  F020         	goto	u8460
  1632   004138                     u8461:
  1633   004138  EFBC  F020         	goto	l8269
  1634   00413C                     u8460:
  1635   00413C                     
  1636                           ; BSR set to: 0
  1637                           ;ECU_LAYER/LCD/ecu_lcd.c: 111:     }
  1638   00413C  EFD5  F020         	goto	l80
  1639   004140                     l8265:
  1640                           
  1641                           ;ECU_LAYER/LCD/ecu_lcd.c: 114:             lcd_4bit_send_data(lcd,*str++);
  1642   004140  C09D  F09A         	movff	lcd_4bit_send_string@lcd,lcd_4bit_send_data@lcd
  1643   004144  C09E  F09B         	movff	lcd_4bit_send_string@lcd+1,lcd_4bit_send_data@lcd+1
  1644   004148  C09F  FFF6         	movff	lcd_4bit_send_string@str,tblptrl
  1645   00414C  C0A0  FFF7         	movff	lcd_4bit_send_string@str+1,tblptrh
  1646   004150  0E00               	movlw	low (__smallconst shr (0+16))
  1647   004152  6EF8               	movwf	tblptru,c
  1648   004154  0E0F               	movlw	(high __ramtop+-1)
  1649   004156  64F7               	cpfsgt	tblptrh,c
  1650   004158  D003               	bra	u8477
  1651   00415A  0008               	tblrd		*
  1652   00415C  50F5               	movf	tablat,w,c
  1653   00415E  D005               	bra	u8470
  1654   004160                     u8477:
  1655   004160  CFF6 FFE9          	movff	tblptrl,fsr0l
  1656   004164  CFF7 FFEA          	movff	tblptrh,fsr0h
  1657   004168  50EF               	movf	indf0,w,c
  1658   00416A                     u8470:
  1659   00416A  0100               	movlb	0	; () banked
  1660   00416C  6F9C               	movwf	lcd_4bit_send_data@data& (0+255),b
  1661   00416E  EC7E  F021         	call	_lcd_4bit_send_data	;wreg free
  1662   004172  0100               	movlb	0	; () banked
  1663   004174  4B9F               	infsnz	lcd_4bit_send_string@str& (0+255),f,b
  1664   004176  2BA0               	incf	(lcd_4bit_send_string@str+1)& (0+255),f,b
  1665   004178                     l8269:
  1666                           
  1667                           ; BSR set to: 0
  1668                           ;ECU_LAYER/LCD/ecu_lcd.c: 113:         while(*str){
  1669   004178  C09F  FFF6         	movff	lcd_4bit_send_string@str,tblptrl
  1670   00417C  C0A0  FFF7         	movff	lcd_4bit_send_string@str+1,tblptrh
  1671   004180  0E00               	movlw	low (__smallconst shr (0+16))
  1672   004182  6EF8               	movwf	tblptru,c
  1673   004184  0E0F               	movlw	(high __ramtop+-1)
  1674   004186  64F7               	cpfsgt	tblptrh,c
  1675   004188  D003               	bra	u8487
  1676   00418A  0008               	tblrd		*
  1677   00418C  50F5               	movf	tablat,w,c
  1678   00418E  D005               	bra	u8480
  1679   004190                     u8487:
  1680   004190  CFF6 FFE9          	movff	tblptrl,fsr0l
  1681   004194  CFF7 FFEA          	movff	tblptrh,fsr0h
  1682   004198  50EF               	movf	indf0,w,c
  1683   00419A                     u8480:
  1684   00419A  0900               	iorlw	0
  1685   00419C  A4D8               	btfss	status,2,c
  1686   00419E  EFD3  F020         	goto	u8491
  1687   0041A2  EFD5  F020         	goto	u8490
  1688   0041A6                     u8491:
  1689   0041A6  EFA0  F020         	goto	l8265
  1690   0041AA                     u8490:
  1691   0041AA                     l80:
  1692   0041AA  0012               	return		;funcret
  1693   0041AC                     __end_of_lcd_4bit_send_string:
  1694                           	callstack 0
  1695                           
  1696 ;; *************** function _lcd_4bit_send_data *****************
  1697 ;; Defined at:
  1698 ;;		line 72 in file "ECU_LAYER/LCD/ecu_lcd.c"
  1699 ;; Parameters:    Size  Location     Type
  1700 ;;  lcd             2   26[BANK0 ] PTR const struct .
  1701 ;;		 -> lcd(6), 
  1702 ;;  data            1   28[BANK0 ] unsigned char 
  1703 ;; Auto vars:     Size  Location     Type
  1704 ;;  ret             1    0        unsigned char 
  1705 ;; Return value:  Size  Location     Type
  1706 ;;                  1    wreg      unsigned char 
  1707 ;; Registers used:
  1708 ;;		wreg, fsr2l, fsr2h, status,2, status,0, prodl, prodh, cstack
  1709 ;; Tracked objects:
  1710 ;;		On entry : 0/0
  1711 ;;		On exit  : 0/0
  1712 ;;		Unchanged: 0/0
  1713 ;; Data sizes:     COMRAM   BANK0   BANK1   BANK2   BANK3   BANK4   BANK5   BANK6   BANK7   BANK8   BANK9  BANK10  BANK1
      +1  BANK12  BANK13  BANK14  BANK15
  1714 ;;      Params:         0       3       0       0       0       0       0       0       0       0       0       0       
      +0       0       0       0       0
  1715 ;;      Locals:         0       0       0       0       0       0       0       0       0       0       0       0       
      +0       0       0       0       0
  1716 ;;      Temps:          0       0       0       0       0       0       0       0       0       0       0       0       
      +0       0       0       0       0
  1717 ;;      Totals:         0       3       0       0       0       0       0       0       0       0       0       0       
      +0       0       0       0       0
  1718 ;;Total ram usage:        3 bytes
  1719 ;; Hardware stack levels used: 1
  1720 ;; Hardware stack levels required when called: 11
  1721 ;; This function calls:
  1722 ;;		_gpio_pin_Write_logic
  1723 ;;		_send_4bit
  1724 ;;		_send_4bit_enable_signal
  1725 ;; This function is called by:
  1726 ;;		_lcd_4bit_send_string
  1727 ;;		_lcd_4bit_send_data_pos
  1728 ;;		_lcd_4bit_send_custom_char
  1729 ;; This function uses a non-reentrant model
  1730 ;;
  1731                           
  1732                           	psect	text5
  1733   0042FC                     __ptext5:
  1734                           	callstack 0
  1735   0042FC                     _lcd_4bit_send_data:
  1736                           	callstack 16
  1737   0042FC                     
  1738                           ;ECU_LAYER/LCD/ecu_lcd.c: 76:     if (((void*)0) == lcd ){
  1739   0042FC  0100               	movlb	0	; () banked
  1740   0042FE  519A               	movf	lcd_4bit_send_data@lcd& (0+255),w,b
  1741   004300  119B               	iorwf	(lcd_4bit_send_data@lcd+1)& (0+255),w,b
  1742   004302  A4D8               	btfss	status,2,c
  1743   004304  EF86  F021         	goto	u7401
  1744   004308  EF88  F021         	goto	u7400
  1745   00430C                     u7401:
  1746   00430C  EF8A  F021         	goto	l7629
  1747   004310                     u7400:
  1748   004310                     
  1749                           ; BSR set to: 0
  1750                           ;ECU_LAYER/LCD/ecu_lcd.c: 78:     }
  1751   004310  EFB0  F021         	goto	l67
  1752   004314                     l7629:
  1753                           
  1754                           ; BSR set to: 0
  1755                           ;ECU_LAYER/LCD/ecu_lcd.c: 80:       gpio_pin_Write_logic(&(lcd->lcd_rs),HIGH);
  1756   004314  C09A  F08E         	movff	lcd_4bit_send_data@lcd,gpio_pin_Write_logic@_pin_config
  1757   004318  C09B  F08F         	movff	lcd_4bit_send_data@lcd+1,gpio_pin_Write_logic@_pin_config+1
  1758   00431C  0E01               	movlw	1
  1759   00431E  6F90               	movwf	gpio_pin_Write_logic@logic& (0+255),b
  1760   004320  EC85  F01A         	call	_gpio_pin_Write_logic	;wreg free
  1761                           
  1762                           ;ECU_LAYER/LCD/ecu_lcd.c: 81:         send_4bit(lcd,data>>4);
  1763   004324  C09A  F097         	movff	lcd_4bit_send_data@lcd,send_4bit@lcd
  1764   004328  C09B  F098         	movff	lcd_4bit_send_data@lcd+1,send_4bit@lcd+1
  1765   00432C  0100               	movlb	0	; () banked
  1766   00432E  399C               	swapf	lcd_4bit_send_data@data& (0+255),w,b
  1767   004330  0B0F               	andlw	15
  1768   004332  6F99               	movwf	send_4bit@_data_command& (0+255),b
  1769   004334  EC15  F021         	call	_send_4bit	;wreg free
  1770                           
  1771                           ;ECU_LAYER/LCD/ecu_lcd.c: 82:         send_4bit_enable_signal(lcd);
  1772   004338  C09A  F097         	movff	lcd_4bit_send_data@lcd,send_4bit_enable_signal@lcd
  1773   00433C  C09B  F098         	movff	lcd_4bit_send_data@lcd+1,send_4bit_enable_signal@lcd+1
  1774   004340  ECFC  F024         	call	_send_4bit_enable_signal	;wreg free
  1775                           
  1776                           ;ECU_LAYER/LCD/ecu_lcd.c: 83:         send_4bit(lcd,data);
  1777   004344  C09A  F097         	movff	lcd_4bit_send_data@lcd,send_4bit@lcd
  1778   004348  C09B  F098         	movff	lcd_4bit_send_data@lcd+1,send_4bit@lcd+1
  1779   00434C  C09C  F099         	movff	lcd_4bit_send_data@data,send_4bit@_data_command
  1780   004350  EC15  F021         	call	_send_4bit	;wreg free
  1781                           
  1782                           ;ECU_LAYER/LCD/ecu_lcd.c: 84:         send_4bit_enable_signal(lcd);
  1783   004354  C09A  F097         	movff	lcd_4bit_send_data@lcd,send_4bit_enable_signal@lcd
  1784   004358  C09B  F098         	movff	lcd_4bit_send_data@lcd+1,send_4bit_enable_signal@lcd+1
  1785   00435C  ECFC  F024         	call	_send_4bit_enable_signal	;wreg free
  1786   004360                     l67:
  1787   004360  0012               	return		;funcret
  1788   004362                     __end_of_lcd_4bit_send_data:
  1789                           	callstack 0
  1790                           
  1791 ;; *************** function _operation_select *****************
  1792 ;; Defined at:
  1793 ;;		line 40 in file "functions.c"
  1794 ;; Parameters:    Size  Location     Type
  1795 ;;		None
  1796 ;; Auto vars:     Size  Location     Type
  1797 ;;		None
  1798 ;; Return value:  Size  Location     Type
  1799 ;;                  1    wreg      void 
  1800 ;; Registers used:
  1801 ;;		wreg, fsr2l, fsr2h, status,2, status,0, prodl, prodh, cstack
  1802 ;; Tracked objects:
  1803 ;;		On entry : 0/0
  1804 ;;		On exit  : 0/0
  1805 ;;		Unchanged: 0/0
  1806 ;; Data sizes:     COMRAM   BANK0   BANK1   BANK2   BANK3   BANK4   BANK5   BANK6   BANK7   BANK8   BANK9  BANK10  BANK1
      +1  BANK12  BANK13  BANK14  BANK15
  1807 ;;      Params:         0       0       0       0       0       0       0       0       0       0       0       0       
      +0       0       0       0       0
  1808 ;;      Locals:         0       0       0       0       0       0       0       0       0       0       0       0       
      +0       0       0       0       0
  1809 ;;      Temps:          0       0       0       0       0       0       0       0       0       0       0       0       
      +0       0       0       0       0
  1810 ;;      Totals:         0       0       0       0       0       0       0       0       0       0       0       0       
      +0       0       0       0       0
  1811 ;;Total ram usage:        0 bytes
  1812 ;; Hardware stack levels used: 1
  1813 ;; Hardware stack levels required when called: 12
  1814 ;; This function calls:
  1815 ;;		_AC_Operate
  1816 ;;		_CCP_PWM_Stop
  1817 ;;		_Heater_Operate
  1818 ;; This function is called by:
  1819 ;;		_main
  1820 ;; This function uses a non-reentrant model
  1821 ;;
  1822                           
  1823                           	psect	text6
  1824   003E28                     __ptext6:
  1825                           	callstack 0
  1826   003E28                     _operation_select:
  1827                           	callstack 18
  1828   003E28                     
  1829                           ;functions.c: 42:     if ((temp >= 35) && (temp <= 55)){
  1830   003E28  BE4E               	btfsc	(_temp+1)^0,7,c
  1831   003E2A  EF20  F01F         	goto	u9001
  1832   003E2E  504E               	movf	(_temp+1)^0,w,c
  1833   003E30  E109               	bnz	u9000
  1834   003E32  0E23               	movlw	35
  1835   003E34  5C4D               	subwf	_temp^0,w,c
  1836   003E36  A0D8               	btfss	status,0,c
  1837   003E38  EF20  F01F         	goto	u9001
  1838   003E3C  EF22  F01F         	goto	u9000
  1839   003E40                     u9001:
  1840   003E40  EF3B  F01F         	goto	l8797
  1841   003E44                     u9000:
  1842   003E44  BE4E               	btfsc	(_temp+1)^0,7,c
  1843   003E46  EF30  F01F         	goto	u9010
  1844   003E4A  504E               	movf	(_temp+1)^0,w,c
  1845   003E4C  E107               	bnz	u9011
  1846   003E4E  0E38               	movlw	56
  1847   003E50  5C4D               	subwf	_temp^0,w,c
  1848   003E52  B0D8               	btfsc	status,0,c
  1849   003E54  EF2E  F01F         	goto	u9011
  1850   003E58  EF30  F01F         	goto	u9010
  1851   003E5C                     u9011:
  1852   003E5C  EF3B  F01F         	goto	l8797
  1853   003E60                     u9010:
  1854   003E60                     
  1855                           ;functions.c: 43:       AC_Operate();
  1856   003E60  ECCA  F023         	call	_AC_Operate	;wreg free
  1857   003E64                     
  1858                           ;functions.c: 44:       CCP_PWM_Stop(&Heater);
  1859   003E64  0E1E               	movlw	low _Heater
  1860   003E66  0100               	movlb	0	; () banked
  1861   003E68  6F8E               	movwf	CCP_PWM_Stop@ccp_obj& (0+255),b
  1862   003E6A  0E01               	movlw	high _Heater
  1863   003E6C  6F8F               	movwf	(CCP_PWM_Stop@ccp_obj+1)& (0+255),b
  1864   003E6E  EC6F  F023         	call	_CCP_PWM_Stop	;wreg free
  1865                           
  1866                           ;functions.c: 45:     }
  1867   003E72  EF62  F01F         	goto	l1066
  1868   003E76                     l8797:
  1869   003E76  BE4E               	btfsc	(_temp+1)^0,7,c
  1870   003E78  EF49  F01F         	goto	u9020
  1871   003E7C  504E               	movf	(_temp+1)^0,w,c
  1872   003E7E  E107               	bnz	u9021
  1873   003E80  0E1A               	movlw	26
  1874   003E82  5C4D               	subwf	_temp^0,w,c
  1875   003E84  B0D8               	btfsc	status,0,c
  1876   003E86  EF47  F01F         	goto	u9021
  1877   003E8A  EF49  F01F         	goto	u9020
  1878   003E8E                     u9021:
  1879   003E8E  EF54  F01F         	goto	l8803
  1880   003E92                     u9020:
  1881   003E92                     
  1882                           ;functions.c: 47:        Heater_Operate();
  1883   003E92  EC9D  F023         	call	_Heater_Operate	;wreg free
  1884   003E96                     
  1885                           ;functions.c: 48:        CCP_PWM_Stop(&AC);
  1886   003E96  0E2A               	movlw	low _AC
  1887   003E98  0100               	movlb	0	; () banked
  1888   003E9A  6F8E               	movwf	CCP_PWM_Stop@ccp_obj& (0+255),b
  1889   003E9C  0E01               	movlw	high _AC
  1890   003E9E  6F8F               	movwf	(CCP_PWM_Stop@ccp_obj+1)& (0+255),b
  1891   003EA0  EC6F  F023         	call	_CCP_PWM_Stop	;wreg free
  1892                           
  1893                           ;functions.c: 49:     }
  1894   003EA4  EF62  F01F         	goto	l1066
  1895   003EA8                     l8803:
  1896                           
  1897                           ;functions.c: 51:       CCP_PWM_Stop(&AC);
  1898   003EA8  0E2A               	movlw	low _AC
  1899   003EAA  0100               	movlb	0	; () banked
  1900   003EAC  6F8E               	movwf	CCP_PWM_Stop@ccp_obj& (0+255),b
  1901   003EAE  0E01               	movlw	high _AC
  1902   003EB0  6F8F               	movwf	(CCP_PWM_Stop@ccp_obj+1)& (0+255),b
  1903   003EB2  EC6F  F023         	call	_CCP_PWM_Stop	;wreg free
  1904                           
  1905                           ;functions.c: 52:       CCP_PWM_Stop(&Heater);
  1906   003EB6  0E1E               	movlw	low _Heater
  1907   003EB8  0100               	movlb	0	; () banked
  1908   003EBA  6F8E               	movwf	CCP_PWM_Stop@ccp_obj& (0+255),b
  1909   003EBC  0E01               	movlw	high _Heater
  1910   003EBE  6F8F               	movwf	(CCP_PWM_Stop@ccp_obj+1)& (0+255),b
  1911   003EC0  EC6F  F023         	call	_CCP_PWM_Stop	;wreg free
  1912   003EC4                     l1066:
  1913   003EC4  0012               	return		;funcret
  1914   003EC6                     __end_of_operation_select:
  1915                           	callstack 0
  1916                           
  1917 ;; *************** function _Heater_Operate *****************
  1918 ;; Defined at:
  1919 ;;		line 69 in file "functions.c"
  1920 ;; Parameters:    Size  Location     Type
  1921 ;;		None
  1922 ;; Auto vars:     Size  Location     Type
  1923 ;;  ACC             2   17[BANK1 ] unsigned short 
  1924 ;; Return value:  Size  Location     Type
  1925 ;;                  1    wreg      void 
  1926 ;; Registers used:
  1927 ;;		wreg, fsr2l, fsr2h, status,2, status,0, prodl, prodh, cstack
  1928 ;; Tracked objects:
  1929 ;;		On entry : 0/0
  1930 ;;		On exit  : 0/0
  1931 ;;		Unchanged: 0/0
  1932 ;; Data sizes:     COMRAM   BANK0   BANK1   BANK2   BANK3   BANK4   BANK5   BANK6   BANK7   BANK8   BANK9  BANK10  BANK1
      +1  BANK12  BANK13  BANK14  BANK15
  1933 ;;      Params:         0       0       0       0       0       0       0       0       0       0       0       0       
      +0       0       0       0       0
  1934 ;;      Locals:         0       0       2       0       0       0       0       0       0       0       0       0       
      +0       0       0       0       0
  1935 ;;      Temps:          0       0       2       0       0       0       0       0       0       0       0       0       
      +0       0       0       0       0
  1936 ;;      Totals:         0       0       4       0       0       0       0       0       0       0       0       0       
      +0       0       0       0       0
  1937 ;;Total ram usage:        4 bytes
  1938 ;; Hardware stack levels used: 1
  1939 ;; Hardware stack levels required when called: 11
  1940 ;; This function calls:
  1941 ;;		_CCP_PWM_Set_Duty
  1942 ;;		_CCP_PWM_Start
  1943 ;; This function is called by:
  1944 ;;		_operation_select
  1945 ;; This function uses a non-reentrant model
  1946 ;;
  1947                           
  1948                           	psect	text7
  1949   00473A                     __ptext7:
  1950                           	callstack 0
  1951   00473A                     _Heater_Operate:
  1952                           	callstack 18
  1953   00473A                     
  1954                           ;functions.c: 71:     ACC=25-temp;
  1955   00473A  504D               	movf	_temp^0,w,c
  1956   00473C  0819               	sublw	25
  1957   00473E  0101               	movlb	1	; () banked
  1958   004740  6F83               	movwf	Heater_Operate@ACC& (0+255),b
  1959   004742  504E               	movf	(_temp+1)^0,w,c
  1960   004744  A0D8               	btfss	status,0,c
  1961   004746  2AE8               	incf	wreg,f,c
  1962   004748  0800               	sublw	0
  1963   00474A  6F84               	movwf	(Heater_Operate@ACC+1)& (0+255),b
  1964   00474C                     
  1965                           ; BSR set to: 1
  1966   00474C  C183  F181         	movff	Heater_Operate@ACC,??_Heater_Operate
  1967   004750  C184  F182         	movff	Heater_Operate@ACC+1,??_Heater_Operate+1
  1968   004754  90D8               	bcf	status,0,c
  1969   004756  3781               	rlcf	??_Heater_Operate& (0+255),f,b
  1970   004758  3782               	rlcf	(??_Heater_Operate+1)& (0+255),f,b
  1971   00475A  90D8               	bcf	status,0,c
  1972   00475C  3781               	rlcf	??_Heater_Operate& (0+255),f,b
  1973   00475E  3782               	rlcf	(??_Heater_Operate+1)& (0+255),f,b
  1974   004760  0E14               	movlw	20
  1975   004762  2581               	addwf	??_Heater_Operate& (0+255),w,b
  1976   004764  0100               	movlb	0	; () banked
  1977   004766  6FE6               	movwf	_speed& (0+255),b
  1978   004768  0E00               	movlw	0
  1979   00476A  0101               	movlb	1	; () banked
  1980   00476C  2182               	addwfc	(??_Heater_Operate+1)& (0+255),w,b
  1981   00476E  0100               	movlb	0	; () banked
  1982   004770  6FE7               	movwf	(_speed+1)& (0+255),b
  1983   004772                     
  1984                           ; BSR set to: 0
  1985                           ;functions.c: 73:   CCP_PWM_Set_Duty(&Heater,speed);
  1986   004772  0E1E               	movlw	low _Heater
  1987   004774  0101               	movlb	1	; () banked
  1988   004776  6F76               	movwf	CCP_PWM_Set_Duty@ccp_obj& (0+255),b
  1989   004778  0E01               	movlw	high _Heater
  1990   00477A  6F77               	movwf	(CCP_PWM_Set_Duty@ccp_obj+1)& (0+255),b
  1991   00477C  C0E6  F178         	movff	_speed,CCP_PWM_Set_Duty@_duty
  1992   004780  EC84  F016         	call	_CCP_PWM_Set_Duty	;wreg free
  1993   004784                     
  1994                           ;functions.c: 74:    CCP_PWM_Start(&Heater);
  1995   004784  0E1E               	movlw	low _Heater
  1996   004786  0100               	movlb	0	; () banked
  1997   004788  6F8E               	movwf	CCP_PWM_Start@ccp_obj& (0+255),b
  1998   00478A  0E01               	movlw	high _Heater
  1999   00478C  6F8F               	movwf	(CCP_PWM_Start@ccp_obj+1)& (0+255),b
  2000   00478E  EC17  F022         	call	_CCP_PWM_Start	;wreg free
  2001   004792  0012               	return		;funcret
  2002   004794                     __end_of_Heater_Operate:
  2003                           	callstack 0
  2004                           
  2005 ;; *************** function _CCP_PWM_Stop *****************
  2006 ;; Defined at:
  2007 ;;		line 301 in file "MCAL_LAYER/CCP/CCP.c"
  2008 ;; Parameters:    Size  Location     Type
  2009 ;;  ccp_obj         2   14[BANK0 ] PTR const struct .
  2010 ;;		 -> Heater(12), AC(12), 
  2011 ;; Auto vars:     Size  Location     Type
  2012 ;;  ret             1    0        unsigned char 
  2013 ;; Return value:  Size  Location     Type
  2014 ;;                  1    wreg      unsigned char 
  2015 ;; Registers used:
  2016 ;;		wreg, fsr2l, fsr2h, status,2, status,0
  2017 ;; Tracked objects:
  2018 ;;		On entry : 0/0
  2019 ;;		On exit  : 0/0
  2020 ;;		Unchanged: 0/0
  2021 ;; Data sizes:     COMRAM   BANK0   BANK1   BANK2   BANK3   BANK4   BANK5   BANK6   BANK7   BANK8   BANK9  BANK10  BANK1
      +1  BANK12  BANK13  BANK14  BANK15
  2022 ;;      Params:         0       2       0       0       0       0       0       0       0       0       0       0       
      +0       0       0       0       0
  2023 ;;      Locals:         0       0       0       0       0       0       0       0       0       0       0       0       
      +0       0       0       0       0
  2024 ;;      Temps:          0       1       0       0       0       0       0       0       0       0       0       0       
      +0       0       0       0       0
  2025 ;;      Totals:         0       3       0       0       0       0       0       0       0       0       0       0       
      +0       0       0       0       0
  2026 ;;Total ram usage:        3 bytes
  2027 ;; Hardware stack levels used: 1
  2028 ;; Hardware stack levels required when called: 9
  2029 ;; This function calls:
  2030 ;;		Nothing
  2031 ;; This function is called by:
  2032 ;;		_operation_select
  2033 ;; This function uses a non-reentrant model
  2034 ;;
  2035                           
  2036                           	psect	text8
  2037   0046DE                     __ptext8:
  2038                           	callstack 0
  2039   0046DE                     _CCP_PWM_Stop:
  2040                           	callstack 20
  2041   0046DE                     
  2042                           ;MCAL_LAYER/CCP/CCP.c: 304:     if (((void*)0) ==ccp_obj){
  2043   0046DE  0100               	movlb	0	; () banked
  2044   0046E0  518E               	movf	CCP_PWM_Stop@ccp_obj& (0+255),w,b
  2045   0046E2  118F               	iorwf	(CCP_PWM_Stop@ccp_obj+1)& (0+255),w,b
  2046   0046E4  A4D8               	btfss	status,2,c
  2047   0046E6  EF77  F023         	goto	u8841
  2048   0046EA  EF79  F023         	goto	u8840
  2049   0046EE                     u8841:
  2050   0046EE  EF7B  F023         	goto	l8641
  2051   0046F2                     u8840:
  2052   0046F2                     
  2053                           ; BSR set to: 0
  2054                           ;MCAL_LAYER/CCP/CCP.c: 306:     }
  2055   0046F2  EF9C  F023         	goto	l411
  2056   0046F6                     l8641:
  2057                           
  2058                           ; BSR set to: 0
  2059                           ;MCAL_LAYER/CCP/CCP.c: 309:         if (ccp_obj->CCPx == 1){(CCP1CONbits.CCP1M=((uint_8)
      +                          0x00));}
  2060   0046F6  C08E  FFD9         	movff	CCP_PWM_Stop@ccp_obj,fsr2l
  2061   0046FA  C08F  FFDA         	movff	CCP_PWM_Stop@ccp_obj+1,fsr2h
  2062   0046FE  04DE               	decf	postinc2,w,c
  2063   004700  A4D8               	btfss	status,2,c
  2064   004702  EF85  F023         	goto	u8851
  2065   004706  EF87  F023         	goto	u8850
  2066   00470A                     u8851:
  2067   00470A  EF8B  F023         	goto	l8645
  2068   00470E                     u8850:
  2069   00470E                     
  2070                           ; BSR set to: 0
  2071   00470E  0EF0               	movlw	-16
  2072   004710  16BD               	andwf	189,f,c	;volatile
  2073   004712  EF9C  F023         	goto	l411
  2074   004716                     l8645:
  2075                           
  2076                           ; BSR set to: 0
  2077   004716  C08E  FFD9         	movff	CCP_PWM_Stop@ccp_obj,fsr2l
  2078   00471A  C08F  FFDA         	movff	CCP_PWM_Stop@ccp_obj+1,fsr2h
  2079   00471E  0E02               	movlw	2
  2080   004720  18DE               	xorwf	postinc2,w,c
  2081   004722  A4D8               	btfss	status,2,c
  2082   004724  EF96  F023         	goto	u8861
  2083   004728  EF98  F023         	goto	u8860
  2084   00472C                     u8861:
  2085   00472C  EF9C  F023         	goto	l408
  2086   004730                     u8860:
  2087   004730                     
  2088                           ; BSR set to: 0
  2089   004730  0EF0               	movlw	-16
  2090   004732  16BA               	andwf	186,f,c	;volatile
  2091   004734  EF9C  F023         	goto	l411
  2092   004738                     l408:
  2093   004738                     l411:
  2094                           
  2095                           ; BSR set to: 0
  2096   004738  0012               	return		;funcret
  2097   00473A                     __end_of_CCP_PWM_Stop:
  2098                           	callstack 0
  2099                           
  2100 ;; *************** function _AC_Operate *****************
  2101 ;; Defined at:
  2102 ;;		line 61 in file "functions.c"
  2103 ;; Parameters:    Size  Location     Type
  2104 ;;		None
  2105 ;; Auto vars:     Size  Location     Type
  2106 ;;  ACC             2   17[BANK1 ] unsigned short 
  2107 ;; Return value:  Size  Location     Type
  2108 ;;                  1    wreg      void 
  2109 ;; Registers used:
  2110 ;;		wreg, fsr2l, fsr2h, status,2, status,0, prodl, prodh, cstack
  2111 ;; Tracked objects:
  2112 ;;		On entry : 0/0
  2113 ;;		On exit  : 0/0
  2114 ;;		Unchanged: 0/0
  2115 ;; Data sizes:     COMRAM   BANK0   BANK1   BANK2   BANK3   BANK4   BANK5   BANK6   BANK7   BANK8   BANK9  BANK10  BANK1
      +1  BANK12  BANK13  BANK14  BANK15
  2116 ;;      Params:         0       0       0       0       0       0       0       0       0       0       0       0       
      +0       0       0       0       0
  2117 ;;      Locals:         0       0       2       0       0       0       0       0       0       0       0       0       
      +0       0       0       0       0
  2118 ;;      Temps:          0       0       2       0       0       0       0       0       0       0       0       0       
      +0       0       0       0       0
  2119 ;;      Totals:         0       0       4       0       0       0       0       0       0       0       0       0       
      +0       0       0       0       0
  2120 ;;Total ram usage:        4 bytes
  2121 ;; Hardware stack levels used: 1
  2122 ;; Hardware stack levels required when called: 11
  2123 ;; This function calls:
  2124 ;;		_CCP_PWM_Set_Duty
  2125 ;;		_CCP_PWM_Start
  2126 ;; This function is called by:
  2127 ;;		_operation_select
  2128 ;; This function uses a non-reentrant model
  2129 ;;
  2130                           
  2131                           	psect	text9
  2132   004794                     __ptext9:
  2133                           	callstack 0
  2134   004794                     _AC_Operate:
  2135                           	callstack 18
  2136   004794                     
  2137                           ;functions.c: 63:     ACC=temp-35;
  2138   004794  0EDD               	movlw	221
  2139   004796  244D               	addwf	_temp^0,w,c
  2140   004798  0101               	movlb	1	; () banked
  2141   00479A  6F83               	movwf	AC_Operate@ACC& (0+255),b
  2142   00479C  0EFF               	movlw	255
  2143   00479E  204E               	addwfc	(_temp+1)^0,w,c
  2144   0047A0  6F84               	movwf	(AC_Operate@ACC+1)& (0+255),b
  2145   0047A2                     
  2146                           ; BSR set to: 1
  2147   0047A2  C183  F181         	movff	AC_Operate@ACC,??_AC_Operate
  2148   0047A6  C184  F182         	movff	AC_Operate@ACC+1,??_AC_Operate+1
  2149   0047AA  90D8               	bcf	status,0,c
  2150   0047AC  3781               	rlcf	??_AC_Operate& (0+255),f,b
  2151   0047AE  3782               	rlcf	(??_AC_Operate+1)& (0+255),f,b
  2152   0047B0  90D8               	bcf	status,0,c
  2153   0047B2  3781               	rlcf	??_AC_Operate& (0+255),f,b
  2154   0047B4  3782               	rlcf	(??_AC_Operate+1)& (0+255),f,b
  2155   0047B6  0E14               	movlw	20
  2156   0047B8  2581               	addwf	??_AC_Operate& (0+255),w,b
  2157   0047BA  0100               	movlb	0	; () banked
  2158   0047BC  6FE6               	movwf	_speed& (0+255),b
  2159   0047BE  0E00               	movlw	0
  2160   0047C0  0101               	movlb	1	; () banked
  2161   0047C2  2182               	addwfc	(??_AC_Operate+1)& (0+255),w,b
  2162   0047C4  0100               	movlb	0	; () banked
  2163   0047C6  6FE7               	movwf	(_speed+1)& (0+255),b
  2164   0047C8                     
  2165                           ; BSR set to: 0
  2166                           ;functions.c: 65:   CCP_PWM_Set_Duty(&AC,speed);
  2167   0047C8  0E2A               	movlw	low _AC
  2168   0047CA  0101               	movlb	1	; () banked
  2169   0047CC  6F76               	movwf	CCP_PWM_Set_Duty@ccp_obj& (0+255),b
  2170   0047CE  0E01               	movlw	high _AC
  2171   0047D0  6F77               	movwf	(CCP_PWM_Set_Duty@ccp_obj+1)& (0+255),b
  2172   0047D2  C0E6  F178         	movff	_speed,CCP_PWM_Set_Duty@_duty
  2173   0047D6  EC84  F016         	call	_CCP_PWM_Set_Duty	;wreg free
  2174   0047DA                     
  2175                           ;functions.c: 66:    CCP_PWM_Start(&AC);
  2176   0047DA  0E2A               	movlw	low _AC
  2177   0047DC  0100               	movlb	0	; () banked
  2178   0047DE  6F8E               	movwf	CCP_PWM_Start@ccp_obj& (0+255),b
  2179   0047E0  0E01               	movlw	high _AC
  2180   0047E2  6F8F               	movwf	(CCP_PWM_Start@ccp_obj+1)& (0+255),b
  2181   0047E4  EC17  F022         	call	_CCP_PWM_Start	;wreg free
  2182   0047E8  0012               	return		;funcret
  2183   0047EA                     __end_of_AC_Operate:
  2184                           	callstack 0
  2185                           
  2186 ;; *************** function _CCP_PWM_Start *****************
  2187 ;; Defined at:
  2188 ;;		line 286 in file "MCAL_LAYER/CCP/CCP.c"
  2189 ;; Parameters:    Size  Location     Type
  2190 ;;  ccp_obj         2   14[BANK0 ] PTR const struct .
  2191 ;;		 -> Heater(12), AC(12), 
  2192 ;; Auto vars:     Size  Location     Type
  2193 ;;  ret             1    0        unsigned char 
  2194 ;; Return value:  Size  Location     Type
  2195 ;;                  1    wreg      unsigned char 
  2196 ;; Registers used:
  2197 ;;		wreg, fsr2l, fsr2h, status,2, status,0
  2198 ;; Tracked objects:
  2199 ;;		On entry : 0/0
  2200 ;;		On exit  : 0/0
  2201 ;;		Unchanged: 0/0
  2202 ;; Data sizes:     COMRAM   BANK0   BANK1   BANK2   BANK3   BANK4   BANK5   BANK6   BANK7   BANK8   BANK9  BANK10  BANK1
      +1  BANK12  BANK13  BANK14  BANK15
  2203 ;;      Params:         0       2       0       0       0       0       0       0       0       0       0       0       
      +0       0       0       0       0
  2204 ;;      Locals:         0       0       0       0       0       0       0       0       0       0       0       0       
      +0       0       0       0       0
  2205 ;;      Temps:          0       1       0       0       0       0       0       0       0       0       0       0       
      +0       0       0       0       0
  2206 ;;      Totals:         0       3       0       0       0       0       0       0       0       0       0       0       
      +0       0       0       0       0
  2207 ;;Total ram usage:        3 bytes
  2208 ;; Hardware stack levels used: 1
  2209 ;; Hardware stack levels required when called: 9
  2210 ;; This function calls:
  2211 ;;		Nothing
  2212 ;; This function is called by:
  2213 ;;		_AC_Operate
  2214 ;;		_Heater_Operate
  2215 ;; This function uses a non-reentrant model
  2216 ;;
  2217                           
  2218                           	psect	text10
  2219   00442E                     __ptext10:
  2220                           	callstack 0
  2221   00442E                     _CCP_PWM_Start:
  2222                           	callstack 19
  2223   00442E                     
  2224                           ;MCAL_LAYER/CCP/CCP.c: 289:     if (((void*)0) ==ccp_obj){
  2225   00442E  0100               	movlb	0	; () banked
  2226   004430  518E               	movf	CCP_PWM_Start@ccp_obj& (0+255),w,b
  2227   004432  118F               	iorwf	(CCP_PWM_Start@ccp_obj+1)& (0+255),w,b
  2228   004434  A4D8               	btfss	status,2,c
  2229   004436  EF1F  F022         	goto	u8601
  2230   00443A  EF21  F022         	goto	u8600
  2231   00443E                     u8601:
  2232   00443E  EF23  F022         	goto	l8417
  2233   004442                     u8600:
  2234   004442                     
  2235                           ; BSR set to: 0
  2236                           ;MCAL_LAYER/CCP/CCP.c: 291:     }
  2237   004442  EF48  F022         	goto	l402
  2238   004446                     l8417:
  2239                           
  2240                           ; BSR set to: 0
  2241                           ;MCAL_LAYER/CCP/CCP.c: 293:          if (ccp_obj->CCPx == 1){(CCP1CONbits.CCP1M=((uint_8
      +                          ) 0x0C));}
  2242   004446  C08E  FFD9         	movff	CCP_PWM_Start@ccp_obj,fsr2l
  2243   00444A  C08F  FFDA         	movff	CCP_PWM_Start@ccp_obj+1,fsr2h
  2244   00444E  04DE               	decf	postinc2,w,c
  2245   004450  A4D8               	btfss	status,2,c
  2246   004452  EF2D  F022         	goto	u8611
  2247   004456  EF2F  F022         	goto	u8610
  2248   00445A                     u8611:
  2249   00445A  EF35  F022         	goto	l8421
  2250   00445E                     u8610:
  2251   00445E                     
  2252                           ; BSR set to: 0
  2253   00445E  50BD               	movf	189,w,c	;volatile
  2254   004460  0BF0               	andlw	-16
  2255   004462  090C               	iorlw	12
  2256   004464  6EBD               	movwf	189,c	;volatile
  2257   004466  EF48  F022         	goto	l402
  2258   00446A                     l8421:
  2259                           
  2260                           ; BSR set to: 0
  2261   00446A  C08E  FFD9         	movff	CCP_PWM_Start@ccp_obj,fsr2l
  2262   00446E  C08F  FFDA         	movff	CCP_PWM_Start@ccp_obj+1,fsr2h
  2263   004472  0E02               	movlw	2
  2264   004474  18DE               	xorwf	postinc2,w,c
  2265   004476  A4D8               	btfss	status,2,c
  2266   004478  EF40  F022         	goto	u8621
  2267   00447C  EF42  F022         	goto	u8620
  2268   004480                     u8621:
  2269   004480  EF48  F022         	goto	l399
  2270   004484                     u8620:
  2271   004484                     
  2272                           ; BSR set to: 0
  2273   004484  50BA               	movf	186,w,c	;volatile
  2274   004486  0BF0               	andlw	-16
  2275   004488  090C               	iorlw	12
  2276   00448A  6EBA               	movwf	186,c	;volatile
  2277   00448C  EF48  F022         	goto	l402
  2278   004490                     l399:
  2279   004490                     l402:
  2280                           
  2281                           ; BSR set to: 0
  2282   004490  0012               	return		;funcret
  2283   004492                     __end_of_CCP_PWM_Start:
  2284                           	callstack 0
  2285                           
  2286 ;; *************** function _CCP_PWM_Set_Duty *****************
  2287 ;; Defined at:
  2288 ;;		line 263 in file "MCAL_LAYER/CCP/CCP.c"
  2289 ;; Parameters:    Size  Location     Type
  2290 ;;  ccp_obj         2    4[BANK1 ] PTR const struct .
  2291 ;;		 -> Heater(12), AC(12), 
  2292 ;;  _duty           1    6[BANK1 ] const unsigned char 
  2293 ;; Auto vars:     Size  Location     Type
  2294 ;;  duty_cyc        2   13[BANK1 ] unsigned short 
  2295 ;;  ret             1    0        unsigned char 
  2296 ;; Return value:  Size  Location     Type
  2297 ;;                  1    wreg      unsigned char 
  2298 ;; Registers used:
  2299 ;;		wreg, fsr2l, fsr2h, status,2, status,0, prodl, prodh, cstack
  2300 ;; Tracked objects:
  2301 ;;		On entry : 0/0
  2302 ;;		On exit  : 0/0
  2303 ;;		Unchanged: 0/0
  2304 ;; Data sizes:     COMRAM   BANK0   BANK1   BANK2   BANK3   BANK4   BANK5   BANK6   BANK7   BANK8   BANK9  BANK10  BANK1
      +1  BANK12  BANK13  BANK14  BANK15
  2305 ;;      Params:         0       0       3       0       0       0       0       0       0       0       0       0       
      +0       0       0       0       0
  2306 ;;      Locals:         0       0       6       0       0       0       0       0       0       0       0       0       
      +0       0       0       0       0
  2307 ;;      Temps:          0       0       2       0       0       0       0       0       0       0       0       0       
      +0       0       0       0       0
  2308 ;;      Totals:         0       0      11       0       0       0       0       0       0       0       0       0       
      +0       0       0       0       0
  2309 ;;Total ram usage:       11 bytes
  2310 ;; Hardware stack levels used: 1
  2311 ;; Hardware stack levels required when called: 10
  2312 ;; This function calls:
  2313 ;;		___fladd
  2314 ;;		___fldiv
  2315 ;;		___flmul
  2316 ;;		___fltol
  2317 ;;		___xxtofl
  2318 ;; This function is called by:
  2319 ;;		_AC_Operate
  2320 ;;		_Heater_Operate
  2321 ;; This function uses a non-reentrant model
  2322 ;;
  2323                           
  2324                           	psect	text11
  2325   002D08                     __ptext11:
  2326                           	callstack 0
  2327   002D08                     _CCP_PWM_Set_Duty:
  2328                           	callstack 18
  2329   002D08                     
  2330                           ;MCAL_LAYER/CCP/CCP.c: 265:        uint_16 duty_cyc=0;
  2331   002D08  0E00               	movlw	0
  2332   002D0A  0101               	movlb	1	; () banked
  2333   002D0C  6F80               	movwf	(CCP_PWM_Set_Duty@duty_cyc+1)& (0+255),b
  2334   002D0E  0E00               	movlw	0
  2335   002D10  6F7F               	movwf	CCP_PWM_Set_Duty@duty_cyc& (0+255),b
  2336   002D12                     
  2337                           ; BSR set to: 1
  2338                           ;MCAL_LAYER/CCP/CCP.c: 266:     if (((void*)0) ==ccp_obj){
  2339   002D12  5176               	movf	CCP_PWM_Set_Duty@ccp_obj& (0+255),w,b
  2340   002D14  1177               	iorwf	(CCP_PWM_Set_Duty@ccp_obj+1)& (0+255),w,b
  2341   002D16  A4D8               	btfss	status,2,c
  2342   002D18  EF90  F016         	goto	u8571
  2343   002D1C  EF92  F016         	goto	u8570
  2344   002D20                     u8571:
  2345   002D20  EF94  F016         	goto	l8401
  2346   002D24                     u8570:
  2347   002D24                     
  2348                           ; BSR set to: 1
  2349                           ;MCAL_LAYER/CCP/CCP.c: 268:     }
  2350   002D24  EF51  F017         	goto	l393
  2351   002D28                     l8401:
  2352                           
  2353                           ; BSR set to: 1
  2354                           ;MCAL_LAYER/CCP/CCP.c: 270:      duty_cyc= (uint_16)(4 * (PR2 + 1.0) * (_duty / 100.0));
  2355   002D28  0E00               	movlw	0
  2356   002D2A  0100               	movlb	0	; () banked
  2357   002D2C  6FC9               	movwf	___flmul@a& (0+255),b
  2358   002D2E  0E00               	movlw	0
  2359   002D30  6FCA               	movwf	(___flmul@a+1)& (0+255),b
  2360   002D32  0E80               	movlw	128
  2361   002D34  6FCB               	movwf	(___flmul@a+2)& (0+255),b
  2362   002D36  0E40               	movlw	64
  2363   002D38  6FCC               	movwf	(___flmul@a+3)& (0+255),b
  2364   002D3A  0E00               	movlw	0
  2365   002D3C  6FB9               	movwf	___fladd@a& (0+255),b
  2366   002D3E  0E00               	movlw	0
  2367   002D40  6FBA               	movwf	(___fladd@a+1)& (0+255),b
  2368   002D42  0E80               	movlw	128
  2369   002D44  6FBB               	movwf	(___fladd@a+2)& (0+255),b
  2370   002D46  0E3F               	movlw	63
  2371   002D48  6FBC               	movwf	(___fladd@a+3)& (0+255),b
  2372   002D4A  50CB               	movf	203,w,c	;volatile
  2373   002D4C  6F8E               	movwf	___xxtofl@val& (0+255),b
  2374   002D4E  6B8F               	clrf	(___xxtofl@val+1)& (0+255),b
  2375   002D50  6B90               	clrf	(___xxtofl@val+2)& (0+255),b
  2376   002D52  6B91               	clrf	(___xxtofl@val+3)& (0+255),b
  2377   002D54  0E01               	movlw	1
  2378   002D56  EC1C  F013         	call	___xxtofl
  2379   002D5A  C08E  F0B5         	movff	?___xxtofl,___fladd@b
  2380   002D5E  C08F  F0B6         	movff	?___xxtofl+1,___fladd@b+1
  2381   002D62  C090  F0B7         	movff	?___xxtofl+2,___fladd@b+2
  2382   002D66  C091  F0B8         	movff	?___xxtofl+3,___fladd@b+3
  2383   002D6A  EC0E  F008         	call	___fladd	;wreg free
  2384   002D6E  C0B5  F0C5         	movff	?___fladd,___flmul@b
  2385   002D72  C0B6  F0C6         	movff	?___fladd+1,___flmul@b+1
  2386   002D76  C0B7  F0C7         	movff	?___fladd+2,___flmul@b+2
  2387   002D7A  C0B8  F0C8         	movff	?___fladd+3,___flmul@b+3
  2388   002D7E  EC6F  F00A         	call	___flmul	;wreg free
  2389   002D82  C0C5  F17B         	movff	?___flmul,_CCP_PWM_Set_Duty$3865
  2390   002D86  C0C6  F17C         	movff	?___flmul+1,_CCP_PWM_Set_Duty$3865+1
  2391   002D8A  C0C7  F17D         	movff	?___flmul+2,_CCP_PWM_Set_Duty$3865+2
  2392   002D8E  C0C8  F17E         	movff	?___flmul+3,_CCP_PWM_Set_Duty$3865+3
  2393                           
  2394                           ;MCAL_LAYER/CCP/CCP.c: 270:      duty_cyc= (uint_16)(4 * (PR2 + 1.0) * (_duty / 100.0));
  2395   002D92  0E00               	movlw	0
  2396   002D94  0100               	movlb	0	; () banked
  2397   002D96  6FA0               	movwf	___fldiv@a& (0+255),b
  2398   002D98  0E00               	movlw	0
  2399   002D9A  6FA1               	movwf	(___fldiv@a+1)& (0+255),b
  2400   002D9C  0EC8               	movlw	200
  2401   002D9E  6FA2               	movwf	(___fldiv@a+2)& (0+255),b
  2402   002DA0  0E42               	movlw	66
  2403   002DA2  6FA3               	movwf	(___fldiv@a+3)& (0+255),b
  2404   002DA4  0101               	movlb	1	; () banked
  2405   002DA6  5178               	movf	CCP_PWM_Set_Duty@_duty& (0+255),w,b
  2406   002DA8  0100               	movlb	0	; () banked
  2407   002DAA  6F8E               	movwf	___xxtofl@val& (0+255),b
  2408   002DAC  6B8F               	clrf	(___xxtofl@val+1)& (0+255),b
  2409   002DAE  6B90               	clrf	(___xxtofl@val+2)& (0+255),b
  2410   002DB0  6B91               	clrf	(___xxtofl@val+3)& (0+255),b
  2411   002DB2  0E01               	movlw	1
  2412   002DB4  EC1C  F013         	call	___xxtofl
  2413   002DB8  C08E  F09C         	movff	?___xxtofl,___fldiv@b
  2414   002DBC  C08F  F09D         	movff	?___xxtofl+1,___fldiv@b+1
  2415   002DC0  C090  F09E         	movff	?___xxtofl+2,___fldiv@b+2
  2416   002DC4  C091  F09F         	movff	?___xxtofl+3,___fldiv@b+3
  2417   002DC8  EC9A  F00E         	call	___fldiv	;wreg free
  2418   002DCC  C09C  F0C9         	movff	?___fldiv,___flmul@a
  2419   002DD0  C09D  F0CA         	movff	?___fldiv+1,___flmul@a+1
  2420   002DD4  C09E  F0CB         	movff	?___fldiv+2,___flmul@a+2
  2421   002DD8  C09F  F0CC         	movff	?___fldiv+3,___flmul@a+3
  2422   002DDC  C17B  F0C5         	movff	_CCP_PWM_Set_Duty$3865,___flmul@b
  2423   002DE0  C17C  F0C6         	movff	_CCP_PWM_Set_Duty$3865+1,___flmul@b+1
  2424   002DE4  C17D  F0C7         	movff	_CCP_PWM_Set_Duty$3865+2,___flmul@b+2
  2425   002DE8  C17E  F0C8         	movff	_CCP_PWM_Set_Duty$3865+3,___flmul@b+3
  2426   002DEC  EC6F  F00A         	call	___flmul	;wreg free
  2427   002DF0  C0C5  F0DE         	movff	?___flmul,___fltol@f1
  2428   002DF4  C0C6  F0DF         	movff	?___flmul+1,___fltol@f1+1
  2429   002DF8  C0C7  F0E0         	movff	?___flmul+2,___fltol@f1+2
  2430   002DFC  C0C8  F0E1         	movff	?___flmul+3,___fltol@f1+3
  2431   002E00  ECAA  F01B         	call	___fltol	;wreg free
  2432   002E04  C0DE  F17F         	movff	?___fltol,CCP_PWM_Set_Duty@duty_cyc
  2433   002E08  C0DF  F180         	movff	?___fltol+1,CCP_PWM_Set_Duty@duty_cyc+1
  2434   002E0C                     
  2435                           ;MCAL_LAYER/CCP/CCP.c: 271:      if (ccp_obj->CCPx == 1){
  2436   002E0C  C176  FFD9         	movff	CCP_PWM_Set_Duty@ccp_obj,fsr2l
  2437   002E10  C177  FFDA         	movff	CCP_PWM_Set_Duty@ccp_obj+1,fsr2h
  2438   002E14  04DE               	decf	postinc2,w,c
  2439   002E16  A4D8               	btfss	status,2,c
  2440   002E18  EF10  F017         	goto	u8581
  2441   002E1C  EF12  F017         	goto	u8580
  2442   002E20                     u8581:
  2443   002E20  EF2B  F017         	goto	l8407
  2444   002E24                     u8580:
  2445   002E24                     
  2446                           ;MCAL_LAYER/CCP/CCP.c: 272:          CCP1CONbits.DC1B= (uint_8) (duty_cyc & 0x0003);
  2447   002E24  C17F  F179         	movff	CCP_PWM_Set_Duty@duty_cyc,??_CCP_PWM_Set_Duty
  2448   002E28  0E03               	movlw	3
  2449   002E2A  0101               	movlb	1	; () banked
  2450   002E2C  1779               	andwf	??_CCP_PWM_Set_Duty& (0+255),f,b
  2451   002E2E  3B79               	swapf	??_CCP_PWM_Set_Duty& (0+255),f,b
  2452   002E30  50BD               	movf	189,w,c	;volatile
  2453   002E32  1979               	xorwf	??_CCP_PWM_Set_Duty& (0+255),w,b
  2454   002E34  0BCF               	andlw	-49
  2455   002E36  1979               	xorwf	??_CCP_PWM_Set_Duty& (0+255),w,b
  2456   002E38  6EBD               	movwf	189,c	;volatile
  2457                           
  2458                           ;MCAL_LAYER/CCP/CCP.c: 273:          CCPR1L= (uint_8)(duty_cyc >>2 );
  2459   002E3A  C17F  F179         	movff	CCP_PWM_Set_Duty@duty_cyc,??_CCP_PWM_Set_Duty
  2460   002E3E  C180  F17A         	movff	CCP_PWM_Set_Duty@duty_cyc+1,??_CCP_PWM_Set_Duty+1
  2461   002E42  90D8               	bcf	status,0,c
  2462   002E44  337A               	rrcf	(??_CCP_PWM_Set_Duty+1)& (0+255),f,b
  2463   002E46  3379               	rrcf	??_CCP_PWM_Set_Duty& (0+255),f,b
  2464   002E48  90D8               	bcf	status,0,c
  2465   002E4A  337A               	rrcf	(??_CCP_PWM_Set_Duty+1)& (0+255),f,b
  2466   002E4C  3379               	rrcf	??_CCP_PWM_Set_Duty& (0+255),f,b
  2467   002E4E  5179               	movf	??_CCP_PWM_Set_Duty& (0+255),w,b
  2468   002E50  6EBE               	movwf	190,c	;volatile
  2469                           
  2470                           ;MCAL_LAYER/CCP/CCP.c: 274:      }
  2471   002E52  EF51  F017         	goto	l393
  2472   002E56                     l8407:
  2473   002E56  C176  FFD9         	movff	CCP_PWM_Set_Duty@ccp_obj,fsr2l
  2474   002E5A  C177  FFDA         	movff	CCP_PWM_Set_Duty@ccp_obj+1,fsr2h
  2475   002E5E  0E02               	movlw	2
  2476   002E60  18DE               	xorwf	postinc2,w,c
  2477   002E62  A4D8               	btfss	status,2,c
  2478   002E64  EF36  F017         	goto	u8591
  2479   002E68  EF38  F017         	goto	u8590
  2480   002E6C                     u8591:
  2481   002E6C  EF51  F017         	goto	l390
  2482   002E70                     u8590:
  2483   002E70                     
  2484                           ;MCAL_LAYER/CCP/CCP.c: 276:           CCP2CONbits.DC2B= (uint_8) (duty_cyc & 0x0003);
  2485   002E70  C17F  F179         	movff	CCP_PWM_Set_Duty@duty_cyc,??_CCP_PWM_Set_Duty
  2486   002E74  0E03               	movlw	3
  2487   002E76  0101               	movlb	1	; () banked
  2488   002E78  1779               	andwf	??_CCP_PWM_Set_Duty& (0+255),f,b
  2489   002E7A  3B79               	swapf	??_CCP_PWM_Set_Duty& (0+255),f,b
  2490   002E7C  50BA               	movf	186,w,c	;volatile
  2491   002E7E  1979               	xorwf	??_CCP_PWM_Set_Duty& (0+255),w,b
  2492   002E80  0BCF               	andlw	-49
  2493   002E82  1979               	xorwf	??_CCP_PWM_Set_Duty& (0+255),w,b
  2494   002E84  6EBA               	movwf	186,c	;volatile
  2495                           
  2496                           ;MCAL_LAYER/CCP/CCP.c: 277:          CCPR2L= (uint_8)(duty_cyc >>2 );
  2497   002E86  C17F  F179         	movff	CCP_PWM_Set_Duty@duty_cyc,??_CCP_PWM_Set_Duty
  2498   002E8A  C180  F17A         	movff	CCP_PWM_Set_Duty@duty_cyc+1,??_CCP_PWM_Set_Duty+1
  2499   002E8E  90D8               	bcf	status,0,c
  2500   002E90  337A               	rrcf	(??_CCP_PWM_Set_Duty+1)& (0+255),f,b
  2501   002E92  3379               	rrcf	??_CCP_PWM_Set_Duty& (0+255),f,b
  2502   002E94  90D8               	bcf	status,0,c
  2503   002E96  337A               	rrcf	(??_CCP_PWM_Set_Duty+1)& (0+255),f,b
  2504   002E98  3379               	rrcf	??_CCP_PWM_Set_Duty& (0+255),f,b
  2505   002E9A  5179               	movf	??_CCP_PWM_Set_Duty& (0+255),w,b
  2506   002E9C  6EBB               	movwf	187,c	;volatile
  2507                           
  2508                           ;MCAL_LAYER/CCP/CCP.c: 278:         }
  2509   002E9E  EF51  F017         	goto	l393
  2510   002EA2                     l390:
  2511   002EA2                     l393:
  2512   002EA2  0012               	return		;funcret
  2513   002EA4                     __end_of_CCP_PWM_Set_Duty:
  2514                           	callstack 0
  2515                           
  2516 ;; *************** function _intialization *****************
  2517 ;; Defined at:
  2518 ;;		line 15 in file "functions.c"
  2519 ;; Parameters:    Size  Location     Type
  2520 ;;		None
  2521 ;; Auto vars:     Size  Location     Type
  2522 ;;		None
  2523 ;; Return value:  Size  Location     Type
  2524 ;;                  1    wreg      void 
  2525 ;; Registers used:
  2526 ;;		wreg, fsr2l, fsr2h, status,2, status,0, prodl, prodh, cstack
  2527 ;; Tracked objects:
  2528 ;;		On entry : 0/0
  2529 ;;		On exit  : 0/0
  2530 ;;		Unchanged: 0/0
  2531 ;; Data sizes:     COMRAM   BANK0   BANK1   BANK2   BANK3   BANK4   BANK5   BANK6   BANK7   BANK8   BANK9  BANK10  BANK1
      +1  BANK12  BANK13  BANK14  BANK15
  2532 ;;      Params:         0       0       0       0       0       0       0       0       0       0       0       0       
      +0       0       0       0       0
  2533 ;;      Locals:         0       0       0       0       0       0       0       0       0       0       0       0       
      +0       0       0       0       0
  2534 ;;      Temps:          0       0       0       0       0       0       0       0       0       0       0       0       
      +0       0       0       0       0
  2535 ;;      Totals:         0       0       0       0       0       0       0       0       0       0       0       0       
      +0       0       0       0       0
  2536 ;;Total ram usage:        0 bytes
  2537 ;; Hardware stack levels used: 1
  2538 ;; Hardware stack levels required when called: 13
  2539 ;; This function calls:
  2540 ;;		_ADC_Init
  2541 ;;		_CCPx_Init
  2542 ;;		_TMR2_Init
  2543 ;;		_lcd_4bit_intialize
  2544 ;; This function is called by:
  2545 ;;		_main
  2546 ;; This function uses a non-reentrant model
  2547 ;;
  2548                           
  2549                           	psect	text12
  2550   004836                     __ptext12:
  2551                           	callstack 0
  2552   004836                     _intialization:
  2553                           	callstack 17
  2554   004836                     
  2555                           ;functions.c: 16:     lcd_4bit_intialize(&lcd);
  2556   004836  0E3E               	movlw	low _lcd
  2557   004838  0100               	movlb	0	; () banked
  2558   00483A  6F9D               	movwf	lcd_4bit_intialize@lcd& (0+255),b
  2559   00483C  0E01               	movlw	high _lcd
  2560   00483E  6F9E               	movwf	(lcd_4bit_intialize@lcd+1)& (0+255),b
  2561   004840  ECAC  F018         	call	_lcd_4bit_intialize	;wreg free
  2562   004844                     
  2563                           ;functions.c: 17:     ADC_Init(&Tempe_reader);
  2564   004844  0E36               	movlw	low _Tempe_reader
  2565   004846  0100               	movlb	0	; () banked
  2566   004848  6F91               	movwf	ADC_Init@pin& (0+255),b
  2567   00484A  0E01               	movlw	high _Tempe_reader
  2568   00484C  6F92               	movwf	(ADC_Init@pin+1)& (0+255),b
  2569   00484E  ECB3  F01C         	call	_ADC_Init	;wreg free
  2570   004852                     
  2571                           ;functions.c: 18:     TMR2_Init(&time);
  2572   004852  0E6C               	movlw	low _time
  2573   004854  0100               	movlb	0	; () banked
  2574   004856  6F8E               	movwf	TMR2_Init@obj& (0+255),b
  2575   004858  0E01               	movlw	high _time
  2576   00485A  6F8F               	movwf	(TMR2_Init@obj+1)& (0+255),b
  2577   00485C  EC4C  F020         	call	_TMR2_Init	;wreg free
  2578                           
  2579                           ;functions.c: 19:     CCPx_Init(&AC);
  2580   004860  0E2A               	movlw	low _AC
  2581   004862  0101               	movlb	1	; () banked
  2582   004864  6F82               	movwf	CCPx_Init@ccp_obj& (0+255),b
  2583   004866  0E01               	movlw	high _AC
  2584   004868  6F83               	movwf	(CCPx_Init@ccp_obj+1)& (0+255),b
  2585   00486A  EC52  F017         	call	_CCPx_Init	;wreg free
  2586                           
  2587                           ;functions.c: 20:     CCPx_Init(&Heater);
  2588   00486E  0E1E               	movlw	low _Heater
  2589   004870  0101               	movlb	1	; () banked
  2590   004872  6F82               	movwf	CCPx_Init@ccp_obj& (0+255),b
  2591   004874  0E01               	movlw	high _Heater
  2592   004876  6F83               	movwf	(CCPx_Init@ccp_obj+1)& (0+255),b
  2593   004878  EC52  F017         	call	_CCPx_Init	;wreg free
  2594   00487C  0012               	return		;funcret
  2595   00487E                     __end_of_intialization:
  2596                           	callstack 0
  2597                           
  2598 ;; *************** function _lcd_4bit_intialize *****************
  2599 ;; Defined at:
  2600 ;;		line 18 in file "ECU_LAYER/LCD/ecu_lcd.c"
  2601 ;; Parameters:    Size  Location     Type
  2602 ;;  lcd             2   29[BANK0 ] PTR const struct .
  2603 ;;		 -> lcd(6), 
  2604 ;; Auto vars:     Size  Location     Type
  2605 ;;  ret             1   33[BANK0 ] unsigned char 
  2606 ;; Return value:  Size  Location     Type
  2607 ;;                  1    wreg      unsigned char 
  2608 ;; Registers used:
  2609 ;;		wreg, fsr2l, fsr2h, status,2, status,0, prodl, prodh, cstack
  2610 ;; Tracked objects:
  2611 ;;		On entry : 0/0
  2612 ;;		On exit  : 0/0
  2613 ;;		Unchanged: 0/0
  2614 ;; Data sizes:     COMRAM   BANK0   BANK1   BANK2   BANK3   BANK4   BANK5   BANK6   BANK7   BANK8   BANK9  BANK10  BANK1
      +1  BANK12  BANK13  BANK14  BANK15
  2615 ;;      Params:         0       2       0       0       0       0       0       0       0       0       0       0       
      +0       0       0       0       0
  2616 ;;      Locals:         0       1       0       0       0       0       0       0       0       0       0       0       
      +0       0       0       0       0
  2617 ;;      Temps:          0       2       0       0       0       0       0       0       0       0       0       0       
      +0       0       0       0       0
  2618 ;;      Totals:         0       5       0       0       0       0       0       0       0       0       0       0       
      +0       0       0       0       0
  2619 ;;Total ram usage:        5 bytes
  2620 ;; Hardware stack levels used: 1
  2621 ;; Hardware stack levels required when called: 12
  2622 ;; This function calls:
  2623 ;;		_gpio_pin_intialize
  2624 ;;		_lcd_4bit_send_command
  2625 ;; This function is called by:
  2626 ;;		_intialization
  2627 ;; This function uses a non-reentrant model
  2628 ;;
  2629                           
  2630                           	psect	text13
  2631   003158                     __ptext13:
  2632                           	callstack 0
  2633   003158                     _lcd_4bit_intialize:
  2634                           	callstack 17
  2635   003158                     
  2636                           ;ECU_LAYER/LCD/ecu_lcd.c: 22:     if (((void*)0) == lcd ){
  2637   003158  0100               	movlb	0	; () banked
  2638   00315A  519D               	movf	lcd_4bit_intialize@lcd& (0+255),w,b
  2639   00315C  119E               	iorwf	(lcd_4bit_intialize@lcd+1)& (0+255),w,b
  2640   00315E  A4D8               	btfss	status,2,c
  2641   003160  EFB4  F018         	goto	u8641
  2642   003164  EFB6  F018         	goto	u8640
  2643   003168                     u8641:
  2644   003168  EFB8  F018         	goto	l8443
  2645   00316C                     u8640:
  2646   00316C                     
  2647                           ; BSR set to: 0
  2648                           ;ECU_LAYER/LCD/ecu_lcd.c: 24:     }
  2649   00316C  EF4E  F019         	goto	l57
  2650   003170                     l8443:
  2651                           
  2652                           ; BSR set to: 0
  2653                           ;ECU_LAYER/LCD/ecu_lcd.c: 27:         ret=gpio_pin_intialize(&(lcd->lcd_rs));
  2654   003170  C09D  F097         	movff	lcd_4bit_intialize@lcd,gpio_pin_intialize@_pin_config
  2655   003174  C09E  F098         	movff	lcd_4bit_intialize@lcd+1,gpio_pin_intialize@_pin_config+1
  2656   003178  ECE4  F021         	call	_gpio_pin_intialize	;wreg free
  2657   00317C  0100               	movlb	0	; () banked
  2658   00317E  6FA1               	movwf	lcd_4bit_intialize@ret& (0+255),b
  2659                           
  2660                           ;ECU_LAYER/LCD/ecu_lcd.c: 28:         ret=gpio_pin_intialize(&(lcd->lcd_en));
  2661   003180  0E01               	movlw	1
  2662   003182  259D               	addwf	lcd_4bit_intialize@lcd& (0+255),w,b
  2663   003184  6F97               	movwf	gpio_pin_intialize@_pin_config& (0+255),b
  2664   003186  0E00               	movlw	0
  2665   003188  219E               	addwfc	(lcd_4bit_intialize@lcd+1)& (0+255),w,b
  2666   00318A  6F98               	movwf	(gpio_pin_intialize@_pin_config+1)& (0+255),b
  2667   00318C  ECE4  F021         	call	_gpio_pin_intialize	;wreg free
  2668   003190  0100               	movlb	0	; () banked
  2669   003192  6FA1               	movwf	lcd_4bit_intialize@ret& (0+255),b
  2670   003194                     
  2671                           ; BSR set to: 0
  2672                           ;ECU_LAYER/LCD/ecu_lcd.c: 29:         for(lcd_counter=0;lcd_counter<4;lcd_counter++){
  2673   003194  0E00               	movlw	0
  2674   003196  6FEF               	movwf	_lcd_counter& (0+255),b
  2675   003198                     l8447:
  2676                           
  2677                           ; BSR set to: 0
  2678   003198  0E03               	movlw	3
  2679   00319A  65EF               	cpfsgt	_lcd_counter& (0+255),b
  2680   00319C  EFD2  F018         	goto	u8651
  2681   0031A0  EFD4  F018         	goto	u8650
  2682   0031A4                     u8651:
  2683   0031A4  EFD6  F018         	goto	l8451
  2684   0031A8                     u8650:
  2685   0031A8  EFE8  F018         	goto	l8457
  2686   0031AC                     l8451:
  2687                           
  2688                           ; BSR set to: 0
  2689   0031AC  51EF               	movf	_lcd_counter& (0+255),w,b
  2690   0031AE  259D               	addwf	lcd_4bit_intialize@lcd& (0+255),w,b
  2691   0031B0  6F9F               	movwf	??_lcd_4bit_intialize& (0+255),b
  2692   0031B2  0E00               	movlw	0
  2693   0031B4  219E               	addwfc	(lcd_4bit_intialize@lcd+1)& (0+255),w,b
  2694   0031B6  6FA0               	movwf	(??_lcd_4bit_intialize+1)& (0+255),b
  2695   0031B8  0E02               	movlw	2
  2696   0031BA  259F               	addwf	??_lcd_4bit_intialize& (0+255),w,b
  2697   0031BC  6F97               	movwf	gpio_pin_intialize@_pin_config& (0+255),b
  2698   0031BE  0E00               	movlw	0
  2699   0031C0  21A0               	addwfc	(??_lcd_4bit_intialize+1)& (0+255),w,b
  2700   0031C2  6F98               	movwf	(gpio_pin_intialize@_pin_config+1)& (0+255),b
  2701   0031C4  ECE4  F021         	call	_gpio_pin_intialize	;wreg free
  2702   0031C8                     
  2703                           ;ECU_LAYER/LCD/ecu_lcd.c: 31:         }
  2704   0031C8  0100               	movlb	0	; () banked
  2705   0031CA  2BEF               	incf	_lcd_counter& (0+255),f,b
  2706   0031CC  EFCC  F018         	goto	l8447
  2707   0031D0                     l8457:
  2708                           
  2709                           ; BSR set to: 0
  2710                           ;ECU_LAYER/LCD/ecu_lcd.c: 33:          _delay((unsigned long)((20)*(8000000UL/4000.0)));
  2711   0031D0  0E34               	movlw	52
  2712   0031D2  0100               	movlb	0	; () banked
  2713   0031D4  6F9F               	movwf	??_lcd_4bit_intialize& (0+255),b
  2714   0031D6  0EF1               	movlw	241
  2715   0031D8                     u9477:
  2716   0031D8  2EE8               	decfsz	wreg,f,c
  2717   0031DA  D7FE               	bra	u9477
  2718   0031DC  2F9F               	decfsz	??_lcd_4bit_intialize& (0+255),f,b
  2719   0031DE  D7FC               	bra	u9477
  2720   0031E0  D000               	nop2	
  2721   0031E2                     
  2722                           ;ECU_LAYER/LCD/ecu_lcd.c: 34:         lcd_4bit_send_command(lcd,0X38);
  2723   0031E2  C09D  F09A         	movff	lcd_4bit_intialize@lcd,lcd_4bit_send_command@lcd
  2724   0031E6  C09E  F09B         	movff	lcd_4bit_intialize@lcd+1,lcd_4bit_send_command@lcd+1
  2725   0031EA  0E38               	movlw	56
  2726   0031EC  0100               	movlb	0	; () banked
  2727   0031EE  6F9C               	movwf	lcd_4bit_send_command@command& (0+255),b
  2728   0031F0  ECB1  F021         	call	_lcd_4bit_send_command	;wreg free
  2729   0031F4                     
  2730                           ;ECU_LAYER/LCD/ecu_lcd.c: 35:          _delay((unsigned long)((5)*(8000000UL/4000.0)));
  2731   0031F4  0E0D               	movlw	13
  2732   0031F6  0100               	movlb	0	; () banked
  2733   0031F8  6F9F               	movwf	??_lcd_4bit_intialize& (0+255),b
  2734   0031FA  0EFB               	movlw	251
  2735   0031FC                     u9487:
  2736   0031FC  2EE8               	decfsz	wreg,f,c
  2737   0031FE  D7FE               	bra	u9487
  2738   003200  2F9F               	decfsz	??_lcd_4bit_intialize& (0+255),f,b
  2739   003202  D7FC               	bra	u9487
  2740   003204  D000               	nop2	
  2741                           
  2742                           ;ECU_LAYER/LCD/ecu_lcd.c: 36:         lcd_4bit_send_command(lcd,0X38);
  2743   003206  C09D  F09A         	movff	lcd_4bit_intialize@lcd,lcd_4bit_send_command@lcd
  2744   00320A  C09E  F09B         	movff	lcd_4bit_intialize@lcd+1,lcd_4bit_send_command@lcd+1
  2745   00320E  0E38               	movlw	56
  2746   003210  0100               	movlb	0	; () banked
  2747   003212  6F9C               	movwf	lcd_4bit_send_command@command& (0+255),b
  2748   003214  ECB1  F021         	call	_lcd_4bit_send_command	;wreg free
  2749   003218                     
  2750                           ;ECU_LAYER/LCD/ecu_lcd.c: 37:          _delay((unsigned long)((150)*(8000000UL/4000000.0
      +                          )));
  2751   003218  0E64               	movlw	100
  2752   00321A                     u9497:
  2753   00321A  2EE8               	decfsz	wreg,f,c
  2754   00321C  D7FE               	bra	u9497
  2755   00321E                     
  2756                           ;ECU_LAYER/LCD/ecu_lcd.c: 38:         lcd_4bit_send_command(lcd,0X38);
  2757   00321E  C09D  F09A         	movff	lcd_4bit_intialize@lcd,lcd_4bit_send_command@lcd
  2758   003222  C09E  F09B         	movff	lcd_4bit_intialize@lcd+1,lcd_4bit_send_command@lcd+1
  2759   003226  0E38               	movlw	56
  2760   003228  0100               	movlb	0	; () banked
  2761   00322A  6F9C               	movwf	lcd_4bit_send_command@command& (0+255),b
  2762   00322C  ECB1  F021         	call	_lcd_4bit_send_command	;wreg free
  2763   003230                     
  2764                           ;ECU_LAYER/LCD/ecu_lcd.c: 40:          lcd_4bit_send_command(lcd,0X01);
  2765   003230  C09D  F09A         	movff	lcd_4bit_intialize@lcd,lcd_4bit_send_command@lcd
  2766   003234  C09E  F09B         	movff	lcd_4bit_intialize@lcd+1,lcd_4bit_send_command@lcd+1
  2767   003238  0E01               	movlw	1
  2768   00323A  0100               	movlb	0	; () banked
  2769   00323C  6F9C               	movwf	lcd_4bit_send_command@command& (0+255),b
  2770   00323E  ECB1  F021         	call	_lcd_4bit_send_command	;wreg free
  2771   003242                     
  2772                           ;ECU_LAYER/LCD/ecu_lcd.c: 41:          lcd_4bit_send_command(lcd,0X02);
  2773   003242  C09D  F09A         	movff	lcd_4bit_intialize@lcd,lcd_4bit_send_command@lcd
  2774   003246  C09E  F09B         	movff	lcd_4bit_intialize@lcd+1,lcd_4bit_send_command@lcd+1
  2775   00324A  0E02               	movlw	2
  2776   00324C  0100               	movlb	0	; () banked
  2777   00324E  6F9C               	movwf	lcd_4bit_send_command@command& (0+255),b
  2778   003250  ECB1  F021         	call	_lcd_4bit_send_command	;wreg free
  2779   003254                     
  2780                           ;ECU_LAYER/LCD/ecu_lcd.c: 42:          lcd_4bit_send_command(lcd,0X06);
  2781   003254  C09D  F09A         	movff	lcd_4bit_intialize@lcd,lcd_4bit_send_command@lcd
  2782   003258  C09E  F09B         	movff	lcd_4bit_intialize@lcd+1,lcd_4bit_send_command@lcd+1
  2783   00325C  0E06               	movlw	6
  2784   00325E  0100               	movlb	0	; () banked
  2785   003260  6F9C               	movwf	lcd_4bit_send_command@command& (0+255),b
  2786   003262  ECB1  F021         	call	_lcd_4bit_send_command	;wreg free
  2787   003266                     
  2788                           ;ECU_LAYER/LCD/ecu_lcd.c: 43:          lcd_4bit_send_command(lcd,0X0C);
  2789   003266  C09D  F09A         	movff	lcd_4bit_intialize@lcd,lcd_4bit_send_command@lcd
  2790   00326A  C09E  F09B         	movff	lcd_4bit_intialize@lcd+1,lcd_4bit_send_command@lcd+1
  2791   00326E  0E0C               	movlw	12
  2792   003270  0100               	movlb	0	; () banked
  2793   003272  6F9C               	movwf	lcd_4bit_send_command@command& (0+255),b
  2794   003274  ECB1  F021         	call	_lcd_4bit_send_command	;wreg free
  2795   003278                     
  2796                           ;ECU_LAYER/LCD/ecu_lcd.c: 45:          lcd_4bit_send_command(lcd,0X28);
  2797   003278  C09D  F09A         	movff	lcd_4bit_intialize@lcd,lcd_4bit_send_command@lcd
  2798   00327C  C09E  F09B         	movff	lcd_4bit_intialize@lcd+1,lcd_4bit_send_command@lcd+1
  2799   003280  0E28               	movlw	40
  2800   003282  0100               	movlb	0	; () banked
  2801   003284  6F9C               	movwf	lcd_4bit_send_command@command& (0+255),b
  2802   003286  ECB1  F021         	call	_lcd_4bit_send_command	;wreg free
  2803   00328A                     
  2804                           ;ECU_LAYER/LCD/ecu_lcd.c: 46:          lcd_4bit_send_command(lcd,0X80);
  2805   00328A  C09D  F09A         	movff	lcd_4bit_intialize@lcd,lcd_4bit_send_command@lcd
  2806   00328E  C09E  F09B         	movff	lcd_4bit_intialize@lcd+1,lcd_4bit_send_command@lcd+1
  2807   003292  0E80               	movlw	128
  2808   003294  0100               	movlb	0	; () banked
  2809   003296  6F9C               	movwf	lcd_4bit_send_command@command& (0+255),b
  2810   003298  ECB1  F021         	call	_lcd_4bit_send_command	;wreg free
  2811   00329C                     l57:
  2812   00329C  0012               	return		;funcret
  2813   00329E                     __end_of_lcd_4bit_intialize:
  2814                           	callstack 0
  2815                           
  2816 ;; *************** function _lcd_4bit_send_command *****************
  2817 ;; Defined at:
  2818 ;;		line 52 in file "ECU_LAYER/LCD/ecu_lcd.c"
  2819 ;; Parameters:    Size  Location     Type
  2820 ;;  lcd             2   26[BANK0 ] PTR const struct .
  2821 ;;		 -> lcd(6), 
  2822 ;;  command         1   28[BANK0 ] unsigned char 
  2823 ;; Auto vars:     Size  Location     Type
  2824 ;;  ret             1    0        unsigned char 
  2825 ;; Return value:  Size  Location     Type
  2826 ;;                  1    wreg      unsigned char 
  2827 ;; Registers used:
  2828 ;;		wreg, fsr2l, fsr2h, status,2, status,0, prodl, prodh, cstack
  2829 ;; Tracked objects:
  2830 ;;		On entry : 0/0
  2831 ;;		On exit  : 0/0
  2832 ;;		Unchanged: 0/0
  2833 ;; Data sizes:     COMRAM   BANK0   BANK1   BANK2   BANK3   BANK4   BANK5   BANK6   BANK7   BANK8   BANK9  BANK10  BANK1
      +1  BANK12  BANK13  BANK14  BANK15
  2834 ;;      Params:         0       3       0       0       0       0       0       0       0       0       0       0       
      +0       0       0       0       0
  2835 ;;      Locals:         0       0       0       0       0       0       0       0       0       0       0       0       
      +0       0       0       0       0
  2836 ;;      Temps:          0       0       0       0       0       0       0       0       0       0       0       0       
      +0       0       0       0       0
  2837 ;;      Totals:         0       3       0       0       0       0       0       0       0       0       0       0       
      +0       0       0       0       0
  2838 ;;Total ram usage:        3 bytes
  2839 ;; Hardware stack levels used: 1
  2840 ;; Hardware stack levels required when called: 11
  2841 ;; This function calls:
  2842 ;;		_gpio_pin_Write_logic
  2843 ;;		_send_4bit
  2844 ;;		_send_4bit_enable_signal
  2845 ;; This function is called by:
  2846 ;;		_lcd_4bit_intialize
  2847 ;;		_set_cursor_4bit
  2848 ;;		_welcome_message
  2849 ;;		_lcd_4bit_send_custom_char
  2850 ;; This function uses a non-reentrant model
  2851 ;;
  2852                           
  2853                           	psect	text14
  2854   004362                     __ptext14:
  2855                           	callstack 0
  2856   004362                     _lcd_4bit_send_command:
  2857                           	callstack 16
  2858   004362                     
  2859                           ;ECU_LAYER/LCD/ecu_lcd.c: 57:     if (((void*)0) == lcd ){
  2860   004362  0100               	movlb	0	; () banked
  2861   004364  519A               	movf	lcd_4bit_send_command@lcd& (0+255),w,b
  2862   004366  119B               	iorwf	(lcd_4bit_send_command@lcd+1)& (0+255),w,b
  2863   004368  A4D8               	btfss	status,2,c
  2864   00436A  EFB9  F021         	goto	u7391
  2865   00436E  EFBB  F021         	goto	u7390
  2866   004372                     u7391:
  2867   004372  EFBD  F021         	goto	l7619
  2868   004376                     u7390:
  2869   004376                     
  2870                           ; BSR set to: 0
  2871                           ;ECU_LAYER/LCD/ecu_lcd.c: 59:     }
  2872   004376  EFE3  F021         	goto	l62
  2873   00437A                     l7619:
  2874                           
  2875                           ; BSR set to: 0
  2876                           ;ECU_LAYER/LCD/ecu_lcd.c: 61:         gpio_pin_Write_logic(&(lcd->lcd_rs),LOW);
  2877   00437A  C09A  F08E         	movff	lcd_4bit_send_command@lcd,gpio_pin_Write_logic@_pin_config
  2878   00437E  C09B  F08F         	movff	lcd_4bit_send_command@lcd+1,gpio_pin_Write_logic@_pin_config+1
  2879   004382  0E00               	movlw	0
  2880   004384  6F90               	movwf	gpio_pin_Write_logic@logic& (0+255),b
  2881   004386  EC85  F01A         	call	_gpio_pin_Write_logic	;wreg free
  2882                           
  2883                           ;ECU_LAYER/LCD/ecu_lcd.c: 62:         send_4bit(lcd,command>>4);
  2884   00438A  C09A  F097         	movff	lcd_4bit_send_command@lcd,send_4bit@lcd
  2885   00438E  C09B  F098         	movff	lcd_4bit_send_command@lcd+1,send_4bit@lcd+1
  2886   004392  0100               	movlb	0	; () banked
  2887   004394  399C               	swapf	lcd_4bit_send_command@command& (0+255),w,b
  2888   004396  0B0F               	andlw	15
  2889   004398  6F99               	movwf	send_4bit@_data_command& (0+255),b
  2890   00439A  EC15  F021         	call	_send_4bit	;wreg free
  2891                           
  2892                           ;ECU_LAYER/LCD/ecu_lcd.c: 63:         send_4bit_enable_signal(lcd);
  2893   00439E  C09A  F097         	movff	lcd_4bit_send_command@lcd,send_4bit_enable_signal@lcd
  2894   0043A2  C09B  F098         	movff	lcd_4bit_send_command@lcd+1,send_4bit_enable_signal@lcd+1
  2895   0043A6  ECFC  F024         	call	_send_4bit_enable_signal	;wreg free
  2896                           
  2897                           ;ECU_LAYER/LCD/ecu_lcd.c: 64:         send_4bit(lcd,command);
  2898   0043AA  C09A  F097         	movff	lcd_4bit_send_command@lcd,send_4bit@lcd
  2899   0043AE  C09B  F098         	movff	lcd_4bit_send_command@lcd+1,send_4bit@lcd+1
  2900   0043B2  C09C  F099         	movff	lcd_4bit_send_command@command,send_4bit@_data_command
  2901   0043B6  EC15  F021         	call	_send_4bit	;wreg free
  2902                           
  2903                           ;ECU_LAYER/LCD/ecu_lcd.c: 65:         send_4bit_enable_signal(lcd);
  2904   0043BA  C09A  F097         	movff	lcd_4bit_send_command@lcd,send_4bit_enable_signal@lcd
  2905   0043BE  C09B  F098         	movff	lcd_4bit_send_command@lcd+1,send_4bit_enable_signal@lcd+1
  2906   0043C2  ECFC  F024         	call	_send_4bit_enable_signal	;wreg free
  2907   0043C6                     l62:
  2908   0043C6  0012               	return		;funcret
  2909   0043C8                     __end_of_lcd_4bit_send_command:
  2910                           	callstack 0
  2911                           
  2912 ;; *************** function _send_4bit_enable_signal *****************
  2913 ;; Defined at:
  2914 ;;		line 400 in file "ECU_LAYER/LCD/ecu_lcd.c"
  2915 ;; Parameters:    Size  Location     Type
  2916 ;;  lcd             2   23[BANK0 ] PTR const struct .
  2917 ;;		 -> lcd(6), 
  2918 ;; Auto vars:     Size  Location     Type
  2919 ;;		None
  2920 ;; Return value:  Size  Location     Type
  2921 ;;                  1    wreg      void 
  2922 ;; Registers used:
  2923 ;;		wreg, fsr2l, fsr2h, status,2, status,0, prodl, prodh, cstack
  2924 ;; Tracked objects:
  2925 ;;		On entry : 0/0
  2926 ;;		On exit  : 0/0
  2927 ;;		Unchanged: 0/0
  2928 ;; Data sizes:     COMRAM   BANK0   BANK1   BANK2   BANK3   BANK4   BANK5   BANK6   BANK7   BANK8   BANK9  BANK10  BANK1
      +1  BANK12  BANK13  BANK14  BANK15
  2929 ;;      Params:         0       2       0       0       0       0       0       0       0       0       0       0       
      +0       0       0       0       0
  2930 ;;      Locals:         0       0       0       0       0       0       0       0       0       0       0       0       
      +0       0       0       0       0
  2931 ;;      Temps:          0       0       0       0       0       0       0       0       0       0       0       0       
      +0       0       0       0       0
  2932 ;;      Totals:         0       2       0       0       0       0       0       0       0       0       0       0       
      +0       0       0       0       0
  2933 ;;Total ram usage:        2 bytes
  2934 ;; Hardware stack levels used: 1
  2935 ;; Hardware stack levels required when called: 10
  2936 ;; This function calls:
  2937 ;;		_gpio_pin_Write_logic
  2938 ;; This function is called by:
  2939 ;;		_lcd_4bit_send_command
  2940 ;;		_lcd_4bit_send_data
  2941 ;; This function uses a non-reentrant model
  2942 ;;
  2943                           
  2944                           	psect	text15
  2945   0049F8                     __ptext15:
  2946                           	callstack 0
  2947   0049F8                     _send_4bit_enable_signal:
  2948                           	callstack 16
  2949   0049F8                     
  2950                           ;ECU_LAYER/LCD/ecu_lcd.c: 402:     gpio_pin_Write_logic(&(lcd->lcd_en),HIGH);
  2951   0049F8  0E01               	movlw	1
  2952   0049FA  0100               	movlb	0	; () banked
  2953   0049FC  2597               	addwf	send_4bit_enable_signal@lcd& (0+255),w,b
  2954   0049FE  6F8E               	movwf	gpio_pin_Write_logic@_pin_config& (0+255),b
  2955   004A00  0E00               	movlw	0
  2956   004A02  2198               	addwfc	(send_4bit_enable_signal@lcd+1)& (0+255),w,b
  2957   004A04  6F8F               	movwf	(gpio_pin_Write_logic@_pin_config+1)& (0+255),b
  2958   004A06  0E01               	movlw	1
  2959   004A08  6F90               	movwf	gpio_pin_Write_logic@logic& (0+255),b
  2960   004A0A  EC85  F01A         	call	_gpio_pin_Write_logic	;wreg free
  2961   004A0E                     
  2962                           ;ECU_LAYER/LCD/ecu_lcd.c: 403:     _delay((unsigned long)((5)*(8000000UL/4000000.0)));
  2963   004A0E  0E03               	movlw	3
  2964   004A10                     u9507:
  2965   004A10  2EE8               	decfsz	wreg,f,c
  2966   004A12  D7FE               	bra	u9507
  2967   004A14  0000               	nop	
  2968   004A16                     
  2969                           ;ECU_LAYER/LCD/ecu_lcd.c: 404:     gpio_pin_Write_logic(&(lcd->lcd_en),LOW);
  2970   004A16  0E01               	movlw	1
  2971   004A18  0100               	movlb	0	; () banked
  2972   004A1A  2597               	addwf	send_4bit_enable_signal@lcd& (0+255),w,b
  2973   004A1C  6F8E               	movwf	gpio_pin_Write_logic@_pin_config& (0+255),b
  2974   004A1E  0E00               	movlw	0
  2975   004A20  2198               	addwfc	(send_4bit_enable_signal@lcd+1)& (0+255),w,b
  2976   004A22  6F8F               	movwf	(gpio_pin_Write_logic@_pin_config+1)& (0+255),b
  2977   004A24  0E00               	movlw	0
  2978   004A26  6F90               	movwf	gpio_pin_Write_logic@logic& (0+255),b
  2979   004A28  EC85  F01A         	call	_gpio_pin_Write_logic	;wreg free
  2980   004A2C  0012               	return		;funcret
  2981   004A2E                     __end_of_send_4bit_enable_signal:
  2982                           	callstack 0
  2983                           
  2984 ;; *************** function _send_4bit *****************
  2985 ;; Defined at:
  2986 ;;		line 390 in file "ECU_LAYER/LCD/ecu_lcd.c"
  2987 ;; Parameters:    Size  Location     Type
  2988 ;;  lcd             2   23[BANK0 ] PTR const struct .
  2989 ;;		 -> lcd(6), 
  2990 ;;  _data_comman    1   25[BANK0 ] unsigned char 
  2991 ;; Auto vars:     Size  Location     Type
  2992 ;;		None
  2993 ;; Return value:  Size  Location     Type
  2994 ;;                  1    wreg      void 
  2995 ;; Registers used:
  2996 ;;		wreg, fsr2l, fsr2h, status,2, status,0, prodl, prodh, cstack
  2997 ;; Tracked objects:
  2998 ;;		On entry : 0/0
  2999 ;;		On exit  : 0/0
  3000 ;;		Unchanged: 0/0
  3001 ;; Data sizes:     COMRAM   BANK0   BANK1   BANK2   BANK3   BANK4   BANK5   BANK6   BANK7   BANK8   BANK9  BANK10  BANK1
      +1  BANK12  BANK13  BANK14  BANK15
  3002 ;;      Params:         0       3       0       0       0       0       0       0       0       0       0       0       
      +0       0       0       0       0
  3003 ;;      Locals:         0       0       0       0       0       0       0       0       0       0       0       0       
      +0       0       0       0       0
  3004 ;;      Temps:          0       0       0       0       0       0       0       0       0       0       0       0       
      +0       0       0       0       0
  3005 ;;      Totals:         0       3       0       0       0       0       0       0       0       0       0       0       
      +0       0       0       0       0
  3006 ;;Total ram usage:        3 bytes
  3007 ;; Hardware stack levels used: 1
  3008 ;; Hardware stack levels required when called: 10
  3009 ;; This function calls:
  3010 ;;		_gpio_pin_Write_logic
  3011 ;; This function is called by:
  3012 ;;		_lcd_4bit_send_command
  3013 ;;		_lcd_4bit_send_data
  3014 ;; This function uses a non-reentrant model
  3015 ;;
  3016                           
  3017                           	psect	text16
  3018   00422A                     __ptext16:
  3019                           	callstack 0
  3020   00422A                     _send_4bit:
  3021                           	callstack 16
  3022   00422A                     
  3023                           ;ECU_LAYER/LCD/ecu_lcd.c: 391:     gpio_pin_Write_logic(&(lcd->lcd_data[0]),(_data_comma
      +                          nd>>0)&0x01);
  3024   00422A  0E02               	movlw	2
  3025   00422C  0100               	movlb	0	; () banked
  3026   00422E  2597               	addwf	send_4bit@lcd& (0+255),w,b
  3027   004230  6F8E               	movwf	gpio_pin_Write_logic@_pin_config& (0+255),b
  3028   004232  0E00               	movlw	0
  3029   004234  2198               	addwfc	(send_4bit@lcd+1)& (0+255),w,b
  3030   004236  6F8F               	movwf	(gpio_pin_Write_logic@_pin_config+1)& (0+255),b
  3031   004238  5199               	movf	send_4bit@_data_command& (0+255),w,b
  3032   00423A  0B01               	andlw	1
  3033   00423C  6F90               	movwf	gpio_pin_Write_logic@logic& (0+255),b
  3034   00423E  EC85  F01A         	call	_gpio_pin_Write_logic	;wreg free
  3035                           
  3036                           ;ECU_LAYER/LCD/ecu_lcd.c: 392:     gpio_pin_Write_logic(&(lcd->lcd_data[1]),(_data_comma
      +                          nd>>1)&0x01);
  3037   004242  0E03               	movlw	3
  3038   004244  0100               	movlb	0	; () banked
  3039   004246  2597               	addwf	send_4bit@lcd& (0+255),w,b
  3040   004248  6F8E               	movwf	gpio_pin_Write_logic@_pin_config& (0+255),b
  3041   00424A  0E00               	movlw	0
  3042   00424C  2198               	addwfc	(send_4bit@lcd+1)& (0+255),w,b
  3043   00424E  6F8F               	movwf	(gpio_pin_Write_logic@_pin_config+1)& (0+255),b
  3044   004250  90D8               	bcf	status,0,c
  3045   004252  3199               	rrcf	send_4bit@_data_command& (0+255),w,b
  3046   004254  0B01               	andlw	1
  3047   004256  6F90               	movwf	gpio_pin_Write_logic@logic& (0+255),b
  3048   004258  EC85  F01A         	call	_gpio_pin_Write_logic	;wreg free
  3049                           
  3050                           ;ECU_LAYER/LCD/ecu_lcd.c: 393:     gpio_pin_Write_logic(&(lcd->lcd_data[2]),(_data_comma
      +                          nd>>2)&0x01);
  3051   00425C  0E04               	movlw	4
  3052   00425E  0100               	movlb	0	; () banked
  3053   004260  2597               	addwf	send_4bit@lcd& (0+255),w,b
  3054   004262  6F8E               	movwf	gpio_pin_Write_logic@_pin_config& (0+255),b
  3055   004264  0E00               	movlw	0
  3056   004266  2198               	addwfc	(send_4bit@lcd+1)& (0+255),w,b
  3057   004268  6F8F               	movwf	(gpio_pin_Write_logic@_pin_config+1)& (0+255),b
  3058   00426A  4199               	rrncf	send_4bit@_data_command& (0+255),w,b
  3059   00426C  42E8               	rrncf	wreg,f,c
  3060   00426E  0B3F               	andlw	63
  3061   004270  0B01               	andlw	1
  3062   004272  6F90               	movwf	gpio_pin_Write_logic@logic& (0+255),b
  3063   004274  EC85  F01A         	call	_gpio_pin_Write_logic	;wreg free
  3064                           
  3065                           ;ECU_LAYER/LCD/ecu_lcd.c: 394:     gpio_pin_Write_logic(&(lcd->lcd_data[3]),(_data_comma
      +                          nd>>3)&0x01);
  3066   004278  0E05               	movlw	5
  3067   00427A  0100               	movlb	0	; () banked
  3068   00427C  2597               	addwf	send_4bit@lcd& (0+255),w,b
  3069   00427E  6F8E               	movwf	gpio_pin_Write_logic@_pin_config& (0+255),b
  3070   004280  0E00               	movlw	0
  3071   004282  2198               	addwfc	(send_4bit@lcd+1)& (0+255),w,b
  3072   004284  6F8F               	movwf	(gpio_pin_Write_logic@_pin_config+1)& (0+255),b
  3073   004286  3999               	swapf	send_4bit@_data_command& (0+255),w,b
  3074   004288  46E8               	rlncf	wreg,f,c
  3075   00428A  0B1F               	andlw	31
  3076   00428C  0B01               	andlw	1
  3077   00428E  6F90               	movwf	gpio_pin_Write_logic@logic& (0+255),b
  3078   004290  EC85  F01A         	call	_gpio_pin_Write_logic	;wreg free
  3079   004294  0012               	return		;funcret
  3080   004296                     __end_of_send_4bit:
  3081                           	callstack 0
  3082                           
  3083 ;; *************** function _gpio_pin_intialize *****************
  3084 ;; Defined at:
  3085 ;;		line 197 in file "MCAL_LAYER/GPIO/hal_gpio.c"
  3086 ;; Parameters:    Size  Location     Type
  3087 ;;  _pin_config     2   23[BANK0 ] PTR const struct .
  3088 ;;		 -> lcd$lcd_data(4), lcd(6), 
  3089 ;; Auto vars:     Size  Location     Type
  3090 ;;  ret             1   26[BANK0 ] unsigned char 
  3091 ;; Return value:  Size  Location     Type
  3092 ;;                  1    wreg      unsigned char 
  3093 ;; Registers used:
  3094 ;;		wreg, fsr2l, fsr2h, status,2, status,0, prodl, prodh, cstack
  3095 ;; Tracked objects:
  3096 ;;		On entry : 0/0
  3097 ;;		On exit  : 0/0
  3098 ;;		Unchanged: 0/0
  3099 ;; Data sizes:     COMRAM   BANK0   BANK1   BANK2   BANK3   BANK4   BANK5   BANK6   BANK7   BANK8   BANK9  BANK10  BANK1
      +1  BANK12  BANK13  BANK14  BANK15
  3100 ;;      Params:         0       2       0       0       0       0       0       0       0       0       0       0       
      +0       0       0       0       0
  3101 ;;      Locals:         0       1       0       0       0       0       0       0       0       0       0       0       
      +0       0       0       0       0
  3102 ;;      Temps:          0       1       0       0       0       0       0       0       0       0       0       0       
      +0       0       0       0       0
  3103 ;;      Totals:         0       4       0       0       0       0       0       0       0       0       0       0       
      +0       0       0       0       0
  3104 ;;Total ram usage:        4 bytes
  3105 ;; Hardware stack levels used: 1
  3106 ;; Hardware stack levels required when called: 10
  3107 ;; This function calls:
  3108 ;;		_gpio_pin_Write_logic
  3109 ;;		_gpio_pin_direction_intialize
  3110 ;; This function is called by:
  3111 ;;		_lcd_4bit_intialize
  3112 ;;		_lcd_8bit_intialize
  3113 ;; This function uses a non-reentrant model
  3114 ;;
  3115                           
  3116                           	psect	text17
  3117   0043C8                     __ptext17:
  3118                           	callstack 0
  3119   0043C8                     _gpio_pin_intialize:
  3120                           	callstack 18
  3121   0043C8                     
  3122                           ;MCAL_LAYER/GPIO/hal_gpio.c: 199:     Std_ReturnType ret = (Std_ReturnType) 0x01;
  3123   0043C8  0E01               	movlw	1
  3124   0043CA  0100               	movlb	0	; () banked
  3125   0043CC  6F9A               	movwf	gpio_pin_intialize@ret& (0+255),b
  3126   0043CE                     
  3127                           ; BSR set to: 0
  3128                           ;MCAL_LAYER/GPIO/hal_gpio.c: 200:     if (((void*)0) == _pin_config || _pin_config->pin 
      +                          > (8 -1)){
  3129   0043CE  5197               	movf	gpio_pin_intialize@_pin_config& (0+255),w,b
  3130   0043D0  1198               	iorwf	(gpio_pin_intialize@_pin_config+1)& (0+255),w,b
  3131   0043D2  B4D8               	btfsc	status,2,c
  3132   0043D4  EFEE  F021         	goto	u8441
  3133   0043D8  EFF0  F021         	goto	u8440
  3134   0043DC                     u8441:
  3135   0043DC  EF01  F022         	goto	l8235
  3136   0043E0                     u8440:
  3137   0043E0                     
  3138                           ; BSR set to: 0
  3139   0043E0  C097  FFD9         	movff	gpio_pin_intialize@_pin_config,fsr2l
  3140   0043E4  C098  FFDA         	movff	gpio_pin_intialize@_pin_config+1,fsr2h
  3141   0043E8  30DF               	rrcf	223,w,c
  3142   0043EA  32E8               	rrcf	wreg,f,c
  3143   0043EC  32E8               	rrcf	wreg,f,c
  3144   0043EE  0B07               	andlw	7
  3145   0043F0  6F99               	movwf	??_gpio_pin_intialize& (0+255),b
  3146   0043F2  0E07               	movlw	7
  3147   0043F4  6599               	cpfsgt	??_gpio_pin_intialize& (0+255),b
  3148   0043F6  EFFF  F021         	goto	u8451
  3149   0043FA  EF01  F022         	goto	u8450
  3150   0043FE                     u8451:
  3151   0043FE  EF05  F022         	goto	l8237
  3152   004402                     u8450:
  3153   004402                     l8235:
  3154                           
  3155                           ; BSR set to: 0
  3156                           ;MCAL_LAYER/GPIO/hal_gpio.c: 201:         ret=(Std_ReturnType) 0x00;
  3157   004402  0E00               	movlw	0
  3158   004404  6F9A               	movwf	gpio_pin_intialize@ret& (0+255),b
  3159                           
  3160                           ;MCAL_LAYER/GPIO/hal_gpio.c: 202:     }
  3161   004406  EF14  F022         	goto	l8239
  3162   00440A                     l8237:
  3163                           
  3164                           ; BSR set to: 0
  3165                           ;MCAL_LAYER/GPIO/hal_gpio.c: 204:         gpio_pin_direction_intialize(_pin_config);
  3166   00440A  C097  F08E         	movff	gpio_pin_intialize@_pin_config,gpio_pin_direction_intialize@_pin_config
  3167   00440E  C098  F08F         	movff	gpio_pin_intialize@_pin_config+1,gpio_pin_direction_intialize@_pin_config+1
  3168   004412  EC4F  F019         	call	_gpio_pin_direction_intialize	;wreg free
  3169                           
  3170                           ;MCAL_LAYER/GPIO/hal_gpio.c: 205:         gpio_pin_Write_logic(_pin_config,LOW);
  3171   004416  C097  F08E         	movff	gpio_pin_intialize@_pin_config,gpio_pin_Write_logic@_pin_config
  3172   00441A  C098  F08F         	movff	gpio_pin_intialize@_pin_config+1,gpio_pin_Write_logic@_pin_config+1
  3173   00441E  0E00               	movlw	0
  3174   004420  0100               	movlb	0	; () banked
  3175   004422  6F90               	movwf	gpio_pin_Write_logic@logic& (0+255),b
  3176   004424  EC85  F01A         	call	_gpio_pin_Write_logic	;wreg free
  3177   004428                     l8239:
  3178                           
  3179                           ;MCAL_LAYER/GPIO/hal_gpio.c: 208:     return ret;
  3180   004428  0100               	movlb	0	; () banked
  3181   00442A  519A               	movf	gpio_pin_intialize@ret& (0+255),w,b
  3182   00442C                     
  3183                           ; BSR set to: 0
  3184   00442C  0012               	return		;funcret
  3185   00442E                     __end_of_gpio_pin_intialize:
  3186                           	callstack 0
  3187                           
  3188 ;; *************** function _gpio_pin_Write_logic *****************
  3189 ;; Defined at:
  3190 ;;		line 32 in file "MCAL_LAYER/GPIO/hal_gpio.c"
  3191 ;; Parameters:    Size  Location     Type
  3192 ;;  _pin_config     2   14[BANK0 ] PTR const struct .
  3193 ;;		 -> lcd$lcd_data(4), lcd(6), led_turn_off@pin_obj(1), led_turn_on@pin_obj(1), 
  3194 ;;  logic           1   16[BANK0 ] enum E2980
  3195 ;; Auto vars:     Size  Location     Type
  3196 ;;  ret             1    0        unsigned char 
  3197 ;; Return value:  Size  Location     Type
  3198 ;;                  1    wreg      unsigned char 
  3199 ;; Registers used:
  3200 ;;		wreg, fsr2l, fsr2h, status,2, status,0, prodl, prodh
  3201 ;; Tracked objects:
  3202 ;;		On entry : 0/0
  3203 ;;		On exit  : 0/0
  3204 ;;		Unchanged: 0/0
  3205 ;; Data sizes:     COMRAM   BANK0   BANK1   BANK2   BANK3   BANK4   BANK5   BANK6   BANK7   BANK8   BANK9  BANK10  BANK1
      +1  BANK12  BANK13  BANK14  BANK15
  3206 ;;      Params:         0       3       0       0       0       0       0       0       0       0       0       0       
      +0       0       0       0       0
  3207 ;;      Locals:         0       0       0       0       0       0       0       0       0       0       0       0       
      +0       0       0       0       0
  3208 ;;      Temps:          0       6       0       0       0       0       0       0       0       0       0       0       
      +0       0       0       0       0
  3209 ;;      Totals:         0       9       0       0       0       0       0       0       0       0       0       0       
      +0       0       0       0       0
  3210 ;;Total ram usage:        9 bytes
  3211 ;; Hardware stack levels used: 1
  3212 ;; Hardware stack levels required when called: 9
  3213 ;; This function calls:
  3214 ;;		Nothing
  3215 ;; This function is called by:
  3216 ;;		_lcd_4bit_send_command
  3217 ;;		_lcd_4bit_send_data
  3218 ;;		_send_4bit
  3219 ;;		_send_4bit_enable_signal
  3220 ;;		_gpio_pin_intialize
  3221 ;;		_motor_move_right
  3222 ;;		_motor_move_left
  3223 ;;		_motor_stop
  3224 ;;		_lcd_8bit_send_command
  3225 ;;		_lcd_8bit_send_data
  3226 ;;		_send_8bit_enable_signal
  3227 ;;		_led_turn_on
  3228 ;;		_led_turn_off
  3229 ;; This function uses a non-reentrant model
  3230 ;;
  3231                           
  3232                           	psect	text18
  3233   00350A                     __ptext18:
  3234                           	callstack 0
  3235   00350A                     _gpio_pin_Write_logic:
  3236                           	callstack 16
  3237   00350A                     
  3238                           ;MCAL_LAYER/GPIO/hal_gpio.c: 35:     if (((void*)0) == _pin_config || _pin_config->pin >
      +                           (8 -1)){
  3239   00350A  0100               	movlb	0	; () banked
  3240   00350C  518E               	movf	gpio_pin_Write_logic@_pin_config& (0+255),w,b
  3241   00350E  118F               	iorwf	(gpio_pin_Write_logic@_pin_config+1)& (0+255),w,b
  3242   003510  B4D8               	btfsc	status,2,c
  3243   003512  EF8D  F01A         	goto	u7271
  3244   003516  EF8F  F01A         	goto	u7270
  3245   00351A                     u7271:
  3246   00351A  EFA0  F01A         	goto	l7539
  3247   00351E                     u7270:
  3248   00351E                     
  3249                           ; BSR set to: 0
  3250   00351E  C08E  FFD9         	movff	gpio_pin_Write_logic@_pin_config,fsr2l
  3251   003522  C08F  FFDA         	movff	gpio_pin_Write_logic@_pin_config+1,fsr2h
  3252   003526  30DF               	rrcf	223,w,c
  3253   003528  32E8               	rrcf	wreg,f,c
  3254   00352A  32E8               	rrcf	wreg,f,c
  3255   00352C  0B07               	andlw	7
  3256   00352E  6F91               	movwf	??_gpio_pin_Write_logic& (0+255),b
  3257   003530  0E07               	movlw	7
  3258   003532  6591               	cpfsgt	??_gpio_pin_Write_logic& (0+255),b
  3259   003534  EF9E  F01A         	goto	u7281
  3260   003538  EFA0  F01A         	goto	u7280
  3261   00353C                     u7281:
  3262   00353C  EF03  F01B         	goto	l7547
  3263   003540                     u7280:
  3264   003540                     l7539:
  3265                           
  3266                           ; BSR set to: 0
  3267                           ;MCAL_LAYER/GPIO/hal_gpio.c: 37:     }
  3268   003540  EF18  F01B         	goto	l554
  3269   003544                     l7541:
  3270                           
  3271                           ; BSR set to: 0
  3272                           ;MCAL_LAYER/GPIO/hal_gpio.c: 44:               (*lat_registers[_pin_config->port] &= ~((
      +                          uint_8)1<<_pin_config->pin));
  3273   003544  C08E  FFD9         	movff	gpio_pin_Write_logic@_pin_config,fsr2l
  3274   003548  C08F  FFDA         	movff	gpio_pin_Write_logic@_pin_config+1,fsr2h
  3275   00354C  30DF               	rrcf	223,w,c
  3276   00354E  32E8               	rrcf	wreg,f,c
  3277   003550  32E8               	rrcf	wreg,f,c
  3278   003552  0B07               	andlw	7
  3279   003554  6F91               	movwf	??_gpio_pin_Write_logic& (0+255),b
  3280   003556  0E01               	movlw	1
  3281   003558  6F92               	movwf	(??_gpio_pin_Write_logic+1)& (0+255),b
  3282   00355A  2B91               	incf	??_gpio_pin_Write_logic& (0+255),f,b
  3283   00355C  EFB2  F01A         	goto	u7294
  3284   003560                     u7295:
  3285   003560  90D8               	bcf	status,0,c
  3286   003562  3792               	rlcf	(??_gpio_pin_Write_logic+1)& (0+255),f,b
  3287   003564                     u7294:
  3288   003564  2F91               	decfsz	??_gpio_pin_Write_logic& (0+255),f,b
  3289   003566  EFB0  F01A         	goto	u7295
  3290   00356A  0100               	movlb	0	; () banked
  3291   00356C  5192               	movf	(??_gpio_pin_Write_logic+1)& (0+255),w,b
  3292   00356E  0AFF               	xorlw	255
  3293   003570  6F93               	movwf	(??_gpio_pin_Write_logic+2)& (0+255),b
  3294   003572  C08E  FFD9         	movff	gpio_pin_Write_logic@_pin_config,fsr2l
  3295   003576  C08F  FFDA         	movff	gpio_pin_Write_logic@_pin_config+1,fsr2h
  3296   00357A  50DF               	movf	223,w,c
  3297   00357C  0B07               	andlw	7
  3298   00357E  6F94               	movwf	(??_gpio_pin_Write_logic+3)& (0+255),b
  3299   003580  5194               	movf	(??_gpio_pin_Write_logic+3)& (0+255),w,b
  3300   003582  0D02               	mullw	2
  3301   003584  0E0A               	movlw	low _lat_registers
  3302   003586  24F3               	addwf	243,w,c
  3303   003588  6ED9               	movwf	fsr2l,c
  3304   00358A  0E01               	movlw	high _lat_registers
  3305   00358C  20F4               	addwfc	prodh,w,c
  3306   00358E  6EDA               	movwf	fsr2h,c
  3307   003590  CFDE F095          	movff	postinc2,??_gpio_pin_Write_logic+4
  3308   003594  CFDD F096          	movff	postdec2,??_gpio_pin_Write_logic+5
  3309   003598  C095  FFD9         	movff	??_gpio_pin_Write_logic+4,fsr2l
  3310   00359C  C096  FFDA         	movff	??_gpio_pin_Write_logic+5,fsr2h
  3311   0035A0  5193               	movf	(??_gpio_pin_Write_logic+2)& (0+255),w,b
  3312   0035A2  16DF               	andwf	indf2,f,c
  3313                           
  3314                           ;MCAL_LAYER/GPIO/hal_gpio.c: 46:               break;
  3315   0035A4  EF18  F01B         	goto	l554
  3316   0035A8                     l7543:
  3317                           
  3318                           ; BSR set to: 0
  3319                           ;MCAL_LAYER/GPIO/hal_gpio.c: 50:             (*lat_registers[_pin_config->port] |= ((uin
      +                          t_8)1<<_pin_config->pin));
  3320   0035A8  C08E  FFD9         	movff	gpio_pin_Write_logic@_pin_config,fsr2l
  3321   0035AC  C08F  FFDA         	movff	gpio_pin_Write_logic@_pin_config+1,fsr2h
  3322   0035B0  30DF               	rrcf	223,w,c
  3323   0035B2  32E8               	rrcf	wreg,f,c
  3324   0035B4  32E8               	rrcf	wreg,f,c
  3325   0035B6  0B07               	andlw	7
  3326   0035B8  6F91               	movwf	??_gpio_pin_Write_logic& (0+255),b
  3327   0035BA  0E01               	movlw	1
  3328   0035BC  6F92               	movwf	(??_gpio_pin_Write_logic+1)& (0+255),b
  3329   0035BE  2B91               	incf	??_gpio_pin_Write_logic& (0+255),f,b
  3330   0035C0  EFE4  F01A         	goto	u7304
  3331   0035C4                     u7305:
  3332   0035C4  90D8               	bcf	status,0,c
  3333   0035C6  3792               	rlcf	(??_gpio_pin_Write_logic+1)& (0+255),f,b
  3334   0035C8                     u7304:
  3335   0035C8  2F91               	decfsz	??_gpio_pin_Write_logic& (0+255),f,b
  3336   0035CA  EFE2  F01A         	goto	u7305
  3337   0035CE  C08E  FFD9         	movff	gpio_pin_Write_logic@_pin_config,fsr2l
  3338   0035D2  C08F  FFDA         	movff	gpio_pin_Write_logic@_pin_config+1,fsr2h
  3339   0035D6  50DF               	movf	223,w,c
  3340   0035D8  0B07               	andlw	7
  3341   0035DA  0100               	movlb	0	; () banked
  3342   0035DC  6F93               	movwf	(??_gpio_pin_Write_logic+2)& (0+255),b
  3343   0035DE  5193               	movf	(??_gpio_pin_Write_logic+2)& (0+255),w,b
  3344   0035E0  0D02               	mullw	2
  3345   0035E2  0E0A               	movlw	low _lat_registers
  3346   0035E4  24F3               	addwf	243,w,c
  3347   0035E6  6ED9               	movwf	fsr2l,c
  3348   0035E8  0E01               	movlw	high _lat_registers
  3349   0035EA  20F4               	addwfc	prodh,w,c
  3350   0035EC  6EDA               	movwf	fsr2h,c
  3351   0035EE  CFDE F094          	movff	postinc2,??_gpio_pin_Write_logic+3
  3352   0035F2  CFDD F095          	movff	postdec2,??_gpio_pin_Write_logic+4
  3353   0035F6  C094  FFD9         	movff	??_gpio_pin_Write_logic+3,fsr2l
  3354   0035FA  C095  FFDA         	movff	??_gpio_pin_Write_logic+4,fsr2h
  3355   0035FE  5192               	movf	(??_gpio_pin_Write_logic+1)& (0+255),w,b
  3356   003600  12DF               	iorwf	indf2,f,c
  3357                           
  3358                           ;MCAL_LAYER/GPIO/hal_gpio.c: 52:               break;
  3359   003602  EF18  F01B         	goto	l554
  3360   003606                     l7547:
  3361                           
  3362                           ; BSR set to: 0
  3363   003606  5190               	movf	gpio_pin_Write_logic@logic& (0+255),w,b
  3364   003608  6F91               	movwf	??_gpio_pin_Write_logic& (0+255),b
  3365   00360A  6B92               	clrf	(??_gpio_pin_Write_logic+1)& (0+255),b
  3366                           
  3367                           ; Switch on 2 bytes has been partitioned into a top level switch of size 1, and 1 sub-sw
      +                          itches
  3368                           ; Switch size 1, requested type "simple"
  3369                           ; Number of cases is 1, Range of values is 0 to 0
  3370                           ; switch strategies available:
  3371                           ; Name         Instructions Cycles
  3372                           ; simple_byte            4     3 (average)
  3373                           ;	Chosen strategy is simple_byte
  3374   00360C  5192               	movf	(??_gpio_pin_Write_logic+1)& (0+255),w,b
  3375   00360E  0A00               	xorlw	0	; case 0
  3376   003610  B4D8               	btfsc	status,2,c
  3377   003612  EF0D  F01B         	goto	l9467
  3378   003616  EFA0  F01A         	goto	l7539
  3379   00361A                     l9467:
  3380                           
  3381                           ; BSR set to: 0
  3382                           ; Switch size 1, requested type "simple"
  3383                           ; Number of cases is 2, Range of values is 0 to 1
  3384                           ; switch strategies available:
  3385                           ; Name         Instructions Cycles
  3386                           ; simple_byte            7     4 (average)
  3387                           ;	Chosen strategy is simple_byte
  3388   00361A  5191               	movf	??_gpio_pin_Write_logic& (0+255),w,b
  3389   00361C  0A00               	xorlw	0	; case 0
  3390   00361E  B4D8               	btfsc	status,2,c
  3391   003620  EFA2  F01A         	goto	l7541
  3392   003624  0A01               	xorlw	1	; case 1
  3393   003626  B4D8               	btfsc	status,2,c
  3394   003628  EFD4  F01A         	goto	l7543
  3395   00362C  EFA0  F01A         	goto	l7539
  3396   003630                     l554:
  3397                           
  3398                           ; BSR set to: 0
  3399   003630  0012               	return		;funcret
  3400   003632                     __end_of_gpio_pin_Write_logic:
  3401                           	callstack 0
  3402                           
  3403 ;; *************** function _TMR2_Init *****************
  3404 ;; Defined at:
  3405 ;;		line 19 in file "MCAL_LAYER/Timer2/TMR2.c"
  3406 ;; Parameters:    Size  Location     Type
  3407 ;;  obj             2   14[BANK0 ] PTR const struct .
  3408 ;;		 -> time(6), 
  3409 ;; Auto vars:     Size  Location     Type
  3410 ;;  ret             1    0        unsigned char 
  3411 ;; Return value:  Size  Location     Type
  3412 ;;                  1    wreg      unsigned char 
  3413 ;; Registers used:
  3414 ;;		wreg, fsr2l, fsr2h, status,2, status,0
  3415 ;; Tracked objects:
  3416 ;;		On entry : 0/0
  3417 ;;		On exit  : 0/0
  3418 ;;		Unchanged: 0/0
  3419 ;; Data sizes:     COMRAM   BANK0   BANK1   BANK2   BANK3   BANK4   BANK5   BANK6   BANK7   BANK8   BANK9  BANK10  BANK1
      +1  BANK12  BANK13  BANK14  BANK15
  3420 ;;      Params:         0       2       0       0       0       0       0       0       0       0       0       0       
      +0       0       0       0       0
  3421 ;;      Locals:         0       0       0       0       0       0       0       0       0       0       0       0       
      +0       0       0       0       0
  3422 ;;      Temps:          0       1       0       0       0       0       0       0       0       0       0       0       
      +0       0       0       0       0
  3423 ;;      Totals:         0       3       0       0       0       0       0       0       0       0       0       0       
      +0       0       0       0       0
  3424 ;;Total ram usage:        3 bytes
  3425 ;; Hardware stack levels used: 1
  3426 ;; Hardware stack levels required when called: 9
  3427 ;; This function calls:
  3428 ;;		Nothing
  3429 ;; This function is called by:
  3430 ;;		_intialization
  3431 ;; This function uses a non-reentrant model
  3432 ;;
  3433                           
  3434                           	psect	text19
  3435   004098                     __ptext19:
  3436                           	callstack 0
  3437   004098                     _TMR2_Init:
  3438                           	callstack 20
  3439   004098                     
  3440                           ;MCAL_LAYER/Timer2/TMR2.c: 22:     if (((void*)0) == obj){
  3441   004098  0100               	movlb	0	; () banked
  3442   00409A  518E               	movf	TMR2_Init@obj& (0+255),w,b
  3443   00409C  118F               	iorwf	(TMR2_Init@obj+1)& (0+255),w,b
  3444   00409E  A4D8               	btfss	status,2,c
  3445   0040A0  EF54  F020         	goto	u8871
  3446   0040A4  EF56  F020         	goto	u8870
  3447   0040A8                     u8871:
  3448   0040A8  EF58  F020         	goto	l929
  3449   0040AC                     u8870:
  3450   0040AC                     
  3451                           ; BSR set to: 0
  3452                           ;MCAL_LAYER/Timer2/TMR2.c: 24:     }
  3453   0040AC  EF93  F020         	goto	l931
  3454   0040B0                     l929:
  3455                           
  3456                           ; BSR set to: 0
  3457                           ;MCAL_LAYER/Timer2/TMR2.c: 27:         (T2CONbits.TMR2ON=0);
  3458   0040B0  94CA               	bcf	202,2,c	;volatile
  3459   0040B2                     
  3460                           ; BSR set to: 0
  3461                           ;MCAL_LAYER/Timer2/TMR2.c: 29:          T2CONbits.T2CKPS=obj->PSA;
  3462   0040B2  EE20 F003          	lfsr	2,3
  3463   0040B6  518E               	movf	TMR2_Init@obj& (0+255),w,b
  3464   0040B8  26D9               	addwf	fsr2l,f,c
  3465   0040BA  518F               	movf	(TMR2_Init@obj+1)& (0+255),w,b
  3466   0040BC  22DA               	addwfc	fsr2h,f,c
  3467   0040BE  50DF               	movf	indf2,w,c
  3468   0040C0  6F90               	movwf	??_TMR2_Init& (0+255),b
  3469   0040C2  50CA               	movf	202,w,c	;volatile
  3470   0040C4  1990               	xorwf	??_TMR2_Init& (0+255),w,b
  3471   0040C6  0BFC               	andlw	-4
  3472   0040C8  1990               	xorwf	??_TMR2_Init& (0+255),w,b
  3473   0040CA  6ECA               	movwf	202,c	;volatile
  3474                           
  3475                           ;MCAL_LAYER/Timer2/TMR2.c: 31:          T2CONbits.TOUTPS=obj->POS;
  3476   0040CC  EE20 F004          	lfsr	2,4
  3477   0040D0  518E               	movf	TMR2_Init@obj& (0+255),w,b
  3478   0040D2  26D9               	addwf	fsr2l,f,c
  3479   0040D4  518F               	movf	(TMR2_Init@obj+1)& (0+255),w,b
  3480   0040D6  22DA               	addwfc	fsr2h,f,c
  3481   0040D8  50DF               	movf	indf2,w,c
  3482   0040DA  6F90               	movwf	??_TMR2_Init& (0+255),b
  3483   0040DC  4790               	rlncf	??_TMR2_Init& (0+255),f,b
  3484   0040DE  4790               	rlncf	??_TMR2_Init& (0+255),f,b
  3485   0040E0  4790               	rlncf	??_TMR2_Init& (0+255),f,b
  3486   0040E2  50CA               	movf	202,w,c	;volatile
  3487   0040E4  1990               	xorwf	??_TMR2_Init& (0+255),w,b
  3488   0040E6  0B87               	andlw	-121
  3489   0040E8  1990               	xorwf	??_TMR2_Init& (0+255),w,b
  3490   0040EA  6ECA               	movwf	202,c	;volatile
  3491                           
  3492                           ;MCAL_LAYER/Timer2/TMR2.c: 33:          TMR2=obj->period;
  3493   0040EC  EE20 F005          	lfsr	2,5
  3494   0040F0  518E               	movf	TMR2_Init@obj& (0+255),w,b
  3495   0040F2  26D9               	addwf	fsr2l,f,c
  3496   0040F4  518F               	movf	(TMR2_Init@obj+1)& (0+255),w,b
  3497   0040F6  22DA               	addwfc	fsr2h,f,c
  3498   0040F8  50DF               	movf	indf2,w,c
  3499   0040FA  6ECC               	movwf	204,c	;volatile
  3500                           
  3501                           ;MCAL_LAYER/Timer2/TMR2.c: 34:          TMR2_preload=obj->period;
  3502   0040FC  EE20 F005          	lfsr	2,5
  3503   004100  518E               	movf	TMR2_Init@obj& (0+255),w,b
  3504   004102  26D9               	addwf	fsr2l,f,c
  3505   004104  518F               	movf	(TMR2_Init@obj+1)& (0+255),w,b
  3506   004106  22DA               	addwfc	fsr2h,f,c
  3507   004108  50DF               	movf	indf2,w,c
  3508   00410A  6FEE               	movwf	_TMR2_preload& (0+255),b
  3509   00410C                     
  3510                           ; BSR set to: 0
  3511                           ;MCAL_LAYER/Timer2/TMR2.c: 38:          (INTCONbits.GIE=1);
  3512   00410C  8EF2               	bsf	242,7,c	;volatile
  3513   00410E                     
  3514                           ; BSR set to: 0
  3515                           ;MCAL_LAYER/Timer2/TMR2.c: 39:          (INTCONbits.PEIE=1);
  3516   00410E  8CF2               	bsf	242,6,c	;volatile
  3517   004110                     
  3518                           ; BSR set to: 0
  3519                           ;MCAL_LAYER/Timer2/TMR2.c: 41:          (PIE1bits.TMR2IE=1);
  3520   004110  829D               	bsf	157,1,c	;volatile
  3521   004112                     
  3522                           ; BSR set to: 0
  3523                           ;MCAL_LAYER/Timer2/TMR2.c: 42:          (PIR1bits.TMR2IF=0);
  3524   004112  929E               	bcf	158,1,c	;volatile
  3525   004114                     
  3526                           ; BSR set to: 0
  3527                           ;MCAL_LAYER/Timer2/TMR2.c: 54:          TMR2_InterruptHandler=obj->Timer2_InterruptHandl
      +                          er;
  3528   004114  C08E  FFD9         	movff	TMR2_Init@obj,fsr2l
  3529   004118  C08F  FFDA         	movff	TMR2_Init@obj+1,fsr2h
  3530   00411C  CFDE F0E8          	movff	postinc2,_TMR2_InterruptHandler
  3531   004120  CFDD F0E9          	movff	postdec2,_TMR2_InterruptHandler+1
  3532   004124                     
  3533                           ; BSR set to: 0
  3534                           ;MCAL_LAYER/Timer2/TMR2.c: 58:          (T2CONbits.TMR2ON=1);
  3535   004124  84CA               	bsf	202,2,c	;volatile
  3536   004126                     l931:
  3537                           
  3538                           ; BSR set to: 0
  3539   004126  0012               	return		;funcret
  3540   004128                     __end_of_TMR2_Init:
  3541                           	callstack 0
  3542                           
  3543 ;; *************** function _CCPx_Init *****************
  3544 ;; Defined at:
  3545 ;;		line 25 in file "MCAL_LAYER/CCP/CCP.c"
  3546 ;; Parameters:    Size  Location     Type
  3547 ;;  ccp_obj         2   16[BANK1 ] PTR const struct .
  3548 ;;		 -> Heater(12), AC(12), 
  3549 ;; Auto vars:     Size  Location     Type
  3550 ;;  ret             1    0        unsigned char 
  3551 ;; Return value:  Size  Location     Type
  3552 ;;                  1    wreg      unsigned char 
  3553 ;; Registers used:
  3554 ;;		wreg, fsr2l, fsr2h, status,2, status,0, prodl, prodh, cstack
  3555 ;; Tracked objects:
  3556 ;;		On entry : 0/0
  3557 ;;		On exit  : 0/0
  3558 ;;		Unchanged: 0/0
  3559 ;; Data sizes:     COMRAM   BANK0   BANK1   BANK2   BANK3   BANK4   BANK5   BANK6   BANK7   BANK8   BANK9  BANK10  BANK1
      +1  BANK12  BANK13  BANK14  BANK15
  3560 ;;      Params:         0       0       2       0       0       0       0       0       0       0       0       0       
      +0       0       0       0       0
  3561 ;;      Locals:         0       0       0       0       0       0       0       0       0       0       0       0       
      +0       0       0       0       0
  3562 ;;      Temps:          0       0       2       0       0       0       0       0       0       0       0       0       
      +0       0       0       0       0
  3563 ;;      Totals:         0       0       4       0       0       0       0       0       0       0       0       0       
      +0       0       0       0       0
  3564 ;;Total ram usage:        4 bytes
  3565 ;; Hardware stack levels used: 1
  3566 ;; Hardware stack levels required when called: 11
  3567 ;; This function calls:
  3568 ;;		_CCPx_SET_CAPTURE_MODE
  3569 ;;		_CCPx_SET_COMPARE_MODE
  3570 ;;		_CCPx_SET_PWM_MODE
  3571 ;;		_CCPx_SET_TIMER_CONFIG
  3572 ;;		_gpio_pin_direction_intialize
  3573 ;; This function is called by:
  3574 ;;		_intialization
  3575 ;; This function uses a non-reentrant model
  3576 ;;
  3577                           
  3578                           	psect	text20
  3579   002EA4                     __ptext20:
  3580                           	callstack 0
  3581   002EA4                     _CCPx_Init:
  3582                           	callstack 18
  3583   002EA4                     
  3584                           ;MCAL_LAYER/CCP/CCP.c: 28:     if (((void*)0) ==ccp_obj){
  3585   002EA4  0101               	movlb	1	; () banked
  3586   002EA6  5182               	movf	CCPx_Init@ccp_obj& (0+255),w,b
  3587   002EA8  1183               	iorwf	(CCPx_Init@ccp_obj+1)& (0+255),w,b
  3588   002EAA  A4D8               	btfss	status,2,c
  3589   002EAC  EF5A  F017         	goto	u8791
  3590   002EB0  EF5C  F017         	goto	u8790
  3591   002EB4                     u8791:
  3592   002EB4  EF5E  F017         	goto	l8589
  3593   002EB8                     u8790:
  3594   002EB8                     
  3595                           ; BSR set to: 1
  3596                           ;MCAL_LAYER/CCP/CCP.c: 30:     }
  3597   002EB8  EF01  F018         	goto	l371
  3598   002EBC                     l8589:
  3599                           
  3600                           ; BSR set to: 1
  3601                           ;MCAL_LAYER/CCP/CCP.c: 34:         if (ccp_obj->CCPx == 1){(CCP1CONbits.CCP1M=((uint_8)0
      +                          x00));}
  3602   002EBC  C182  FFD9         	movff	CCPx_Init@ccp_obj,fsr2l
  3603   002EC0  C183  FFDA         	movff	CCPx_Init@ccp_obj+1,fsr2h
  3604   002EC4  04DE               	decf	postinc2,w,c
  3605   002EC6  A4D8               	btfss	status,2,c
  3606   002EC8  EF68  F017         	goto	u8801
  3607   002ECC  EF6A  F017         	goto	u8800
  3608   002ED0                     u8801:
  3609   002ED0  EF6E  F017         	goto	l8593
  3610   002ED4                     u8800:
  3611   002ED4                     
  3612                           ; BSR set to: 1
  3613   002ED4  0EF0               	movlw	-16
  3614   002ED6  16BD               	andwf	189,f,c	;volatile
  3615   002ED8  EF99  F017         	goto	l8605
  3616   002EDC                     l8593:
  3617                           
  3618                           ; BSR set to: 1
  3619   002EDC  C182  FFD9         	movff	CCPx_Init@ccp_obj,fsr2l
  3620   002EE0  C183  FFDA         	movff	CCPx_Init@ccp_obj+1,fsr2h
  3621   002EE4  0E02               	movlw	2
  3622   002EE6  18DE               	xorwf	postinc2,w,c
  3623   002EE8  A4D8               	btfss	status,2,c
  3624   002EEA  EF79  F017         	goto	u8811
  3625   002EEE  EF7B  F017         	goto	u8810
  3626   002EF2                     u8811:
  3627   002EF2  EF7F  F017         	goto	l359
  3628   002EF6                     u8810:
  3629   002EF6                     
  3630                           ; BSR set to: 1
  3631   002EF6  0EF0               	movlw	-16
  3632   002EF8  16BA               	andwf	186,f,c	;volatile
  3633   002EFA  EF99  F017         	goto	l8605
  3634   002EFE                     l359:
  3635                           
  3636                           ; BSR set to: 1
  3637                           ;MCAL_LAYER/CCP/CCP.c: 38:         switch(ccp_obj->mode){
  3638   002EFE  EF99  F017         	goto	l8605
  3639   002F02                     l8597:
  3640                           
  3641                           ; BSR set to: 1
  3642   002F02  C182  F08E         	movff	CCPx_Init@ccp_obj,CCPx_SET_CAPTURE_MODE@ccp_obj
  3643   002F06  C183  F08F         	movff	CCPx_Init@ccp_obj+1,CCPx_SET_CAPTURE_MODE@ccp_obj+1
  3644   002F0A  ECEF  F019         	call	_CCPx_SET_CAPTURE_MODE	;wreg free
  3645                           
  3646                           ;MCAL_LAYER/CCP/CCP.c: 40:            break;
  3647   002F0E  EFB8  F017         	goto	l8607
  3648   002F12                     l8599:
  3649                           
  3650                           ; BSR set to: 1
  3651   002F12  C182  F08E         	movff	CCPx_Init@ccp_obj,CCPx_SET_COMPARE_MODE@ccp_obj
  3652   002F16  C183  F08F         	movff	CCPx_Init@ccp_obj+1,CCPx_SET_COMPARE_MODE@ccp_obj+1
  3653   002F1A  EC02  F018         	call	_CCPx_SET_COMPARE_MODE	;wreg free
  3654                           
  3655                           ;MCAL_LAYER/CCP/CCP.c: 42:            break;
  3656   002F1E  EFB8  F017         	goto	l8607
  3657   002F22                     l8601:
  3658                           
  3659                           ; BSR set to: 1
  3660   002F22  C182  F176         	movff	CCPx_Init@ccp_obj,CCPx_SET_PWM_MODE@ccp_obj
  3661   002F26  C183  F177         	movff	CCPx_Init@ccp_obj+1,CCPx_SET_PWM_MODE@ccp_obj+1
  3662   002F2A  ECAD  F015         	call	_CCPx_SET_PWM_MODE	;wreg free
  3663                           
  3664                           ;MCAL_LAYER/CCP/CCP.c: 44:            break;
  3665   002F2E  EFB8  F017         	goto	l8607
  3666   002F32                     l8605:
  3667                           
  3668                           ; BSR set to: 1
  3669   002F32  EE20 F001          	lfsr	2,1
  3670   002F36  5182               	movf	CCPx_Init@ccp_obj& (0+255),w,b
  3671   002F38  26D9               	addwf	fsr2l,f,c
  3672   002F3A  5183               	movf	(CCPx_Init@ccp_obj+1)& (0+255),w,b
  3673   002F3C  22DA               	addwfc	fsr2h,f,c
  3674   002F3E  50DF               	movf	indf2,w,c
  3675   002F40  6F84               	movwf	??_CCPx_Init& (0+255),b
  3676   002F42  6B85               	clrf	(??_CCPx_Init+1)& (0+255),b
  3677                           
  3678                           ; Switch on 2 bytes has been partitioned into a top level switch of size 1, and 1 sub-sw
      +                          itches
  3679                           ; Switch size 1, requested type "simple"
  3680                           ; Number of cases is 1, Range of values is 0 to 0
  3681                           ; switch strategies available:
  3682                           ; Name         Instructions Cycles
  3683                           ; simple_byte            4     3 (average)
  3684                           ;	Chosen strategy is simple_byte
  3685   002F44  5185               	movf	(??_CCPx_Init+1)& (0+255),w,b
  3686   002F46  0A00               	xorlw	0	; case 0
  3687   002F48  B4D8               	btfsc	status,2,c
  3688   002F4A  EFA9  F017         	goto	l9469
  3689   002F4E  EFB8  F017         	goto	l8607
  3690   002F52                     l9469:
  3691                           
  3692                           ; BSR set to: 1
  3693                           ; Switch size 1, requested type "simple"
  3694                           ; Number of cases is 3, Range of values is 0 to 2
  3695                           ; switch strategies available:
  3696                           ; Name         Instructions Cycles
  3697                           ; simple_byte           10     6 (average)
  3698                           ;	Chosen strategy is simple_byte
  3699   002F52  5184               	movf	??_CCPx_Init& (0+255),w,b
  3700   002F54  0A00               	xorlw	0	; case 0
  3701   002F56  B4D8               	btfsc	status,2,c
  3702   002F58  EF81  F017         	goto	l8597
  3703   002F5C  0A01               	xorlw	1	; case 1
  3704   002F5E  B4D8               	btfsc	status,2,c
  3705   002F60  EF89  F017         	goto	l8599
  3706   002F64  0A03               	xorlw	3	; case 2
  3707   002F66  B4D8               	btfsc	status,2,c
  3708   002F68  EF91  F017         	goto	l8601
  3709   002F6C  EFB8  F017         	goto	l8607
  3710   002F70                     l8607:
  3711                           
  3712                           ;MCAL_LAYER/CCP/CCP.c: 48:         CCPx_SET_TIMER_CONFIG (ccp_obj);
  3713   002F70  C182  F08E         	movff	CCPx_Init@ccp_obj,CCPx_SET_TIMER_CONFIG@ccp_obj
  3714   002F74  C183  F08F         	movff	CCPx_Init@ccp_obj+1,CCPx_SET_TIMER_CONFIG@ccp_obj+1
  3715   002F78  EC40  F023         	call	_CCPx_SET_TIMER_CONFIG	;wreg free
  3716   002F7C                     
  3717                           ;MCAL_LAYER/CCP/CCP.c: 52:          (INTCONbits.GIE=1);
  3718   002F7C  8EF2               	bsf	242,7,c	;volatile
  3719   002F7E                     
  3720                           ;MCAL_LAYER/CCP/CCP.c: 53:          (INTCONbits.PEIE=1);
  3721   002F7E  8CF2               	bsf	242,6,c	;volatile
  3722   002F80                     
  3723                           ;MCAL_LAYER/CCP/CCP.c: 55:          if (ccp_obj->CCPx == 1){
  3724   002F80  C182  FFD9         	movff	CCPx_Init@ccp_obj,fsr2l
  3725   002F84  C183  FFDA         	movff	CCPx_Init@ccp_obj+1,fsr2h
  3726   002F88  04DE               	decf	postinc2,w,c
  3727   002F8A  A4D8               	btfss	status,2,c
  3728   002F8C  EFCA  F017         	goto	u8821
  3729   002F90  EFCC  F017         	goto	u8820
  3730   002F94                     u8821:
  3731   002F94  EFDB  F017         	goto	l8619
  3732   002F98                     u8820:
  3733   002F98                     
  3734                           ;MCAL_LAYER/CCP/CCP.c: 56:          (PIE1bits.CCP1IE=1);
  3735   002F98  849D               	bsf	157,2,c	;volatile
  3736                           
  3737                           ;MCAL_LAYER/CCP/CCP.c: 57:          (PIR1bits.CCP1IF=0);
  3738   002F9A  949E               	bcf	158,2,c	;volatile
  3739   002F9C                     
  3740                           ;MCAL_LAYER/CCP/CCP.c: 58:          CCP1_InterruptHandler=ccp_obj->CCPx_InterruptHandler
      +                          ;
  3741   002F9C  0101               	movlb	1	; () banked
  3742   002F9E  EE20 F009          	lfsr	2,9
  3743   002FA2  5182               	movf	CCPx_Init@ccp_obj& (0+255),w,b
  3744   002FA4  26D9               	addwf	fsr2l,f,c
  3745   002FA6  5183               	movf	(CCPx_Init@ccp_obj+1)& (0+255),w,b
  3746   002FA8  22DA               	addwfc	fsr2h,f,c
  3747   002FAA  CFDE F0EC          	movff	postinc2,_CCP1_InterruptHandler
  3748   002FAE  CFDD F0ED          	movff	postdec2,_CCP1_InterruptHandler+1
  3749                           
  3750                           ;MCAL_LAYER/CCP/CCP.c: 59:          }
  3751   002FB2  EFF5  F017         	goto	l8625
  3752   002FB6                     l8619:
  3753   002FB6  C182  FFD9         	movff	CCPx_Init@ccp_obj,fsr2l
  3754   002FBA  C183  FFDA         	movff	CCPx_Init@ccp_obj+1,fsr2h
  3755   002FBE  0E02               	movlw	2
  3756   002FC0  18DE               	xorwf	postinc2,w,c
  3757   002FC2  A4D8               	btfss	status,2,c
  3758   002FC4  EFE6  F017         	goto	u8831
  3759   002FC8  EFE8  F017         	goto	u8830
  3760   002FCC                     u8831:
  3761   002FCC  EFF5  F017         	goto	l8625
  3762   002FD0                     u8830:
  3763   002FD0                     
  3764                           ;MCAL_LAYER/CCP/CCP.c: 61:          (PIE2bits.CCP2IE=1);
  3765   002FD0  80A0               	bsf	160,0,c	;volatile
  3766                           
  3767                           ;MCAL_LAYER/CCP/CCP.c: 62:          (PIR2bits.CCP2IF=0);
  3768   002FD2  90A1               	bcf	161,0,c	;volatile
  3769   002FD4                     
  3770                           ;MCAL_LAYER/CCP/CCP.c: 63:          CCP2_InterruptHandler=ccp_obj->CCPx_InterruptHandler
      +                          ;
  3771   002FD4  0101               	movlb	1	; () banked
  3772   002FD6  EE20 F009          	lfsr	2,9
  3773   002FDA  5182               	movf	CCPx_Init@ccp_obj& (0+255),w,b
  3774   002FDC  26D9               	addwf	fsr2l,f,c
  3775   002FDE  5183               	movf	(CCPx_Init@ccp_obj+1)& (0+255),w,b
  3776   002FE0  22DA               	addwfc	fsr2h,f,c
  3777   002FE2  CFDE F0EA          	movff	postinc2,_CCP2_InterruptHandler
  3778   002FE6  CFDD F0EB          	movff	postdec2,_CCP2_InterruptHandler+1
  3779   002FEA                     l8625:
  3780                           
  3781                           ;MCAL_LAYER/CCP/CCP.c: 85:          gpio_pin_direction_intialize(&(ccp_obj->pin));
  3782   002FEA  0E03               	movlw	3
  3783   002FEC  0101               	movlb	1	; () banked
  3784   002FEE  2582               	addwf	CCPx_Init@ccp_obj& (0+255),w,b
  3785   002FF0  0100               	movlb	0	; () banked
  3786   002FF2  6F8E               	movwf	gpio_pin_direction_intialize@_pin_config& (0+255),b
  3787   002FF4  0E00               	movlw	0
  3788   002FF6  0101               	movlb	1	; () banked
  3789   002FF8  2183               	addwfc	(CCPx_Init@ccp_obj+1)& (0+255),w,b
  3790   002FFA  0100               	movlb	0	; () banked
  3791   002FFC  6F8F               	movwf	(gpio_pin_direction_intialize@_pin_config+1)& (0+255),b
  3792   002FFE  EC4F  F019         	call	_gpio_pin_direction_intialize	;wreg free
  3793   003002                     l371:
  3794   003002  0012               	return		;funcret
  3795   003004                     __end_of_CCPx_Init:
  3796                           	callstack 0
  3797                           
  3798 ;; *************** function _gpio_pin_direction_intialize *****************
  3799 ;; Defined at:
  3800 ;;		line 63 in file "MCAL_LAYER/GPIO/hal_gpio.c"
  3801 ;; Parameters:    Size  Location     Type
  3802 ;;  _pin_config     2   14[BANK0 ] PTR const struct .
  3803 ;;		 -> Heater(12), AC(12), lcd$lcd_data(4), lcd(6), 
  3804 ;;		 -> led_initialize@pin_obj(1), 
  3805 ;; Auto vars:     Size  Location     Type
  3806 ;;  ret             1    0        unsigned char 
  3807 ;; Return value:  Size  Location     Type
  3808 ;;                  1    wreg      unsigned char 
  3809 ;; Registers used:
  3810 ;;		wreg, fsr2l, fsr2h, status,2, status,0, prodl, prodh
  3811 ;; Tracked objects:
  3812 ;;		On entry : 0/0
  3813 ;;		On exit  : 0/0
  3814 ;;		Unchanged: 0/0
  3815 ;; Data sizes:     COMRAM   BANK0   BANK1   BANK2   BANK3   BANK4   BANK5   BANK6   BANK7   BANK8   BANK9  BANK10  BANK1
      +1  BANK12  BANK13  BANK14  BANK15
  3816 ;;      Params:         0       2       0       0       0       0       0       0       0       0       0       0       
      +0       0       0       0       0
  3817 ;;      Locals:         0       0       0       0       0       0       0       0       0       0       0       0       
      +0       0       0       0       0
  3818 ;;      Temps:          0       6       0       0       0       0       0       0       0       0       0       0       
      +0       0       0       0       0
  3819 ;;      Totals:         0       8       0       0       0       0       0       0       0       0       0       0       
      +0       0       0       0       0
  3820 ;;Total ram usage:        8 bytes
  3821 ;; Hardware stack levels used: 1
  3822 ;; Hardware stack levels required when called: 9
  3823 ;; This function calls:
  3824 ;;		Nothing
  3825 ;; This function is called by:
  3826 ;;		_CCPx_Init
  3827 ;;		_gpio_pin_intialize
  3828 ;;		_motor_intialize
  3829 ;;		_led_initialize
  3830 ;;		_Interrupt_INTx_Pin_Init
  3831 ;; This function uses a non-reentrant model
  3832 ;;
  3833                           
  3834                           	psect	text21
  3835   00329E                     __ptext21:
  3836                           	callstack 0
  3837   00329E                     _gpio_pin_direction_intialize:
  3838                           	callstack 18
  3839   00329E                     
  3840                           ;MCAL_LAYER/GPIO/hal_gpio.c: 66:     if (((void*)0) == _pin_config || _pin_config->pin >
      +                           (8 -1)){
  3841   00329E  0100               	movlb	0	; () banked
  3842   0032A0  518E               	movf	gpio_pin_direction_intialize@_pin_config& (0+255),w,b
  3843   0032A2  118F               	iorwf	(gpio_pin_direction_intialize@_pin_config+1)& (0+255),w,b
  3844   0032A4  B4D8               	btfsc	status,2,c
  3845   0032A6  EF57  F019         	goto	u7331
  3846   0032AA  EF59  F019         	goto	u7330
  3847   0032AE                     u7331:
  3848   0032AE  EF6A  F019         	goto	l7597
  3849   0032B2                     u7330:
  3850   0032B2                     
  3851                           ; BSR set to: 0
  3852   0032B2  C08E  FFD9         	movff	gpio_pin_direction_intialize@_pin_config,fsr2l
  3853   0032B6  C08F  FFDA         	movff	gpio_pin_direction_intialize@_pin_config+1,fsr2h
  3854   0032BA  30DF               	rrcf	223,w,c
  3855   0032BC  32E8               	rrcf	wreg,f,c
  3856   0032BE  32E8               	rrcf	wreg,f,c
  3857   0032C0  0B07               	andlw	7
  3858   0032C2  6F90               	movwf	??_gpio_pin_direction_intialize& (0+255),b
  3859   0032C4  0E07               	movlw	7
  3860   0032C6  6590               	cpfsgt	??_gpio_pin_direction_intialize& (0+255),b
  3861   0032C8  EF68  F019         	goto	u7341
  3862   0032CC  EF6A  F019         	goto	u7340
  3863   0032D0                     u7341:
  3864   0032D0  EFCD  F019         	goto	l7605
  3865   0032D4                     u7340:
  3866   0032D4                     l7597:
  3867                           
  3868                           ; BSR set to: 0
  3869                           ;MCAL_LAYER/GPIO/hal_gpio.c: 68:     }
  3870   0032D4  EFEE  F019         	goto	l566
  3871   0032D8                     l7599:
  3872                           
  3873                           ; BSR set to: 0
  3874                           ;MCAL_LAYER/GPIO/hal_gpio.c: 74:               (*tris_registers[_pin_config->port] &= ~(
      +                          (uint_8)1<<_pin_config->pin));
  3875   0032D8  C08E  FFD9         	movff	gpio_pin_direction_intialize@_pin_config,fsr2l
  3876   0032DC  C08F  FFDA         	movff	gpio_pin_direction_intialize@_pin_config+1,fsr2h
  3877   0032E0  30DF               	rrcf	223,w,c
  3878   0032E2  32E8               	rrcf	wreg,f,c
  3879   0032E4  32E8               	rrcf	wreg,f,c
  3880   0032E6  0B07               	andlw	7
  3881   0032E8  6F90               	movwf	??_gpio_pin_direction_intialize& (0+255),b
  3882   0032EA  0E01               	movlw	1
  3883   0032EC  6F91               	movwf	(??_gpio_pin_direction_intialize+1)& (0+255),b
  3884   0032EE  2B90               	incf	??_gpio_pin_direction_intialize& (0+255),f,b
  3885   0032F0  EF7C  F019         	goto	u7354
  3886   0032F4                     u7355:
  3887   0032F4  90D8               	bcf	status,0,c
  3888   0032F6  3791               	rlcf	(??_gpio_pin_direction_intialize+1)& (0+255),f,b
  3889   0032F8                     u7354:
  3890   0032F8  2F90               	decfsz	??_gpio_pin_direction_intialize& (0+255),f,b
  3891   0032FA  EF7A  F019         	goto	u7355
  3892   0032FE  0100               	movlb	0	; () banked
  3893   003300  5191               	movf	(??_gpio_pin_direction_intialize+1)& (0+255),w,b
  3894   003302  0AFF               	xorlw	255
  3895   003304  6F92               	movwf	(??_gpio_pin_direction_intialize+2)& (0+255),b
  3896   003306  C08E  FFD9         	movff	gpio_pin_direction_intialize@_pin_config,fsr2l
  3897   00330A  C08F  FFDA         	movff	gpio_pin_direction_intialize@_pin_config+1,fsr2h
  3898   00330E  50DF               	movf	223,w,c
  3899   003310  0B07               	andlw	7
  3900   003312  6F93               	movwf	(??_gpio_pin_direction_intialize+3)& (0+255),b
  3901   003314  5193               	movf	(??_gpio_pin_direction_intialize+3)& (0+255),w,b
  3902   003316  0D02               	mullw	2
  3903   003318  0E14               	movlw	low _tris_registers
  3904   00331A  24F3               	addwf	243,w,c
  3905   00331C  6ED9               	movwf	fsr2l,c
  3906   00331E  0E01               	movlw	high _tris_registers
  3907   003320  20F4               	addwfc	prodh,w,c
  3908   003322  6EDA               	movwf	fsr2h,c
  3909   003324  CFDE F094          	movff	postinc2,??_gpio_pin_direction_intialize+4
  3910   003328  CFDD F095          	movff	postdec2,??_gpio_pin_direction_intialize+5
  3911   00332C  C094  FFD9         	movff	??_gpio_pin_direction_intialize+4,fsr2l
  3912   003330  C095  FFDA         	movff	??_gpio_pin_direction_intialize+5,fsr2h
  3913   003334  5192               	movf	(??_gpio_pin_direction_intialize+2)& (0+255),w,b
  3914   003336  16DF               	andwf	indf2,f,c
  3915                           
  3916                           ;MCAL_LAYER/GPIO/hal_gpio.c: 76:               break;
  3917   003338  EFEE  F019         	goto	l566
  3918   00333C                     l7601:
  3919                           
  3920                           ; BSR set to: 0
  3921                           ;MCAL_LAYER/GPIO/hal_gpio.c: 80:             (*tris_registers[_pin_config->port] |= ((ui
      +                          nt_8)1<<_pin_config->pin));
  3922   00333C  C08E  FFD9         	movff	gpio_pin_direction_intialize@_pin_config,fsr2l
  3923   003340  C08F  FFDA         	movff	gpio_pin_direction_intialize@_pin_config+1,fsr2h
  3924   003344  30DF               	rrcf	223,w,c
  3925   003346  32E8               	rrcf	wreg,f,c
  3926   003348  32E8               	rrcf	wreg,f,c
  3927   00334A  0B07               	andlw	7
  3928   00334C  6F90               	movwf	??_gpio_pin_direction_intialize& (0+255),b
  3929   00334E  0E01               	movlw	1
  3930   003350  6F91               	movwf	(??_gpio_pin_direction_intialize+1)& (0+255),b
  3931   003352  2B90               	incf	??_gpio_pin_direction_intialize& (0+255),f,b
  3932   003354  EFAE  F019         	goto	u7364
  3933   003358                     u7365:
  3934   003358  90D8               	bcf	status,0,c
  3935   00335A  3791               	rlcf	(??_gpio_pin_direction_intialize+1)& (0+255),f,b
  3936   00335C                     u7364:
  3937   00335C  2F90               	decfsz	??_gpio_pin_direction_intialize& (0+255),f,b
  3938   00335E  EFAC  F019         	goto	u7365
  3939   003362  C08E  FFD9         	movff	gpio_pin_direction_intialize@_pin_config,fsr2l
  3940   003366  C08F  FFDA         	movff	gpio_pin_direction_intialize@_pin_config+1,fsr2h
  3941   00336A  50DF               	movf	223,w,c
  3942   00336C  0B07               	andlw	7
  3943   00336E  0100               	movlb	0	; () banked
  3944   003370  6F92               	movwf	(??_gpio_pin_direction_intialize+2)& (0+255),b
  3945   003372  5192               	movf	(??_gpio_pin_direction_intialize+2)& (0+255),w,b
  3946   003374  0D02               	mullw	2
  3947   003376  0E14               	movlw	low _tris_registers
  3948   003378  24F3               	addwf	243,w,c
  3949   00337A  6ED9               	movwf	fsr2l,c
  3950   00337C  0E01               	movlw	high _tris_registers
  3951   00337E  20F4               	addwfc	prodh,w,c
  3952   003380  6EDA               	movwf	fsr2h,c
  3953   003382  CFDE F093          	movff	postinc2,??_gpio_pin_direction_intialize+3
  3954   003386  CFDD F094          	movff	postdec2,??_gpio_pin_direction_intialize+4
  3955   00338A  C093  FFD9         	movff	??_gpio_pin_direction_intialize+3,fsr2l
  3956   00338E  C094  FFDA         	movff	??_gpio_pin_direction_intialize+4,fsr2h
  3957   003392  5191               	movf	(??_gpio_pin_direction_intialize+1)& (0+255),w,b
  3958   003394  12DF               	iorwf	indf2,f,c
  3959                           
  3960                           ;MCAL_LAYER/GPIO/hal_gpio.c: 81:               break;
  3961   003396  EFEE  F019         	goto	l566
  3962   00339A                     l7605:
  3963                           
  3964                           ; BSR set to: 0
  3965   00339A  C08E  FFD9         	movff	gpio_pin_direction_intialize@_pin_config,fsr2l
  3966   00339E  C08F  FFDA         	movff	gpio_pin_direction_intialize@_pin_config+1,fsr2h
  3967   0033A2  BCDF               	btfsc	indf2,6,c
  3968   0033A4  EFD6  F019         	goto	u7371
  3969   0033A8  EFD9  F019         	goto	u7370
  3970   0033AC                     u7371:
  3971   0033AC  0E01               	movlw	1
  3972   0033AE  EFDA  F019         	goto	u7380
  3973   0033B2                     u7370:
  3974   0033B2  0E00               	movlw	0
  3975   0033B4                     u7380:
  3976   0033B4  6F90               	movwf	??_gpio_pin_direction_intialize& (0+255),b
  3977   0033B6  6B91               	clrf	(??_gpio_pin_direction_intialize+1)& (0+255),b
  3978                           
  3979                           ; Switch on 2 bytes has been partitioned into a top level switch of size 1, and 1 sub-sw
      +                          itches
  3980                           ; Switch size 1, requested type "simple"
  3981                           ; Number of cases is 1, Range of values is 0 to 0
  3982                           ; switch strategies available:
  3983                           ; Name         Instructions Cycles
  3984                           ; simple_byte            4     3 (average)
  3985                           ;	Chosen strategy is simple_byte
  3986   0033B8  5191               	movf	(??_gpio_pin_direction_intialize+1)& (0+255),w,b
  3987   0033BA  0A00               	xorlw	0	; case 0
  3988   0033BC  B4D8               	btfsc	status,2,c
  3989   0033BE  EFE3  F019         	goto	l9471
  3990   0033C2  EF6A  F019         	goto	l7597
  3991   0033C6                     l9471:
  3992                           
  3993                           ; BSR set to: 0
  3994                           ; Switch size 1, requested type "simple"
  3995                           ; Number of cases is 2, Range of values is 0 to 1
  3996                           ; switch strategies available:
  3997                           ; Name         Instructions Cycles
  3998                           ; simple_byte            7     4 (average)
  3999                           ;	Chosen strategy is simple_byte
  4000   0033C6  5190               	movf	??_gpio_pin_direction_intialize& (0+255),w,b
  4001   0033C8  0A00               	xorlw	0	; case 0
  4002   0033CA  B4D8               	btfsc	status,2,c
  4003   0033CC  EF6C  F019         	goto	l7599
  4004   0033D0  0A01               	xorlw	1	; case 1
  4005   0033D2  B4D8               	btfsc	status,2,c
  4006   0033D4  EF9E  F019         	goto	l7601
  4007   0033D8  EF6A  F019         	goto	l7597
  4008   0033DC                     l566:
  4009                           
  4010                           ; BSR set to: 0
  4011   0033DC  0012               	return		;funcret
  4012   0033DE                     __end_of_gpio_pin_direction_intialize:
  4013                           	callstack 0
  4014                           
  4015 ;; *************** function _CCPx_SET_TIMER_CONFIG *****************
  4016 ;; Defined at:
  4017 ;;		line 405 in file "MCAL_LAYER/CCP/CCP.c"
  4018 ;; Parameters:    Size  Location     Type
  4019 ;;  ccp_obj         2   14[BANK0 ] PTR const struct .
  4020 ;;		 -> Heater(12), AC(12), 
  4021 ;; Auto vars:     Size  Location     Type
  4022 ;;		None
  4023 ;; Return value:  Size  Location     Type
  4024 ;;                  1    wreg      void 
  4025 ;; Registers used:
  4026 ;;		wreg, fsr2l, fsr2h, status,2, status,0
  4027 ;; Tracked objects:
  4028 ;;		On entry : 0/0
  4029 ;;		On exit  : 0/0
  4030 ;;		Unchanged: 0/0
  4031 ;; Data sizes:     COMRAM   BANK0   BANK1   BANK2   BANK3   BANK4   BANK5   BANK6   BANK7   BANK8   BANK9  BANK10  BANK1
      +1  BANK12  BANK13  BANK14  BANK15
  4032 ;;      Params:         0       2       0       0       0       0       0       0       0       0       0       0       
      +0       0       0       0       0
  4033 ;;      Locals:         0       0       0       0       0       0       0       0       0       0       0       0       
      +0       0       0       0       0
  4034 ;;      Temps:          0       2       0       0       0       0       0       0       0       0       0       0       
      +0       0       0       0       0
  4035 ;;      Totals:         0       4       0       0       0       0       0       0       0       0       0       0       
      +0       0       0       0       0
  4036 ;;Total ram usage:        4 bytes
  4037 ;; Hardware stack levels used: 1
  4038 ;; Hardware stack levels required when called: 9
  4039 ;; This function calls:
  4040 ;;		Nothing
  4041 ;; This function is called by:
  4042 ;;		_CCPx_Init
  4043 ;; This function uses a non-reentrant model
  4044 ;;
  4045                           
  4046                           	psect	text22
  4047   004680                     __ptext22:
  4048                           	callstack 0
  4049   004680                     _CCPx_SET_TIMER_CONFIG:
  4050                           	callstack 19
  4051   004680                     
  4052                           ;MCAL_LAYER/CCP/CCP.c: 406:     switch(ccp_obj->timer_mode){
  4053   004680  EF4E  F023         	goto	l8387
  4054   004684                     l462:
  4055                           
  4056                           ; BSR set to: 0
  4057   004684  96B1               	bcf	177,3,c	;volatile
  4058                           
  4059                           ;MCAL_LAYER/CCP/CCP.c: 408:                                        T3CONbits.T3CCP2=0;
  4060   004686  9CB1               	bcf	177,6,c	;volatile
  4061                           
  4062                           ;MCAL_LAYER/CCP/CCP.c: 409:                                        break;
  4063   004688  EF6E  F023         	goto	l466
  4064   00468C                     l464:
  4065                           
  4066                           ; BSR set to: 0
  4067   00468C  86B1               	bsf	177,3,c	;volatile
  4068                           
  4069                           ;MCAL_LAYER/CCP/CCP.c: 411:                                        T3CONbits.T3CCP2=0;
  4070   00468E  9CB1               	bcf	177,6,c	;volatile
  4071                           
  4072                           ;MCAL_LAYER/CCP/CCP.c: 412:                                        break;
  4073   004690  EF6E  F023         	goto	l466
  4074   004694                     l465:
  4075                           
  4076                           ; BSR set to: 0
  4077   004694  96B1               	bcf	177,3,c	;volatile
  4078                           
  4079                           ;MCAL_LAYER/CCP/CCP.c: 415:                                        T3CONbits.T3CCP2=1;
  4080   004696  8CB1               	bsf	177,6,c	;volatile
  4081                           
  4082                           ;MCAL_LAYER/CCP/CCP.c: 416:                                        break;
  4083   004698  EF6E  F023         	goto	l466
  4084   00469C                     l8387:
  4085   00469C  0100               	movlb	0	; () banked
  4086   00469E  EE20 F004          	lfsr	2,4
  4087   0046A2  518E               	movf	CCPx_SET_TIMER_CONFIG@ccp_obj& (0+255),w,b
  4088   0046A4  26D9               	addwf	fsr2l,f,c
  4089   0046A6  518F               	movf	(CCPx_SET_TIMER_CONFIG@ccp_obj+1)& (0+255),w,b
  4090   0046A8  22DA               	addwfc	fsr2h,f,c
  4091   0046AA  50DF               	movf	indf2,w,c
  4092   0046AC  6F90               	movwf	??_CCPx_SET_TIMER_CONFIG& (0+255),b
  4093   0046AE  6B91               	clrf	(??_CCPx_SET_TIMER_CONFIG+1)& (0+255),b
  4094                           
  4095                           ; Switch on 2 bytes has been partitioned into a top level switch of size 1, and 1 sub-sw
      +                          itches
  4096                           ; Switch size 1, requested type "simple"
  4097                           ; Number of cases is 1, Range of values is 0 to 0
  4098                           ; switch strategies available:
  4099                           ; Name         Instructions Cycles
  4100                           ; simple_byte            4     3 (average)
  4101                           ;	Chosen strategy is simple_byte
  4102   0046B0  5191               	movf	(??_CCPx_SET_TIMER_CONFIG+1)& (0+255),w,b
  4103   0046B2  0A00               	xorlw	0	; case 0
  4104   0046B4  B4D8               	btfsc	status,2,c
  4105   0046B6  EF5F  F023         	goto	l9473
  4106   0046BA  EF6E  F023         	goto	l466
  4107   0046BE                     l9473:
  4108                           
  4109                           ; BSR set to: 0
  4110                           ; Switch size 1, requested type "simple"
  4111                           ; Number of cases is 3, Range of values is 0 to 2
  4112                           ; switch strategies available:
  4113                           ; Name         Instructions Cycles
  4114                           ; simple_byte           10     6 (average)
  4115                           ;	Chosen strategy is simple_byte
  4116   0046BE  5190               	movf	??_CCPx_SET_TIMER_CONFIG& (0+255),w,b
  4117   0046C0  0A00               	xorlw	0	; case 0
  4118   0046C2  B4D8               	btfsc	status,2,c
  4119   0046C4  EF42  F023         	goto	l462
  4120   0046C8  0A01               	xorlw	1	; case 1
  4121   0046CA  B4D8               	btfsc	status,2,c
  4122   0046CC  EF46  F023         	goto	l464
  4123   0046D0  0A03               	xorlw	3	; case 2
  4124   0046D2  B4D8               	btfsc	status,2,c
  4125   0046D4  EF4A  F023         	goto	l465
  4126   0046D8  EF6E  F023         	goto	l466
  4127   0046DC                     l466:
  4128                           
  4129                           ; BSR set to: 0
  4130   0046DC  0012               	return		;funcret
  4131   0046DE                     __end_of_CCPx_SET_TIMER_CONFIG:
  4132                           	callstack 0
  4133                           
  4134 ;; *************** function _CCPx_SET_PWM_MODE *****************
  4135 ;; Defined at:
  4136 ;;		line 390 in file "MCAL_LAYER/CCP/CCP.c"
  4137 ;; Parameters:    Size  Location     Type
  4138 ;;  ccp_obj         2    4[BANK1 ] PTR const struct .
  4139 ;;		 -> Heater(12), AC(12), 
  4140 ;; Auto vars:     Size  Location     Type
  4141 ;;		None
  4142 ;; Return value:  Size  Location     Type
  4143 ;;                  1    wreg      void 
  4144 ;; Registers used:
  4145 ;;		wreg, fsr2l, fsr2h, status,2, status,0, prodl, prodh, cstack
  4146 ;; Tracked objects:
  4147 ;;		On entry : 0/0
  4148 ;;		On exit  : 0/0
  4149 ;;		Unchanged: 0/0
  4150 ;; Data sizes:     COMRAM   BANK0   BANK1   BANK2   BANK3   BANK4   BANK5   BANK6   BANK7   BANK8   BANK9  BANK10  BANK1
      +1  BANK12  BANK13  BANK14  BANK15
  4151 ;;      Params:         0       0       2       0       0       0       0       0       0       0       0       0       
      +0       0       0       0       0
  4152 ;;      Locals:         0       0       8       0       0       0       0       0       0       0       0       0       
      +0       0       0       0       0
  4153 ;;      Temps:          0       0       2       0       0       0       0       0       0       0       0       0       
      +0       0       0       0       0
  4154 ;;      Totals:         0       0      12       0       0       0       0       0       0       0       0       0       
      +0       0       0       0       0
  4155 ;;Total ram usage:       12 bytes
  4156 ;; Hardware stack levels used: 1
  4157 ;; Hardware stack levels required when called: 10
  4158 ;; This function calls:
  4159 ;;		___fladd
  4160 ;;		___fldiv
  4161 ;;		___flmul
  4162 ;;		___fltol
  4163 ;;		___xxtofl
  4164 ;; This function is called by:
  4165 ;;		_CCPx_Init
  4166 ;; This function uses a non-reentrant model
  4167 ;;
  4168                           
  4169                           	psect	text23
  4170   002B5A                     __ptext23:
  4171                           	callstack 0
  4172   002B5A                     _CCPx_SET_PWM_MODE:
  4173                           	callstack 18
  4174   002B5A                     
  4175                           ;MCAL_LAYER/CCP/CCP.c: 392:      if (ccp_obj->CCPx == 1){
  4176   002B5A  C176  FFD9         	movff	CCPx_SET_PWM_MODE@ccp_obj,fsr2l
  4177   002B5E  C177  FFDA         	movff	CCPx_SET_PWM_MODE@ccp_obj+1,fsr2h
  4178   002B62  04DE               	decf	postinc2,w,c
  4179   002B64  A4D8               	btfss	status,2,c
  4180   002B66  EFB7  F015         	goto	u8551
  4181   002B6A  EFB9  F015         	goto	u8550
  4182   002B6E                     u8551:
  4183   002B6E  EFBF  F015         	goto	l8377
  4184   002B72                     u8550:
  4185   002B72                     
  4186                           ;MCAL_LAYER/CCP/CCP.c: 393:        (CCP1CONbits.CCP1M=((uint_8) 0x0C));
  4187   002B72  50BD               	movf	189,w,c	;volatile
  4188   002B74  0BF0               	andlw	-16
  4189   002B76  090C               	iorlw	12
  4190   002B78  6EBD               	movwf	189,c	;volatile
  4191                           
  4192                           ;MCAL_LAYER/CCP/CCP.c: 394:    }
  4193   002B7A  EFD0  F015         	goto	l8381
  4194   002B7E                     l8377:
  4195   002B7E  C176  FFD9         	movff	CCPx_SET_PWM_MODE@ccp_obj,fsr2l
  4196   002B82  C177  FFDA         	movff	CCPx_SET_PWM_MODE@ccp_obj+1,fsr2h
  4197   002B86  0E02               	movlw	2
  4198   002B88  18DE               	xorwf	postinc2,w,c
  4199   002B8A  A4D8               	btfss	status,2,c
  4200   002B8C  EFCA  F015         	goto	u8561
  4201   002B90  EFCC  F015         	goto	u8560
  4202   002B94                     u8561:
  4203   002B94  EFD0  F015         	goto	l8381
  4204   002B98                     u8560:
  4205   002B98                     
  4206                           ;MCAL_LAYER/CCP/CCP.c: 396:       (CCP2CONbits.CCP2M=((uint_8) 0x0C));
  4207   002B98  50BA               	movf	186,w,c	;volatile
  4208   002B9A  0BF0               	andlw	-16
  4209   002B9C  090C               	iorlw	12
  4210   002B9E  6EBA               	movwf	186,c	;volatile
  4211   002BA0                     l8381:
  4212                           
  4213                           ;MCAL_LAYER/CCP/CCP.c: 400:   PR2=(uint_8)( (8000000UL / (ccp_obj->PWM_Frequency * 4.0 *
      +                           ccp_obj->timer2_Pos * ccp_obj->timer2_Prescaler))-1 );
  4214   002BA0  0E00               	movlw	0
  4215   002BA2  0100               	movlb	0	; () banked
  4216   002BA4  6FC9               	movwf	___flmul@a& (0+255),b
  4217   002BA6  0E00               	movlw	0
  4218   002BA8  6FCA               	movwf	(___flmul@a+1)& (0+255),b
  4219   002BAA  0E80               	movlw	128
  4220   002BAC  6FCB               	movwf	(___flmul@a+2)& (0+255),b
  4221   002BAE  0E40               	movlw	64
  4222   002BB0  6FCC               	movwf	(___flmul@a+3)& (0+255),b
  4223   002BB2  0101               	movlb	1	; () banked
  4224   002BB4  EE20 F005          	lfsr	2,5
  4225   002BB8  5176               	movf	CCPx_SET_PWM_MODE@ccp_obj& (0+255),w,b
  4226   002BBA  26D9               	addwf	fsr2l,f,c
  4227   002BBC  5177               	movf	(CCPx_SET_PWM_MODE@ccp_obj+1)& (0+255),w,b
  4228   002BBE  22DA               	addwfc	fsr2h,f,c
  4229   002BC0  CFDE F178          	movff	postinc2,??_CCPx_SET_PWM_MODE
  4230   002BC4  CFDD F179          	movff	postdec2,??_CCPx_SET_PWM_MODE+1
  4231   002BC8  C178  F08E         	movff	??_CCPx_SET_PWM_MODE,___xxtofl@val
  4232   002BCC  C179  F08F         	movff	??_CCPx_SET_PWM_MODE+1,___xxtofl@val+1
  4233   002BD0  0100               	movlb	0	; () banked
  4234   002BD2  6B90               	clrf	(___xxtofl@val+2)& (0+255),b
  4235   002BD4  6B91               	clrf	(___xxtofl@val+3)& (0+255),b
  4236   002BD6  0E00               	movlw	0
  4237   002BD8  EC1C  F013         	call	___xxtofl
  4238   002BDC  C08E  F0C5         	movff	?___xxtofl,___flmul@b
  4239   002BE0  C08F  F0C6         	movff	?___xxtofl+1,___flmul@b+1
  4240   002BE4  C090  F0C7         	movff	?___xxtofl+2,___flmul@b+2
  4241   002BE8  C091  F0C8         	movff	?___xxtofl+3,___flmul@b+3
  4242   002BEC  EC6F  F00A         	call	___flmul	;wreg free
  4243   002BF0  C0C5  F17A         	movff	?___flmul,_CCPx_SET_PWM_MODE$3866
  4244   002BF4  C0C6  F17B         	movff	?___flmul+1,_CCPx_SET_PWM_MODE$3866+1
  4245   002BF8  C0C7  F17C         	movff	?___flmul+2,_CCPx_SET_PWM_MODE$3866+2
  4246   002BFC  C0C8  F17D         	movff	?___flmul+3,_CCPx_SET_PWM_MODE$3866+3
  4247                           
  4248                           ;MCAL_LAYER/CCP/CCP.c: 400:   PR2=(uint_8)( (8000000UL / (ccp_obj->PWM_Frequency * 4.0 *
      +                           ccp_obj->timer2_Pos * ccp_obj->timer2_Prescaler))-1 );
  4249   002C00  0101               	movlb	1	; () banked
  4250   002C02  EE20 F008          	lfsr	2,8
  4251   002C06  5176               	movf	CCPx_SET_PWM_MODE@ccp_obj& (0+255),w,b
  4252   002C08  26D9               	addwf	fsr2l,f,c
  4253   002C0A  5177               	movf	(CCPx_SET_PWM_MODE@ccp_obj+1)& (0+255),w,b
  4254   002C0C  22DA               	addwfc	fsr2h,f,c
  4255   002C0E  50DF               	movf	indf2,w,c
  4256   002C10  6F78               	movwf	??_CCPx_SET_PWM_MODE& (0+255),b
  4257   002C12  5178               	movf	??_CCPx_SET_PWM_MODE& (0+255),w,b
  4258   002C14  0100               	movlb	0	; () banked
  4259   002C16  6F8E               	movwf	___xxtofl@val& (0+255),b
  4260   002C18  6B8F               	clrf	(___xxtofl@val+1)& (0+255),b
  4261   002C1A  6B90               	clrf	(___xxtofl@val+2)& (0+255),b
  4262   002C1C  6B91               	clrf	(___xxtofl@val+3)& (0+255),b
  4263   002C1E  0E01               	movlw	1
  4264   002C20  EC1C  F013         	call	___xxtofl
  4265   002C24  C08E  F0C9         	movff	?___xxtofl,___flmul@a
  4266   002C28  C08F  F0CA         	movff	?___xxtofl+1,___flmul@a+1
  4267   002C2C  C090  F0CB         	movff	?___xxtofl+2,___flmul@a+2
  4268   002C30  C091  F0CC         	movff	?___xxtofl+3,___flmul@a+3
  4269   002C34  C17A  F0C5         	movff	_CCPx_SET_PWM_MODE$3866,___flmul@b
  4270   002C38  C17B  F0C6         	movff	_CCPx_SET_PWM_MODE$3866+1,___flmul@b+1
  4271   002C3C  C17C  F0C7         	movff	_CCPx_SET_PWM_MODE$3866+2,___flmul@b+2
  4272   002C40  C17D  F0C8         	movff	_CCPx_SET_PWM_MODE$3866+3,___flmul@b+3
  4273   002C44  EC6F  F00A         	call	___flmul	;wreg free
  4274   002C48  C0C5  F17E         	movff	?___flmul,_CCPx_SET_PWM_MODE$3867
  4275   002C4C  C0C6  F17F         	movff	?___flmul+1,_CCPx_SET_PWM_MODE$3867+1
  4276   002C50  C0C7  F180         	movff	?___flmul+2,_CCPx_SET_PWM_MODE$3867+2
  4277   002C54  C0C8  F181         	movff	?___flmul+3,_CCPx_SET_PWM_MODE$3867+3
  4278                           
  4279                           ;MCAL_LAYER/CCP/CCP.c: 400:   PR2=(uint_8)( (8000000UL / (ccp_obj->PWM_Frequency * 4.0 *
      +                           ccp_obj->timer2_Pos * ccp_obj->timer2_Prescaler))-1 );
  4280   002C58  0E00               	movlw	0
  4281   002C5A  0100               	movlb	0	; () banked
  4282   002C5C  6FB9               	movwf	___fladd@a& (0+255),b
  4283   002C5E  0E00               	movlw	0
  4284   002C60  6FBA               	movwf	(___fladd@a+1)& (0+255),b
  4285   002C62  0E80               	movlw	128
  4286   002C64  6FBB               	movwf	(___fladd@a+2)& (0+255),b
  4287   002C66  0EBF               	movlw	191
  4288   002C68  6FBC               	movwf	(___fladd@a+3)& (0+255),b
  4289   002C6A  0101               	movlb	1	; () banked
  4290   002C6C  EE20 F007          	lfsr	2,7
  4291   002C70  5176               	movf	CCPx_SET_PWM_MODE@ccp_obj& (0+255),w,b
  4292   002C72  26D9               	addwf	fsr2l,f,c
  4293   002C74  5177               	movf	(CCPx_SET_PWM_MODE@ccp_obj+1)& (0+255),w,b
  4294   002C76  22DA               	addwfc	fsr2h,f,c
  4295   002C78  50DF               	movf	indf2,w,c
  4296   002C7A  6F78               	movwf	??_CCPx_SET_PWM_MODE& (0+255),b
  4297   002C7C  5178               	movf	??_CCPx_SET_PWM_MODE& (0+255),w,b
  4298   002C7E  0100               	movlb	0	; () banked
  4299   002C80  6F8E               	movwf	___xxtofl@val& (0+255),b
  4300   002C82  6B8F               	clrf	(___xxtofl@val+1)& (0+255),b
  4301   002C84  6B90               	clrf	(___xxtofl@val+2)& (0+255),b
  4302   002C86  6B91               	clrf	(___xxtofl@val+3)& (0+255),b
  4303   002C88  0E01               	movlw	1
  4304   002C8A  EC1C  F013         	call	___xxtofl
  4305   002C8E  C08E  F0C9         	movff	?___xxtofl,___flmul@a
  4306   002C92  C08F  F0CA         	movff	?___xxtofl+1,___flmul@a+1
  4307   002C96  C090  F0CB         	movff	?___xxtofl+2,___flmul@a+2
  4308   002C9A  C091  F0CC         	movff	?___xxtofl+3,___flmul@a+3
  4309   002C9E  C17E  F0C5         	movff	_CCPx_SET_PWM_MODE$3867,___flmul@b
  4310   002CA2  C17F  F0C6         	movff	_CCPx_SET_PWM_MODE$3867+1,___flmul@b+1
  4311   002CA6  C180  F0C7         	movff	_CCPx_SET_PWM_MODE$3867+2,___flmul@b+2
  4312   002CAA  C181  F0C8         	movff	_CCPx_SET_PWM_MODE$3867+3,___flmul@b+3
  4313   002CAE  EC6F  F00A         	call	___flmul	;wreg free
  4314   002CB2  C0C5  F0A0         	movff	?___flmul,___fldiv@a
  4315   002CB6  C0C6  F0A1         	movff	?___flmul+1,___fldiv@a+1
  4316   002CBA  C0C7  F0A2         	movff	?___flmul+2,___fldiv@a+2
  4317   002CBE  C0C8  F0A3         	movff	?___flmul+3,___fldiv@a+3
  4318   002CC2  0E00               	movlw	0
  4319   002CC4  0100               	movlb	0	; () banked
  4320   002CC6  6F9C               	movwf	___fldiv@b& (0+255),b
  4321   002CC8  0E24               	movlw	36
  4322   002CCA  6F9D               	movwf	(___fldiv@b+1)& (0+255),b
  4323   002CCC  0EF4               	movlw	244
  4324   002CCE  6F9E               	movwf	(___fldiv@b+2)& (0+255),b
  4325   002CD0  0E4A               	movlw	74
  4326   002CD2  6F9F               	movwf	(___fldiv@b+3)& (0+255),b
  4327   002CD4  EC9A  F00E         	call	___fldiv	;wreg free
  4328   002CD8  C09C  F0B5         	movff	?___fldiv,___fladd@b
  4329   002CDC  C09D  F0B6         	movff	?___fldiv+1,___fladd@b+1
  4330   002CE0  C09E  F0B7         	movff	?___fldiv+2,___fladd@b+2
  4331   002CE4  C09F  F0B8         	movff	?___fldiv+3,___fladd@b+3
  4332   002CE8  EC0E  F008         	call	___fladd	;wreg free
  4333   002CEC  C0B5  F0DE         	movff	?___fladd,___fltol@f1
  4334   002CF0  C0B6  F0DF         	movff	?___fladd+1,___fltol@f1+1
  4335   002CF4  C0B7  F0E0         	movff	?___fladd+2,___fltol@f1+2
  4336   002CF8  C0B8  F0E1         	movff	?___fladd+3,___fltol@f1+3
  4337   002CFC  ECAA  F01B         	call	___fltol	;wreg free
  4338   002D00  0100               	movlb	0	; () banked
  4339   002D02  51DE               	movf	?___fltol& (0+255),w,b
  4340   002D04  6ECB               	movwf	203,c	;volatile
  4341   002D06                     
  4342                           ; BSR set to: 0
  4343   002D06  0012               	return		;funcret
  4344   002D08                     __end_of_CCPx_SET_PWM_MODE:
  4345                           	callstack 0
  4346                           
  4347 ;; *************** function ___xxtofl *****************
  4348 ;; Defined at:
  4349 ;;		line 10 in file "D:\Program Files\Microchip\xc8\v2.45\pic\sources\c99\common\xxtofl.c"
  4350 ;; Parameters:    Size  Location     Type
  4351 ;;  sign            1    wreg     unsigned char 
  4352 ;;  val             4   14[BANK0 ] long 
  4353 ;; Auto vars:     Size  Location     Type
  4354 ;;  sign            1   22[BANK0 ] unsigned char 
  4355 ;;  arg             4   24[BANK0 ] unsigned long 
  4356 ;;  exp             1   23[BANK0 ] unsigned char 
  4357 ;; Return value:  Size  Location     Type
  4358 ;;                  4   14[BANK0 ] unsigned char 
  4359 ;; Registers used:
  4360 ;;		wreg, status,2, status,0
  4361 ;; Tracked objects:
  4362 ;;		On entry : 0/0
  4363 ;;		On exit  : 0/0
  4364 ;;		Unchanged: 0/0
  4365 ;; Data sizes:     COMRAM   BANK0   BANK1   BANK2   BANK3   BANK4   BANK5   BANK6   BANK7   BANK8   BANK9  BANK10  BANK1
      +1  BANK12  BANK13  BANK14  BANK15
  4366 ;;      Params:         0       4       0       0       0       0       0       0       0       0       0       0       
      +0       0       0       0       0
  4367 ;;      Locals:         0       6       0       0       0       0       0       0       0       0       0       0       
      +0       0       0       0       0
  4368 ;;      Temps:          0       4       0       0       0       0       0       0       0       0       0       0       
      +0       0       0       0       0
  4369 ;;      Totals:         0      14       0       0       0       0       0       0       0       0       0       0       
      +0       0       0       0       0
  4370 ;;Total ram usage:       14 bytes
  4371 ;; Hardware stack levels used: 1
  4372 ;; Hardware stack levels required when called: 9
  4373 ;; This function calls:
  4374 ;;		Nothing
  4375 ;; This function is called by:
  4376 ;;		_CCP_PWM_Set_Duty
  4377 ;;		_CCPx_SET_PWM_MODE
  4378 ;; This function uses a non-reentrant model
  4379 ;;
  4380                           
  4381                           	psect	text24
  4382   002638                     __ptext24:
  4383                           	callstack 0
  4384   002638                     ___xxtofl:
  4385                           	callstack 18
  4386                           
  4387                           ; BSR set to: 0
  4388                           ;incstack = 0
  4389                           ;___xxtofl@sign stored from wreg
  4390   002638  0100               	movlb	0	; () banked
  4391   00263A  6F96               	movwf	___xxtofl@sign& (0+255),b
  4392   00263C  0100               	movlb	0	; () banked
  4393   00263E  5196               	movf	___xxtofl@sign& (0+255),w,b
  4394   002640  B4D8               	btfsc	status,2,c
  4395   002642  EF25  F013         	goto	u8301
  4396   002646  EF27  F013         	goto	u8300
  4397   00264A                     u8301:
  4398   00264A  EF49  F013         	goto	l1768
  4399   00264E                     u8300:
  4400   00264E                     
  4401                           ; BSR set to: 0
  4402   00264E  BF91               	btfsc	(___xxtofl@val+3)& (0+255),7,b
  4403   002650  EF2E  F013         	goto	u8310
  4404   002654  EF2C  F013         	goto	u8311
  4405   002658                     u8311:
  4406   002658  EF49  F013         	goto	l1768
  4407   00265C                     u8310:
  4408   00265C                     
  4409                           ; BSR set to: 0
  4410   00265C  C08E  F092         	movff	___xxtofl@val,??___xxtofl
  4411   002660  C08F  F093         	movff	___xxtofl@val+1,??___xxtofl+1
  4412   002664  C090  F094         	movff	___xxtofl@val+2,??___xxtofl+2
  4413   002668  C091  F095         	movff	___xxtofl@val+3,??___xxtofl+3
  4414   00266C  1F92               	comf	??___xxtofl& (0+255),f,b
  4415   00266E  1F93               	comf	(??___xxtofl+1)& (0+255),f,b
  4416   002670  1F94               	comf	(??___xxtofl+2)& (0+255),f,b
  4417   002672  1F95               	comf	(??___xxtofl+3)& (0+255),f,b
  4418   002674  2B92               	incf	??___xxtofl& (0+255),f,b
  4419   002676  0E00               	movlw	0
  4420   002678  2393               	addwfc	(??___xxtofl+1)& (0+255),f,b
  4421   00267A  2394               	addwfc	(??___xxtofl+2)& (0+255),f,b
  4422   00267C  2395               	addwfc	(??___xxtofl+3)& (0+255),f,b
  4423   00267E  C092  F098         	movff	??___xxtofl,___xxtofl@arg
  4424   002682  C093  F099         	movff	??___xxtofl+1,___xxtofl@arg+1
  4425   002686  C094  F09A         	movff	??___xxtofl+2,___xxtofl@arg+2
  4426   00268A  C095  F09B         	movff	??___xxtofl+3,___xxtofl@arg+3
  4427   00268E  EF51  F013         	goto	l8161
  4428   002692                     l1768:
  4429                           
  4430                           ; BSR set to: 0
  4431   002692  C08E  F098         	movff	___xxtofl@val,___xxtofl@arg
  4432   002696  C08F  F099         	movff	___xxtofl@val+1,___xxtofl@arg+1
  4433   00269A  C090  F09A         	movff	___xxtofl@val+2,___xxtofl@arg+2
  4434   00269E  C091  F09B         	movff	___xxtofl@val+3,___xxtofl@arg+3
  4435   0026A2                     l8161:
  4436                           
  4437                           ; BSR set to: 0
  4438   0026A2  518E               	movf	___xxtofl@val& (0+255),w,b
  4439   0026A4  118F               	iorwf	(___xxtofl@val+1)& (0+255),w,b
  4440   0026A6  1190               	iorwf	(___xxtofl@val+2)& (0+255),w,b
  4441   0026A8  1191               	iorwf	(___xxtofl@val+3)& (0+255),w,b
  4442   0026AA  A4D8               	btfss	status,2,c
  4443   0026AC  EF5A  F013         	goto	u8321
  4444   0026B0  EF5C  F013         	goto	u8320
  4445   0026B4                     u8321:
  4446   0026B4  EF66  F013         	goto	l8167
  4447   0026B8                     u8320:
  4448   0026B8                     
  4449                           ; BSR set to: 0
  4450   0026B8  0E00               	movlw	0
  4451   0026BA  6F8E               	movwf	?___xxtofl& (0+255),b
  4452   0026BC  0E00               	movlw	0
  4453   0026BE  6F8F               	movwf	(?___xxtofl+1)& (0+255),b
  4454   0026C0  0E00               	movlw	0
  4455   0026C2  6F90               	movwf	(?___xxtofl+2)& (0+255),b
  4456   0026C4  0E00               	movlw	0
  4457   0026C6  6F91               	movwf	(?___xxtofl+3)& (0+255),b
  4458   0026C8  EFF7  F013         	goto	l1771
  4459   0026CC                     l8167:
  4460                           
  4461                           ; BSR set to: 0
  4462   0026CC  0E96               	movlw	150
  4463   0026CE  6F97               	movwf	___xxtofl@exp& (0+255),b
  4464   0026D0  EF70  F013         	goto	l8171
  4465   0026D4                     l8169:
  4466                           
  4467                           ; BSR set to: 0
  4468   0026D4  2B97               	incf	___xxtofl@exp& (0+255),f,b
  4469   0026D6  90D8               	bcf	status,0,c
  4470   0026D8  339B               	rrcf	(___xxtofl@arg+3)& (0+255),f,b
  4471   0026DA  339A               	rrcf	(___xxtofl@arg+2)& (0+255),f,b
  4472   0026DC  3399               	rrcf	(___xxtofl@arg+1)& (0+255),f,b
  4473   0026DE  3398               	rrcf	___xxtofl@arg& (0+255),f,b
  4474   0026E0                     l8171:
  4475                           
  4476                           ; BSR set to: 0
  4477   0026E0  0E00               	movlw	0
  4478   0026E2  1598               	andwf	___xxtofl@arg& (0+255),w,b
  4479   0026E4  6F92               	movwf	??___xxtofl& (0+255),b
  4480   0026E6  0E00               	movlw	0
  4481   0026E8  1599               	andwf	(___xxtofl@arg+1)& (0+255),w,b
  4482   0026EA  6F93               	movwf	(??___xxtofl+1)& (0+255),b
  4483   0026EC  0E00               	movlw	0
  4484   0026EE  159A               	andwf	(___xxtofl@arg+2)& (0+255),w,b
  4485   0026F0  6F94               	movwf	(??___xxtofl+2)& (0+255),b
  4486   0026F2  0EFE               	movlw	254
  4487   0026F4  159B               	andwf	(___xxtofl@arg+3)& (0+255),w,b
  4488   0026F6  6F95               	movwf	(??___xxtofl+3)& (0+255),b
  4489   0026F8  5192               	movf	??___xxtofl& (0+255),w,b
  4490   0026FA  1193               	iorwf	(??___xxtofl+1)& (0+255),w,b
  4491   0026FC  1194               	iorwf	(??___xxtofl+2)& (0+255),w,b
  4492   0026FE  1195               	iorwf	(??___xxtofl+3)& (0+255),w,b
  4493   002700  A4D8               	btfss	status,2,c
  4494   002702  EF85  F013         	goto	u8331
  4495   002706  EF87  F013         	goto	u8330
  4496   00270A                     u8331:
  4497   00270A  EF6A  F013         	goto	l8169
  4498   00270E                     u8330:
  4499   00270E  EF95  F013         	goto	l1775
  4500   002712                     l8173:
  4501                           
  4502                           ; BSR set to: 0
  4503   002712  2B97               	incf	___xxtofl@exp& (0+255),f,b
  4504   002714                     
  4505                           ; BSR set to: 0
  4506   002714  0E01               	movlw	1
  4507   002716  2798               	addwf	___xxtofl@arg& (0+255),f,b
  4508   002718  0E00               	movlw	0
  4509   00271A  2399               	addwfc	(___xxtofl@arg+1)& (0+255),f,b
  4510   00271C  239A               	addwfc	(___xxtofl@arg+2)& (0+255),f,b
  4511   00271E  239B               	addwfc	(___xxtofl@arg+3)& (0+255),f,b
  4512   002720                     
  4513                           ; BSR set to: 0
  4514   002720  90D8               	bcf	status,0,c
  4515   002722  339B               	rrcf	(___xxtofl@arg+3)& (0+255),f,b
  4516   002724  339A               	rrcf	(___xxtofl@arg+2)& (0+255),f,b
  4517   002726  3399               	rrcf	(___xxtofl@arg+1)& (0+255),f,b
  4518   002728  3398               	rrcf	___xxtofl@arg& (0+255),f,b
  4519   00272A                     l1775:
  4520                           
  4521                           ; BSR set to: 0
  4522   00272A  0E00               	movlw	0
  4523   00272C  1598               	andwf	___xxtofl@arg& (0+255),w,b
  4524   00272E  6F92               	movwf	??___xxtofl& (0+255),b
  4525   002730  0E00               	movlw	0
  4526   002732  1599               	andwf	(___xxtofl@arg+1)& (0+255),w,b
  4527   002734  6F93               	movwf	(??___xxtofl+1)& (0+255),b
  4528   002736  0E00               	movlw	0
  4529   002738  159A               	andwf	(___xxtofl@arg+2)& (0+255),w,b
  4530   00273A  6F94               	movwf	(??___xxtofl+2)& (0+255),b
  4531   00273C  0EFF               	movlw	255
  4532   00273E  159B               	andwf	(___xxtofl@arg+3)& (0+255),w,b
  4533   002740  6F95               	movwf	(??___xxtofl+3)& (0+255),b
  4534   002742  5192               	movf	??___xxtofl& (0+255),w,b
  4535   002744  1193               	iorwf	(??___xxtofl+1)& (0+255),w,b
  4536   002746  1194               	iorwf	(??___xxtofl+2)& (0+255),w,b
  4537   002748  1195               	iorwf	(??___xxtofl+3)& (0+255),w,b
  4538   00274A  A4D8               	btfss	status,2,c
  4539   00274C  EFAA  F013         	goto	u8341
  4540   002750  EFAC  F013         	goto	u8340
  4541   002754                     u8341:
  4542   002754  EF89  F013         	goto	l8173
  4543   002758                     u8340:
  4544   002758  EFB4  F013         	goto	l8181
  4545   00275C                     l8179:
  4546                           
  4547                           ; BSR set to: 0
  4548   00275C  0797               	decf	___xxtofl@exp& (0+255),f,b
  4549   00275E  90D8               	bcf	status,0,c
  4550   002760  3798               	rlcf	___xxtofl@arg& (0+255),f,b
  4551   002762  3799               	rlcf	(___xxtofl@arg+1)& (0+255),f,b
  4552   002764  379A               	rlcf	(___xxtofl@arg+2)& (0+255),f,b
  4553   002766  379B               	rlcf	(___xxtofl@arg+3)& (0+255),f,b
  4554   002768                     l8181:
  4555                           
  4556                           ; BSR set to: 0
  4557   002768  BF9A               	btfsc	(___xxtofl@arg+2)& (0+255),7,b
  4558   00276A  EFB9  F013         	goto	u8351
  4559   00276E  EFBB  F013         	goto	u8350
  4560   002772                     u8351:
  4561   002772  EFC3  F013         	goto	l1782
  4562   002776                     u8350:
  4563   002776                     
  4564                           ; BSR set to: 0
  4565   002776  0E02               	movlw	2
  4566   002778  6197               	cpfslt	___xxtofl@exp& (0+255),b
  4567   00277A  EFC1  F013         	goto	u8361
  4568   00277E  EFC3  F013         	goto	u8360
  4569   002782                     u8361:
  4570   002782  EFAE  F013         	goto	l8179
  4571   002786                     u8360:
  4572   002786                     l1782:
  4573                           
  4574                           ; BSR set to: 0
  4575   002786  B197               	btfsc	___xxtofl@exp& (0+255),0,b
  4576   002788  EFC8  F013         	goto	u8371
  4577   00278C  EFCA  F013         	goto	u8370
  4578   002790                     u8371:
  4579   002790  EFCB  F013         	goto	l8187
  4580   002794                     u8370:
  4581   002794                     
  4582                           ; BSR set to: 0
  4583   002794  9F9A               	bcf	(___xxtofl@arg+2)& (0+255),7,b
  4584   002796                     l8187:
  4585                           
  4586                           ; BSR set to: 0
  4587   002796  90D8               	bcf	status,0,c
  4588   002798  3397               	rrcf	___xxtofl@exp& (0+255),f,b
  4589   00279A                     
  4590                           ; BSR set to: 0
  4591   00279A  C097  F092         	movff	___xxtofl@exp,??___xxtofl
  4592   00279E  6B93               	clrf	(??___xxtofl+1)& (0+255),b
  4593   0027A0  6B94               	clrf	(??___xxtofl+2)& (0+255),b
  4594   0027A2  6B95               	clrf	(??___xxtofl+3)& (0+255),b
  4595   0027A4  C092  F095         	movff	??___xxtofl,??___xxtofl+3
  4596   0027A8  6B94               	clrf	(??___xxtofl+2)& (0+255),b
  4597   0027AA  6B93               	clrf	(??___xxtofl+1)& (0+255),b
  4598   0027AC  6B92               	clrf	??___xxtofl& (0+255),b
  4599   0027AE  5192               	movf	??___xxtofl& (0+255),w,b
  4600   0027B0  1398               	iorwf	___xxtofl@arg& (0+255),f,b
  4601   0027B2  5193               	movf	(??___xxtofl+1)& (0+255),w,b
  4602   0027B4  1399               	iorwf	(___xxtofl@arg+1)& (0+255),f,b
  4603   0027B6  5194               	movf	(??___xxtofl+2)& (0+255),w,b
  4604   0027B8  139A               	iorwf	(___xxtofl@arg+2)& (0+255),f,b
  4605   0027BA  5195               	movf	(??___xxtofl+3)& (0+255),w,b
  4606   0027BC  139B               	iorwf	(___xxtofl@arg+3)& (0+255),f,b
  4607   0027BE                     
  4608                           ; BSR set to: 0
  4609   0027BE  5196               	movf	___xxtofl@sign& (0+255),w,b
  4610   0027C0  B4D8               	btfsc	status,2,c
  4611   0027C2  EFE5  F013         	goto	u8381
  4612   0027C6  EFE7  F013         	goto	u8380
  4613   0027CA                     u8381:
  4614   0027CA  EFEF  F013         	goto	l8197
  4615   0027CE                     u8380:
  4616   0027CE                     
  4617                           ; BSR set to: 0
  4618   0027CE  BF91               	btfsc	(___xxtofl@val+3)& (0+255),7,b
  4619   0027D0  EFEE  F013         	goto	u8390
  4620   0027D4  EFEC  F013         	goto	u8391
  4621   0027D8                     u8391:
  4622   0027D8  EFEF  F013         	goto	l8197
  4623   0027DC                     u8390:
  4624   0027DC                     
  4625                           ; BSR set to: 0
  4626   0027DC  8F9B               	bsf	(___xxtofl@arg+3)& (0+255),7,b
  4627   0027DE                     l8197:
  4628                           
  4629                           ; BSR set to: 0
  4630   0027DE  C098  F08E         	movff	___xxtofl@arg,?___xxtofl
  4631   0027E2  C099  F08F         	movff	___xxtofl@arg+1,?___xxtofl+1
  4632   0027E6  C09A  F090         	movff	___xxtofl@arg+2,?___xxtofl+2
  4633   0027EA  C09B  F091         	movff	___xxtofl@arg+3,?___xxtofl+3
  4634   0027EE                     l1771:
  4635                           
  4636                           ; BSR set to: 0
  4637   0027EE  0012               	return		;funcret
  4638   0027F0                     __end_of___xxtofl:
  4639                           	callstack 0
  4640                           
  4641 ;; *************** function ___fltol *****************
  4642 ;; Defined at:
  4643 ;;		line 43 in file "D:\Program Files\Microchip\xc8\v2.45\pic\sources\c99\common\fltol.c"
  4644 ;; Parameters:    Size  Location     Type
  4645 ;;  f1              4   94[BANK0 ] unsigned char 
  4646 ;; Auto vars:     Size  Location     Type
  4647 ;;  exp1            1   99[BANK0 ] unsigned char 
  4648 ;;  sign1           1   98[BANK0 ] unsigned char 
  4649 ;; Return value:  Size  Location     Type
  4650 ;;                  4   94[BANK0 ] long 
  4651 ;; Registers used:
  4652 ;;		wreg, status,2, status,0
  4653 ;; Tracked objects:
  4654 ;;		On entry : 0/0
  4655 ;;		On exit  : 0/0
  4656 ;;		Unchanged: 0/0
  4657 ;; Data sizes:     COMRAM   BANK0   BANK1   BANK2   BANK3   BANK4   BANK5   BANK6   BANK7   BANK8   BANK9  BANK10  BANK1
      +1  BANK12  BANK13  BANK14  BANK15
  4658 ;;      Params:         0       4       0       0       0       0       0       0       0       0       0       0       
      +0       0       0       0       0
  4659 ;;      Locals:         0       2       0       0       0       0       0       0       0       0       0       0       
      +0       0       0       0       0
  4660 ;;      Temps:          0       0       4       0       0       0       0       0       0       0       0       0       
      +0       0       0       0       0
  4661 ;;      Totals:         0       6       4       0       0       0       0       0       0       0       0       0       
      +0       0       0       0       0
  4662 ;;Total ram usage:       10 bytes
  4663 ;; Hardware stack levels used: 1
  4664 ;; Hardware stack levels required when called: 9
  4665 ;; This function calls:
  4666 ;;		Nothing
  4667 ;; This function is called by:
  4668 ;;		_CCP_PWM_Set_Duty
  4669 ;;		_CCPx_SET_PWM_MODE
  4670 ;; This function uses a non-reentrant model
  4671 ;;
  4672                           
  4673                           	psect	text25
  4674   003754                     __ptext25:
  4675                           	callstack 0
  4676   003754                     ___fltol:
  4677                           	callstack 18
  4678   003754  0100               	movlb	0	; () banked
  4679   003756  35E0               	rlcf	(___fltol@f1+2)& (0+255),w,b
  4680   003758  35E1               	rlcf	(___fltol@f1+3)& (0+255),w,b
  4681   00375A  6FE3               	movwf	___fltol@exp1& (0+255),b
  4682   00375C  51E3               	movf	___fltol@exp1& (0+255),w,b
  4683   00375E  A4D8               	btfss	status,2,c
  4684   003760  EFB4  F01B         	goto	u8231
  4685   003764  EFB6  F01B         	goto	u8230
  4686   003768                     u8231:
  4687   003768  EFC0  F01B         	goto	l8117
  4688   00376C                     u8230:
  4689   00376C                     l8113:
  4690                           
  4691                           ; BSR set to: 0
  4692   00376C  0E00               	movlw	0
  4693   00376E  6FDE               	movwf	?___fltol& (0+255),b
  4694   003770  0E00               	movlw	0
  4695   003772  6FDF               	movwf	(?___fltol+1)& (0+255),b
  4696   003774  0E00               	movlw	0
  4697   003776  6FE0               	movwf	(?___fltol+2)& (0+255),b
  4698   003778  0E00               	movlw	0
  4699   00377A  6FE1               	movwf	(?___fltol+3)& (0+255),b
  4700   00377C  EF2F  F01C         	goto	l1410
  4701   003780                     l8117:
  4702                           
  4703                           ; BSR set to: 0
  4704   003780  C0DE  F172         	movff	___fltol@f1,??___fltol
  4705   003784  C0DF  F173         	movff	___fltol@f1+1,??___fltol+1
  4706   003788  C0E0  F174         	movff	___fltol@f1+2,??___fltol+2
  4707   00378C  C0E1  F175         	movff	___fltol@f1+3,??___fltol+3
  4708   003790  0E20               	movlw	32
  4709   003792  EFD1  F01B         	goto	u8240
  4710   003796                     u8245:
  4711   003796  0101               	movlb	1	; () banked
  4712   003798  90D8               	bcf	status,0,c
  4713   00379A  3375               	rrcf	(??___fltol+3)& (0+255),f,b
  4714   00379C  3374               	rrcf	(??___fltol+2)& (0+255),f,b
  4715   00379E  3373               	rrcf	(??___fltol+1)& (0+255),f,b
  4716   0037A0  3372               	rrcf	??___fltol& (0+255),f,b
  4717   0037A2                     u8240:
  4718   0037A2  2EE8               	decfsz	wreg,f,c
  4719   0037A4  EFCB  F01B         	goto	u8245
  4720   0037A8  5172               	movf	??___fltol& (0+255),w,b
  4721   0037AA  0100               	movlb	0	; () banked
  4722   0037AC  6FE2               	movwf	___fltol@sign1& (0+255),b
  4723   0037AE                     
  4724                           ; BSR set to: 0
  4725   0037AE  8FE0               	bsf	(___fltol@f1+2)& (0+255),7,b
  4726   0037B0                     
  4727                           ; BSR set to: 0
  4728   0037B0  0EFF               	movlw	255
  4729   0037B2  17DE               	andwf	___fltol@f1& (0+255),f,b
  4730   0037B4  0EFF               	movlw	255
  4731   0037B6  17DF               	andwf	(___fltol@f1+1)& (0+255),f,b
  4732   0037B8  0EFF               	movlw	255
  4733   0037BA  17E0               	andwf	(___fltol@f1+2)& (0+255),f,b
  4734   0037BC  0E00               	movlw	0
  4735   0037BE  17E1               	andwf	(___fltol@f1+3)& (0+255),f,b
  4736   0037C0                     
  4737                           ; BSR set to: 0
  4738   0037C0  0E96               	movlw	150
  4739   0037C2  5FE3               	subwf	___fltol@exp1& (0+255),f,b
  4740   0037C4                     
  4741                           ; BSR set to: 0
  4742   0037C4  BFE3               	btfsc	___fltol@exp1& (0+255),7,b
  4743   0037C6  EFE9  F01B         	goto	u8250
  4744   0037CA  EFE7  F01B         	goto	u8251
  4745   0037CE                     u8251:
  4746   0037CE  EFFF  F01B         	goto	l8137
  4747   0037D2                     u8250:
  4748   0037D2                     
  4749                           ; BSR set to: 0
  4750   0037D2  51E3               	movf	___fltol@exp1& (0+255),w,b
  4751   0037D4  0A80               	xorlw	128
  4752   0037D6  0F97               	addlw	151
  4753   0037D8  B0D8               	btfsc	status,0,c
  4754   0037DA  EFF1  F01B         	goto	u8261
  4755   0037DE  EFF3  F01B         	goto	u8260
  4756   0037E2                     u8261:
  4757   0037E2  EFF5  F01B         	goto	l8133
  4758   0037E6                     u8260:
  4759   0037E6  EFB6  F01B         	goto	l8113
  4760   0037EA                     l8133:
  4761                           
  4762                           ; BSR set to: 0
  4763   0037EA  90D8               	bcf	status,0,c
  4764   0037EC  33E1               	rrcf	(___fltol@f1+3)& (0+255),f,b
  4765   0037EE  33E0               	rrcf	(___fltol@f1+2)& (0+255),f,b
  4766   0037F0  33DF               	rrcf	(___fltol@f1+1)& (0+255),f,b
  4767   0037F2  33DE               	rrcf	___fltol@f1& (0+255),f,b
  4768   0037F4                     
  4769                           ; BSR set to: 0
  4770   0037F4  3FE3               	incfsz	___fltol@exp1& (0+255),f,b
  4771   0037F6  EFF5  F01B         	goto	l8133
  4772   0037FA  EF17  F01C         	goto	l8147
  4773   0037FE                     l8137:
  4774                           
  4775                           ; BSR set to: 0
  4776   0037FE  0E1F               	movlw	31
  4777   003800  65E3               	cpfsgt	___fltol@exp1& (0+255),b
  4778   003802  EF05  F01C         	goto	u8271
  4779   003806  EF07  F01C         	goto	u8270
  4780   00380A                     u8271:
  4781   00380A  EF0F  F01C         	goto	l8145
  4782   00380E                     u8270:
  4783   00380E  EFB6  F01B         	goto	l8113
  4784   003812                     l8143:
  4785                           
  4786                           ; BSR set to: 0
  4787   003812  90D8               	bcf	status,0,c
  4788   003814  37DE               	rlcf	___fltol@f1& (0+255),f,b
  4789   003816  37DF               	rlcf	(___fltol@f1+1)& (0+255),f,b
  4790   003818  37E0               	rlcf	(___fltol@f1+2)& (0+255),f,b
  4791   00381A  37E1               	rlcf	(___fltol@f1+3)& (0+255),f,b
  4792   00381C  07E3               	decf	___fltol@exp1& (0+255),f,b
  4793   00381E                     l8145:
  4794                           
  4795                           ; BSR set to: 0
  4796   00381E  51E3               	movf	___fltol@exp1& (0+255),w,b
  4797   003820  A4D8               	btfss	status,2,c
  4798   003822  EF15  F01C         	goto	u8281
  4799   003826  EF17  F01C         	goto	u8280
  4800   00382A                     u8281:
  4801   00382A  EF09  F01C         	goto	l8143
  4802   00382E                     u8280:
  4803   00382E                     l8147:
  4804                           
  4805                           ; BSR set to: 0
  4806   00382E  51E2               	movf	___fltol@sign1& (0+255),w,b
  4807   003830  B4D8               	btfsc	status,2,c
  4808   003832  EF1D  F01C         	goto	u8291
  4809   003836  EF1F  F01C         	goto	u8290
  4810   00383A                     u8291:
  4811   00383A  EF27  F01C         	goto	l8151
  4812   00383E                     u8290:
  4813   00383E                     
  4814                           ; BSR set to: 0
  4815   00383E  1FE1               	comf	(___fltol@f1+3)& (0+255),f,b
  4816   003840  1FE0               	comf	(___fltol@f1+2)& (0+255),f,b
  4817   003842  1FDF               	comf	(___fltol@f1+1)& (0+255),f,b
  4818   003844  6DDE               	negf	___fltol@f1& (0+255),b
  4819   003846  0E00               	movlw	0
  4820   003848  23DF               	addwfc	(___fltol@f1+1)& (0+255),f,b
  4821   00384A  23E0               	addwfc	(___fltol@f1+2)& (0+255),f,b
  4822   00384C  23E1               	addwfc	(___fltol@f1+3)& (0+255),f,b
  4823   00384E                     l8151:
  4824                           
  4825                           ; BSR set to: 0
  4826   00384E  C0DE  F0DE         	movff	___fltol@f1,?___fltol
  4827   003852  C0DF  F0DF         	movff	___fltol@f1+1,?___fltol+1
  4828   003856  C0E0  F0E0         	movff	___fltol@f1+2,?___fltol+2
  4829   00385A  C0E1  F0E1         	movff	___fltol@f1+3,?___fltol+3
  4830   00385E                     l1410:
  4831                           
  4832                           ; BSR set to: 0
  4833   00385E  0012               	return		;funcret
  4834   003860                     __end_of___fltol:
  4835                           	callstack 0
  4836                           
  4837 ;; *************** function ___flmul *****************
  4838 ;; Defined at:
  4839 ;;		line 8 in file "D:\Program Files\Microchip\xc8\v2.45\pic\sources\c99\common\sprcmul.c"
  4840 ;; Parameters:    Size  Location     Type
  4841 ;;  b               4   69[BANK0 ] long 
  4842 ;;  a               4   73[BANK0 ] long 
  4843 ;; Auto vars:     Size  Location     Type
  4844 ;;  prod            4   88[BANK0 ] struct .
  4845 ;;  grs             4   83[BANK0 ] unsigned long 
  4846 ;;  temp            2   92[BANK0 ] struct .
  4847 ;;  bexp            1   87[BANK0 ] unsigned char 
  4848 ;;  aexp            1   82[BANK0 ] unsigned char 
  4849 ;;  sign            1   81[BANK0 ] unsigned char 
  4850 ;; Return value:  Size  Location     Type
  4851 ;;                  4   69[BANK0 ] unsigned char 
  4852 ;; Registers used:
  4853 ;;		wreg, status,2, status,0, prodl, prodh
  4854 ;; Tracked objects:
  4855 ;;		On entry : 0/0
  4856 ;;		On exit  : 0/0
  4857 ;;		Unchanged: 0/0
  4858 ;; Data sizes:     COMRAM   BANK0   BANK1   BANK2   BANK3   BANK4   BANK5   BANK6   BANK7   BANK8   BANK9  BANK10  BANK1
      +1  BANK12  BANK13  BANK14  BANK15
  4859 ;;      Params:         0       8       0       0       0       0       0       0       0       0       0       0       
      +0       0       0       0       0
  4860 ;;      Locals:         0      13       0       0       0       0       0       0       0       0       0       0       
      +0       0       0       0       0
  4861 ;;      Temps:          0       4       0       0       0       0       0       0       0       0       0       0       
      +0       0       0       0       0
  4862 ;;      Totals:         0      25       0       0       0       0       0       0       0       0       0       0       
      +0       0       0       0       0
  4863 ;;Total ram usage:       25 bytes
  4864 ;; Hardware stack levels used: 1
  4865 ;; Hardware stack levels required when called: 9
  4866 ;; This function calls:
  4867 ;;		Nothing
  4868 ;; This function is called by:
  4869 ;;		_CCP_PWM_Set_Duty
  4870 ;;		_CCPx_SET_PWM_MODE
  4871 ;; This function uses a non-reentrant model
  4872 ;;
  4873                           
  4874                           	psect	text26
  4875   0014DE                     __ptext26:
  4876                           	callstack 0
  4877   0014DE                     ___flmul:
  4878                           	callstack 18
  4879   0014DE  0100               	movlb	0	; () banked
  4880   0014E0  51C8               	movf	(___flmul@b+3)& (0+255),w,b
  4881   0014E2  0B80               	andlw	128
  4882   0014E4  6FD1               	movwf	___flmul@sign& (0+255),b
  4883   0014E6  51C8               	movf	(___flmul@b+3)& (0+255),w,b
  4884   0014E8  25C8               	addwf	(___flmul@b+3)& (0+255),w,b
  4885   0014EA  6FD7               	movwf	___flmul@bexp& (0+255),b
  4886   0014EC                     
  4887                           ; BSR set to: 0
  4888   0014EC  AFC7               	btfss	(___flmul@b+2)& (0+255),7,b
  4889   0014EE  EF7B  F00A         	goto	u8041
  4890   0014F2  EF7D  F00A         	goto	u8040
  4891   0014F6                     u8041:
  4892   0014F6  EF7E  F00A         	goto	l7987
  4893   0014FA                     u8040:
  4894   0014FA                     
  4895                           ; BSR set to: 0
  4896   0014FA  81D7               	bsf	___flmul@bexp& (0+255),0,b
  4897   0014FC                     l7987:
  4898                           
  4899                           ; BSR set to: 0
  4900   0014FC  51D7               	movf	___flmul@bexp& (0+255),w,b
  4901   0014FE  B4D8               	btfsc	status,2,c
  4902   001500  EF84  F00A         	goto	u8051
  4903   001504  EF86  F00A         	goto	u8050
  4904   001508                     u8051:
  4905   001508  EF99  F00A         	goto	l7995
  4906   00150C                     u8050:
  4907   00150C                     
  4908                           ; BSR set to: 0
  4909   00150C  29D7               	incf	___flmul@bexp& (0+255),w,b
  4910   00150E  A4D8               	btfss	status,2,c
  4911   001510  EF8C  F00A         	goto	u8061
  4912   001514  EF8E  F00A         	goto	u8060
  4913   001518                     u8061:
  4914   001518  EF96  F00A         	goto	l7993
  4915   00151C                     u8060:
  4916   00151C                     
  4917                           ; BSR set to: 0
  4918   00151C  0E00               	movlw	0
  4919   00151E  6FC5               	movwf	___flmul@b& (0+255),b
  4920   001520  0E00               	movlw	0
  4921   001522  6FC6               	movwf	(___flmul@b+1)& (0+255),b
  4922   001524  0E00               	movlw	0
  4923   001526  6FC7               	movwf	(___flmul@b+2)& (0+255),b
  4924   001528  0E00               	movlw	0
  4925   00152A  6FC8               	movwf	(___flmul@b+3)& (0+255),b
  4926   00152C                     l7993:
  4927                           
  4928                           ; BSR set to: 0
  4929   00152C  8FC7               	bsf	(___flmul@b+2)& (0+255),7,b
  4930   00152E  EFA1  F00A         	goto	l7997
  4931   001532                     l7995:
  4932                           
  4933                           ; BSR set to: 0
  4934   001532  0E00               	movlw	0
  4935   001534  6FC5               	movwf	___flmul@b& (0+255),b
  4936   001536  0E00               	movlw	0
  4937   001538  6FC6               	movwf	(___flmul@b+1)& (0+255),b
  4938   00153A  0E00               	movlw	0
  4939   00153C  6FC7               	movwf	(___flmul@b+2)& (0+255),b
  4940   00153E  0E00               	movlw	0
  4941   001540  6FC8               	movwf	(___flmul@b+3)& (0+255),b
  4942   001542                     l7997:
  4943                           
  4944                           ; BSR set to: 0
  4945   001542  51CC               	movf	(___flmul@a+3)& (0+255),w,b
  4946   001544  0B80               	andlw	128
  4947   001546  1BD1               	xorwf	___flmul@sign& (0+255),f,b
  4948   001548                     
  4949                           ; BSR set to: 0
  4950   001548  51CC               	movf	(___flmul@a+3)& (0+255),w,b
  4951   00154A  25CC               	addwf	(___flmul@a+3)& (0+255),w,b
  4952   00154C  6FD2               	movwf	___flmul@aexp& (0+255),b
  4953   00154E                     
  4954                           ; BSR set to: 0
  4955   00154E  AFCB               	btfss	(___flmul@a+2)& (0+255),7,b
  4956   001550  EFAC  F00A         	goto	u8071
  4957   001554  EFAE  F00A         	goto	u8070
  4958   001558                     u8071:
  4959   001558  EFAF  F00A         	goto	l8005
  4960   00155C                     u8070:
  4961   00155C                     
  4962                           ; BSR set to: 0
  4963   00155C  81D2               	bsf	___flmul@aexp& (0+255),0,b
  4964   00155E                     l8005:
  4965                           
  4966                           ; BSR set to: 0
  4967   00155E  51D2               	movf	___flmul@aexp& (0+255),w,b
  4968   001560  B4D8               	btfsc	status,2,c
  4969   001562  EFB5  F00A         	goto	u8081
  4970   001566  EFB7  F00A         	goto	u8080
  4971   00156A                     u8081:
  4972   00156A  EFCA  F00A         	goto	l8013
  4973   00156E                     u8080:
  4974   00156E                     
  4975                           ; BSR set to: 0
  4976   00156E  29D2               	incf	___flmul@aexp& (0+255),w,b
  4977   001570  A4D8               	btfss	status,2,c
  4978   001572  EFBD  F00A         	goto	u8091
  4979   001576  EFBF  F00A         	goto	u8090
  4980   00157A                     u8091:
  4981   00157A  EFC7  F00A         	goto	l8011
  4982   00157E                     u8090:
  4983   00157E                     
  4984                           ; BSR set to: 0
  4985   00157E  0E00               	movlw	0
  4986   001580  6FC9               	movwf	___flmul@a& (0+255),b
  4987   001582  0E00               	movlw	0
  4988   001584  6FCA               	movwf	(___flmul@a+1)& (0+255),b
  4989   001586  0E00               	movlw	0
  4990   001588  6FCB               	movwf	(___flmul@a+2)& (0+255),b
  4991   00158A  0E00               	movlw	0
  4992   00158C  6FCC               	movwf	(___flmul@a+3)& (0+255),b
  4993   00158E                     l8011:
  4994                           
  4995                           ; BSR set to: 0
  4996   00158E  8FCB               	bsf	(___flmul@a+2)& (0+255),7,b
  4997   001590  EFD2  F00A         	goto	l1727
  4998   001594                     l8013:
  4999                           
  5000                           ; BSR set to: 0
  5001   001594  0E00               	movlw	0
  5002   001596  6FC9               	movwf	___flmul@a& (0+255),b
  5003   001598  0E00               	movlw	0
  5004   00159A  6FCA               	movwf	(___flmul@a+1)& (0+255),b
  5005   00159C  0E00               	movlw	0
  5006   00159E  6FCB               	movwf	(___flmul@a+2)& (0+255),b
  5007   0015A0  0E00               	movlw	0
  5008   0015A2  6FCC               	movwf	(___flmul@a+3)& (0+255),b
  5009   0015A4                     l1727:
  5010                           
  5011                           ; BSR set to: 0
  5012   0015A4  51D2               	movf	___flmul@aexp& (0+255),w,b
  5013   0015A6  B4D8               	btfsc	status,2,c
  5014   0015A8  EFD8  F00A         	goto	u8101
  5015   0015AC  EFDA  F00A         	goto	u8100
  5016   0015B0                     u8101:
  5017   0015B0  EFE2  F00A         	goto	l8017
  5018   0015B4                     u8100:
  5019   0015B4                     
  5020                           ; BSR set to: 0
  5021   0015B4  51D7               	movf	___flmul@bexp& (0+255),w,b
  5022   0015B6  A4D8               	btfss	status,2,c
  5023   0015B8  EFE0  F00A         	goto	u8111
  5024   0015BC  EFE2  F00A         	goto	u8110
  5025   0015C0                     u8111:
  5026   0015C0  EFEC  F00A         	goto	l8021
  5027   0015C4                     u8110:
  5028   0015C4                     l8017:
  5029                           
  5030                           ; BSR set to: 0
  5031   0015C4  0E00               	movlw	0
  5032   0015C6  6FC5               	movwf	?___flmul& (0+255),b
  5033   0015C8  0E00               	movlw	0
  5034   0015CA  6FC6               	movwf	(?___flmul+1)& (0+255),b
  5035   0015CC  0E00               	movlw	0
  5036   0015CE  6FC7               	movwf	(?___flmul+2)& (0+255),b
  5037   0015D0  0E00               	movlw	0
  5038   0015D2  6FC8               	movwf	(?___flmul+3)& (0+255),b
  5039   0015D4  EF84  F00C         	goto	l1731
  5040   0015D8                     l8021:
  5041                           
  5042                           ; BSR set to: 0
  5043   0015D8  51CB               	movf	(___flmul@a+2)& (0+255),w,b
  5044   0015DA  03C5               	mulwf	___flmul@b& (0+255),b
  5045   0015DC  CFF3 F0DC          	movff	prodl,___flmul@temp
  5046   0015E0  CFF4 F0DD          	movff	prodh,___flmul@temp+1
  5047   0015E4                     
  5048                           ; BSR set to: 0
  5049   0015E4  51DC               	movf	___flmul@temp& (0+255),w,b
  5050   0015E6  6FD3               	movwf	___flmul@grs& (0+255),b
  5051   0015E8  6BD4               	clrf	(___flmul@grs+1)& (0+255),b
  5052   0015EA  6BD5               	clrf	(___flmul@grs+2)& (0+255),b
  5053   0015EC  6BD6               	clrf	(___flmul@grs+3)& (0+255),b
  5054   0015EE                     
  5055                           ; BSR set to: 0
  5056   0015EE  51DD               	movf	(___flmul@temp+1)& (0+255),w,b
  5057   0015F0  6FD8               	movwf	___flmul@prod& (0+255),b
  5058   0015F2  6BD9               	clrf	(___flmul@prod+1)& (0+255),b
  5059   0015F4  6BDA               	clrf	(___flmul@prod+2)& (0+255),b
  5060   0015F6  6BDB               	clrf	(___flmul@prod+3)& (0+255),b
  5061   0015F8  51CA               	movf	(___flmul@a+1)& (0+255),w,b
  5062   0015FA  03C6               	mulwf	(___flmul@b+1)& (0+255),b
  5063   0015FC  CFF3 F0DC          	movff	prodl,___flmul@temp
  5064   001600  CFF4 F0DD          	movff	prodh,___flmul@temp+1
  5065   001604                     
  5066                           ; BSR set to: 0
  5067   001604  51DC               	movf	___flmul@temp& (0+255),w,b
  5068   001606  27D3               	addwf	___flmul@grs& (0+255),f,b
  5069   001608  0E00               	movlw	0
  5070   00160A  23D4               	addwfc	(___flmul@grs+1)& (0+255),f,b
  5071   00160C  23D5               	addwfc	(___flmul@grs+2)& (0+255),f,b
  5072   00160E  23D6               	addwfc	(___flmul@grs+3)& (0+255),f,b
  5073   001610                     
  5074                           ; BSR set to: 0
  5075   001610  51DD               	movf	(___flmul@temp+1)& (0+255),w,b
  5076   001612  27D8               	addwf	___flmul@prod& (0+255),f,b
  5077   001614  0E00               	movlw	0
  5078   001616  23D9               	addwfc	(___flmul@prod+1)& (0+255),f,b
  5079   001618  23DA               	addwfc	(___flmul@prod+2)& (0+255),f,b
  5080   00161A  23DB               	addwfc	(___flmul@prod+3)& (0+255),f,b
  5081   00161C  51C9               	movf	___flmul@a& (0+255),w,b
  5082   00161E  03C7               	mulwf	(___flmul@b+2)& (0+255),b
  5083   001620  CFF3 F0DC          	movff	prodl,___flmul@temp
  5084   001624  CFF4 F0DD          	movff	prodh,___flmul@temp+1
  5085   001628                     
  5086                           ; BSR set to: 0
  5087   001628  51DC               	movf	___flmul@temp& (0+255),w,b
  5088   00162A  27D3               	addwf	___flmul@grs& (0+255),f,b
  5089   00162C  0E00               	movlw	0
  5090   00162E  23D4               	addwfc	(___flmul@grs+1)& (0+255),f,b
  5091   001630  23D5               	addwfc	(___flmul@grs+2)& (0+255),f,b
  5092   001632  23D6               	addwfc	(___flmul@grs+3)& (0+255),f,b
  5093   001634                     
  5094                           ; BSR set to: 0
  5095   001634  51DD               	movf	(___flmul@temp+1)& (0+255),w,b
  5096   001636  27D8               	addwf	___flmul@prod& (0+255),f,b
  5097   001638  0E00               	movlw	0
  5098   00163A  23D9               	addwfc	(___flmul@prod+1)& (0+255),f,b
  5099   00163C  23DA               	addwfc	(___flmul@prod+2)& (0+255),f,b
  5100   00163E  23DB               	addwfc	(___flmul@prod+3)& (0+255),f,b
  5101   001640                     
  5102                           ; BSR set to: 0
  5103   001640  C0D5  F0D6         	movff	___flmul@grs+2,___flmul@grs+3
  5104   001644  C0D4  F0D5         	movff	___flmul@grs+1,___flmul@grs+2
  5105   001648  C0D3  F0D4         	movff	___flmul@grs,___flmul@grs+1
  5106   00164C  6BD3               	clrf	___flmul@grs& (0+255),b
  5107   00164E                     
  5108                           ; BSR set to: 0
  5109   00164E  51C9               	movf	___flmul@a& (0+255),w,b
  5110   001650  03C6               	mulwf	(___flmul@b+1)& (0+255),b
  5111   001652  CFF3 F0DC          	movff	prodl,___flmul@temp
  5112   001656  CFF4 F0DD          	movff	prodh,___flmul@temp+1
  5113   00165A                     
  5114                           ; BSR set to: 0
  5115   00165A  51DC               	movf	___flmul@temp& (0+255),w,b
  5116   00165C  27D3               	addwf	___flmul@grs& (0+255),f,b
  5117   00165E  51DD               	movf	(___flmul@temp+1)& (0+255),w,b
  5118   001660  23D4               	addwfc	(___flmul@grs+1)& (0+255),f,b
  5119   001662  0E00               	movlw	0
  5120   001664  23D5               	addwfc	(___flmul@grs+2)& (0+255),f,b
  5121   001666  0E00               	movlw	0
  5122   001668  23D6               	addwfc	(___flmul@grs+3)& (0+255),f,b
  5123   00166A                     
  5124                           ; BSR set to: 0
  5125   00166A  51CA               	movf	(___flmul@a+1)& (0+255),w,b
  5126   00166C  03C5               	mulwf	___flmul@b& (0+255),b
  5127   00166E  CFF3 F0DC          	movff	prodl,___flmul@temp
  5128   001672  CFF4 F0DD          	movff	prodh,___flmul@temp+1
  5129   001676                     
  5130                           ; BSR set to: 0
  5131   001676  51DC               	movf	___flmul@temp& (0+255),w,b
  5132   001678  27D3               	addwf	___flmul@grs& (0+255),f,b
  5133   00167A  51DD               	movf	(___flmul@temp+1)& (0+255),w,b
  5134   00167C  23D4               	addwfc	(___flmul@grs+1)& (0+255),f,b
  5135   00167E  0E00               	movlw	0
  5136   001680  23D5               	addwfc	(___flmul@grs+2)& (0+255),f,b
  5137   001682  0E00               	movlw	0
  5138   001684  23D6               	addwfc	(___flmul@grs+3)& (0+255),f,b
  5139   001686                     
  5140                           ; BSR set to: 0
  5141   001686  C0D5  F0D6         	movff	___flmul@grs+2,___flmul@grs+3
  5142   00168A  C0D4  F0D5         	movff	___flmul@grs+1,___flmul@grs+2
  5143   00168E  C0D3  F0D4         	movff	___flmul@grs,___flmul@grs+1
  5144   001692  6BD3               	clrf	___flmul@grs& (0+255),b
  5145   001694  51C9               	movf	___flmul@a& (0+255),w,b
  5146   001696  03C5               	mulwf	___flmul@b& (0+255),b
  5147   001698  CFF3 F0DC          	movff	prodl,___flmul@temp
  5148   00169C  CFF4 F0DD          	movff	prodh,___flmul@temp+1
  5149   0016A0                     
  5150                           ; BSR set to: 0
  5151   0016A0  51DC               	movf	___flmul@temp& (0+255),w,b
  5152   0016A2  27D3               	addwf	___flmul@grs& (0+255),f,b
  5153   0016A4  51DD               	movf	(___flmul@temp+1)& (0+255),w,b
  5154   0016A6  23D4               	addwfc	(___flmul@grs+1)& (0+255),f,b
  5155   0016A8  0E00               	movlw	0
  5156   0016AA  23D5               	addwfc	(___flmul@grs+2)& (0+255),f,b
  5157   0016AC  0E00               	movlw	0
  5158   0016AE  23D6               	addwfc	(___flmul@grs+3)& (0+255),f,b
  5159   0016B0                     
  5160                           ; BSR set to: 0
  5161   0016B0  51CB               	movf	(___flmul@a+2)& (0+255),w,b
  5162   0016B2  03C6               	mulwf	(___flmul@b+1)& (0+255),b
  5163   0016B4  CFF3 F0DC          	movff	prodl,___flmul@temp
  5164   0016B8  CFF4 F0DD          	movff	prodh,___flmul@temp+1
  5165   0016BC  51DC               	movf	___flmul@temp& (0+255),w,b
  5166   0016BE  27D8               	addwf	___flmul@prod& (0+255),f,b
  5167   0016C0  51DD               	movf	(___flmul@temp+1)& (0+255),w,b
  5168   0016C2  23D9               	addwfc	(___flmul@prod+1)& (0+255),f,b
  5169   0016C4  0E00               	movlw	0
  5170   0016C6  23DA               	addwfc	(___flmul@prod+2)& (0+255),f,b
  5171   0016C8  0E00               	movlw	0
  5172   0016CA  23DB               	addwfc	(___flmul@prod+3)& (0+255),f,b
  5173   0016CC                     
  5174                           ; BSR set to: 0
  5175   0016CC  51CA               	movf	(___flmul@a+1)& (0+255),w,b
  5176   0016CE  03C7               	mulwf	(___flmul@b+2)& (0+255),b
  5177   0016D0  CFF3 F0DC          	movff	prodl,___flmul@temp
  5178   0016D4  CFF4 F0DD          	movff	prodh,___flmul@temp+1
  5179   0016D8                     
  5180                           ; BSR set to: 0
  5181   0016D8  51DC               	movf	___flmul@temp& (0+255),w,b
  5182   0016DA  27D8               	addwf	___flmul@prod& (0+255),f,b
  5183   0016DC  51DD               	movf	(___flmul@temp+1)& (0+255),w,b
  5184   0016DE  23D9               	addwfc	(___flmul@prod+1)& (0+255),f,b
  5185   0016E0  0E00               	movlw	0
  5186   0016E2  23DA               	addwfc	(___flmul@prod+2)& (0+255),f,b
  5187   0016E4  0E00               	movlw	0
  5188   0016E6  23DB               	addwfc	(___flmul@prod+3)& (0+255),f,b
  5189   0016E8  51CB               	movf	(___flmul@a+2)& (0+255),w,b
  5190   0016EA  03C7               	mulwf	(___flmul@b+2)& (0+255),b
  5191   0016EC  CFF3 F0DC          	movff	prodl,___flmul@temp
  5192   0016F0  CFF4 F0DD          	movff	prodh,___flmul@temp+1
  5193   0016F4                     
  5194                           ; BSR set to: 0
  5195   0016F4  51DC               	movf	___flmul@temp& (0+255),w,b
  5196   0016F6  6FCD               	movwf	??___flmul& (0+255),b
  5197   0016F8  51DD               	movf	(___flmul@temp+1)& (0+255),w,b
  5198   0016FA  6FCE               	movwf	(??___flmul+1)& (0+255),b
  5199   0016FC  6BCF               	clrf	(??___flmul+2)& (0+255),b
  5200   0016FE  6BD0               	clrf	(??___flmul+3)& (0+255),b
  5201   001700  C0CF  F0D0         	movff	??___flmul+2,??___flmul+3
  5202   001704  C0CE  F0CF         	movff	??___flmul+1,??___flmul+2
  5203   001708  C0CD  F0CE         	movff	??___flmul,??___flmul+1
  5204   00170C  6BCD               	clrf	??___flmul& (0+255),b
  5205   00170E  51CD               	movf	??___flmul& (0+255),w,b
  5206   001710  27D8               	addwf	___flmul@prod& (0+255),f,b
  5207   001712  51CE               	movf	(??___flmul+1)& (0+255),w,b
  5208   001714  23D9               	addwfc	(___flmul@prod+1)& (0+255),f,b
  5209   001716  51CF               	movf	(??___flmul+2)& (0+255),w,b
  5210   001718  23DA               	addwfc	(___flmul@prod+2)& (0+255),f,b
  5211   00171A  51D0               	movf	(??___flmul+3)& (0+255),w,b
  5212   00171C  23DB               	addwfc	(___flmul@prod+3)& (0+255),f,b
  5213   00171E                     
  5214                           ; BSR set to: 0
  5215   00171E  C0D3  F0CD         	movff	___flmul@grs,??___flmul
  5216   001722  C0D4  F0CE         	movff	___flmul@grs+1,??___flmul+1
  5217   001726  C0D5  F0CF         	movff	___flmul@grs+2,??___flmul+2
  5218   00172A  C0D6  F0D0         	movff	___flmul@grs+3,??___flmul+3
  5219   00172E  0E19               	movlw	25
  5220   001730  EF9F  F00B         	goto	u8120
  5221   001734                     u8125:
  5222   001734  90D8               	bcf	status,0,c
  5223   001736  33D0               	rrcf	(??___flmul+3)& (0+255),f,b
  5224   001738  33CF               	rrcf	(??___flmul+2)& (0+255),f,b
  5225   00173A  33CE               	rrcf	(??___flmul+1)& (0+255),f,b
  5226   00173C  33CD               	rrcf	??___flmul& (0+255),f,b
  5227   00173E                     u8120:
  5228   00173E  2EE8               	decfsz	wreg,f,c
  5229   001740  EF9A  F00B         	goto	u8125
  5230   001744  51CD               	movf	??___flmul& (0+255),w,b
  5231   001746  27D8               	addwf	___flmul@prod& (0+255),f,b
  5232   001748  51CE               	movf	(??___flmul+1)& (0+255),w,b
  5233   00174A  23D9               	addwfc	(___flmul@prod+1)& (0+255),f,b
  5234   00174C  51CF               	movf	(??___flmul+2)& (0+255),w,b
  5235   00174E  23DA               	addwfc	(___flmul@prod+2)& (0+255),f,b
  5236   001750  51D0               	movf	(??___flmul+3)& (0+255),w,b
  5237   001752  23DB               	addwfc	(___flmul@prod+3)& (0+255),f,b
  5238   001754                     
  5239                           ; BSR set to: 0
  5240   001754  C0D5  F0D6         	movff	___flmul@grs+2,___flmul@grs+3
  5241   001758  C0D4  F0D5         	movff	___flmul@grs+1,___flmul@grs+2
  5242   00175C  C0D3  F0D4         	movff	___flmul@grs,___flmul@grs+1
  5243   001760  6BD3               	clrf	___flmul@grs& (0+255),b
  5244   001762                     
  5245                           ; BSR set to: 0
  5246   001762  51D2               	movf	___flmul@aexp& (0+255),w,b
  5247   001764  C0D7  F0CD         	movff	___flmul@bexp,??___flmul
  5248   001768  6BCE               	clrf	(??___flmul+1)& (0+255),b
  5249   00176A  27CD               	addwf	??___flmul& (0+255),f,b
  5250   00176C  0E00               	movlw	0
  5251   00176E  23CE               	addwfc	(??___flmul+1)& (0+255),f,b
  5252   001770  0E82               	movlw	130
  5253   001772  25CD               	addwf	??___flmul& (0+255),w,b
  5254   001774  6FDC               	movwf	___flmul@temp& (0+255),b
  5255   001776  0EFF               	movlw	255
  5256   001778  21CE               	addwfc	(??___flmul+1)& (0+255),w,b
  5257   00177A  6FDD               	movwf	(___flmul@temp+1)& (0+255),b
  5258   00177C  EFD5  F00B         	goto	l8069
  5259   001780                     l8063:
  5260                           
  5261                           ; BSR set to: 0
  5262   001780  90D8               	bcf	status,0,c
  5263   001782  37D8               	rlcf	___flmul@prod& (0+255),f,b
  5264   001784  37D9               	rlcf	(___flmul@prod+1)& (0+255),f,b
  5265   001786  37DA               	rlcf	(___flmul@prod+2)& (0+255),f,b
  5266   001788  37DB               	rlcf	(___flmul@prod+3)& (0+255),f,b
  5267   00178A                     
  5268                           ; BSR set to: 0
  5269   00178A  AFD6               	btfss	(___flmul@grs+3)& (0+255),7,b
  5270   00178C  EFCA  F00B         	goto	u8131
  5271   001790  EFCC  F00B         	goto	u8130
  5272   001794                     u8131:
  5273   001794  EFCD  F00B         	goto	l1734
  5274   001798                     u8130:
  5275   001798                     
  5276                           ; BSR set to: 0
  5277   001798  81D8               	bsf	___flmul@prod& (0+255),0,b
  5278   00179A                     l1734:
  5279                           
  5280                           ; BSR set to: 0
  5281   00179A  90D8               	bcf	status,0,c
  5282   00179C  37D3               	rlcf	___flmul@grs& (0+255),f,b
  5283   00179E  37D4               	rlcf	(___flmul@grs+1)& (0+255),f,b
  5284   0017A0  37D5               	rlcf	(___flmul@grs+2)& (0+255),f,b
  5285   0017A2  37D6               	rlcf	(___flmul@grs+3)& (0+255),f,b
  5286   0017A4  07DC               	decf	___flmul@temp& (0+255),f,b
  5287   0017A6  A0D8               	btfss	status,0,c
  5288   0017A8  07DD               	decf	(___flmul@temp+1)& (0+255),f,b
  5289   0017AA                     l8069:
  5290                           
  5291                           ; BSR set to: 0
  5292   0017AA  AFDA               	btfss	(___flmul@prod+2)& (0+255),7,b
  5293   0017AC  EFDA  F00B         	goto	u8141
  5294   0017B0  EFDC  F00B         	goto	u8140
  5295   0017B4                     u8141:
  5296   0017B4  EFC0  F00B         	goto	l8063
  5297   0017B8                     u8140:
  5298   0017B8                     
  5299                           ; BSR set to: 0
  5300   0017B8  0E00               	movlw	0
  5301   0017BA  6FD2               	movwf	___flmul@aexp& (0+255),b
  5302   0017BC                     
  5303                           ; BSR set to: 0
  5304   0017BC  AFD6               	btfss	(___flmul@grs+3)& (0+255),7,b
  5305   0017BE  EFE3  F00B         	goto	u8151
  5306   0017C2  EFE5  F00B         	goto	u8150
  5307   0017C6                     u8151:
  5308   0017C6  EF09  F00C         	goto	l1736
  5309   0017CA                     u8150:
  5310   0017CA                     
  5311                           ; BSR set to: 0
  5312   0017CA  0EFF               	movlw	255
  5313   0017CC  15D3               	andwf	___flmul@grs& (0+255),w,b
  5314   0017CE  6FCD               	movwf	??___flmul& (0+255),b
  5315   0017D0  0EFF               	movlw	255
  5316   0017D2  15D4               	andwf	(___flmul@grs+1)& (0+255),w,b
  5317   0017D4  6FCE               	movwf	(??___flmul+1)& (0+255),b
  5318   0017D6  0EFF               	movlw	255
  5319   0017D8  15D5               	andwf	(___flmul@grs+2)& (0+255),w,b
  5320   0017DA  6FCF               	movwf	(??___flmul+2)& (0+255),b
  5321   0017DC  0E7F               	movlw	127
  5322   0017DE  15D6               	andwf	(___flmul@grs+3)& (0+255),w,b
  5323   0017E0  6FD0               	movwf	(??___flmul+3)& (0+255),b
  5324   0017E2  51CD               	movf	??___flmul& (0+255),w,b
  5325   0017E4  11CE               	iorwf	(??___flmul+1)& (0+255),w,b
  5326   0017E6  11CF               	iorwf	(??___flmul+2)& (0+255),w,b
  5327   0017E8  11D0               	iorwf	(??___flmul+3)& (0+255),w,b
  5328   0017EA  B4D8               	btfsc	status,2,c
  5329   0017EC  EFFA  F00B         	goto	u8161
  5330   0017F0  EFFC  F00B         	goto	u8160
  5331   0017F4                     u8161:
  5332   0017F4  EF00  F00C         	goto	l1737
  5333   0017F8                     u8160:
  5334   0017F8                     l8077:
  5335                           
  5336                           ; BSR set to: 0
  5337   0017F8  0E01               	movlw	1
  5338   0017FA  6FD2               	movwf	___flmul@aexp& (0+255),b
  5339   0017FC  EF09  F00C         	goto	l1736
  5340   001800                     l1737:
  5341                           
  5342                           ; BSR set to: 0
  5343   001800  A1D8               	btfss	___flmul@prod& (0+255),0,b
  5344   001802  EF05  F00C         	goto	u8171
  5345   001806  EF07  F00C         	goto	u8170
  5346   00180A                     u8171:
  5347   00180A  EF09  F00C         	goto	l1736
  5348   00180E                     u8170:
  5349   00180E  EFFC  F00B         	goto	l8077
  5350   001812                     l1736:
  5351                           
  5352                           ; BSR set to: 0
  5353   001812  51D2               	movf	___flmul@aexp& (0+255),w,b
  5354   001814  B4D8               	btfsc	status,2,c
  5355   001816  EF0F  F00C         	goto	u8181
  5356   00181A  EF11  F00C         	goto	u8180
  5357   00181E                     u8181:
  5358   00181E  EF35  F00C         	goto	l8089
  5359   001822                     u8180:
  5360   001822                     
  5361                           ; BSR set to: 0
  5362   001822  0E01               	movlw	1
  5363   001824  27D8               	addwf	___flmul@prod& (0+255),f,b
  5364   001826  0E00               	movlw	0
  5365   001828  23D9               	addwfc	(___flmul@prod+1)& (0+255),f,b
  5366   00182A  23DA               	addwfc	(___flmul@prod+2)& (0+255),f,b
  5367   00182C  23DB               	addwfc	(___flmul@prod+3)& (0+255),f,b
  5368   00182E                     
  5369                           ; BSR set to: 0
  5370   00182E  A1DB               	btfss	(___flmul@prod+3)& (0+255),0,b
  5371   001830  EF1C  F00C         	goto	u8191
  5372   001834  EF1E  F00C         	goto	u8190
  5373   001838                     u8191:
  5374   001838  EF35  F00C         	goto	l8089
  5375   00183C                     u8190:
  5376   00183C                     
  5377                           ; BSR set to: 0
  5378   00183C  C0D8  F0CD         	movff	___flmul@prod,??___flmul
  5379   001840  C0D9  F0CE         	movff	___flmul@prod+1,??___flmul+1
  5380   001844  C0DA  F0CF         	movff	___flmul@prod+2,??___flmul+2
  5381   001848  C0DB  F0D0         	movff	___flmul@prod+3,??___flmul+3
  5382   00184C  35D0               	rlcf	(??___flmul+3)& (0+255),w,b
  5383   00184E  33D0               	rrcf	(??___flmul+3)& (0+255),f,b
  5384   001850  33CF               	rrcf	(??___flmul+2)& (0+255),f,b
  5385   001852  33CE               	rrcf	(??___flmul+1)& (0+255),f,b
  5386   001854  33CD               	rrcf	??___flmul& (0+255),f,b
  5387   001856  C0CD  F0D8         	movff	??___flmul,___flmul@prod
  5388   00185A  C0CE  F0D9         	movff	??___flmul+1,___flmul@prod+1
  5389   00185E  C0CF  F0DA         	movff	??___flmul+2,___flmul@prod+2
  5390   001862  C0D0  F0DB         	movff	??___flmul+3,___flmul@prod+3
  5391   001866                     
  5392                           ; BSR set to: 0
  5393   001866  4BDC               	infsnz	___flmul@temp& (0+255),f,b
  5394   001868  2BDD               	incf	(___flmul@temp+1)& (0+255),f,b
  5395   00186A                     l8089:
  5396                           
  5397                           ; BSR set to: 0
  5398   00186A  BFDD               	btfsc	(___flmul@temp+1)& (0+255),7,b
  5399   00186C  EF40  F00C         	goto	u8201
  5400   001870  51DD               	movf	(___flmul@temp+1)& (0+255),w,b
  5401   001872  E108               	bnz	u8200
  5402   001874  29DC               	incf	___flmul@temp& (0+255),w,b
  5403   001876  A0D8               	btfss	status,0,c
  5404   001878  EF40  F00C         	goto	u8201
  5405   00187C  EF42  F00C         	goto	u8200
  5406   001880                     u8201:
  5407   001880  EF4C  F00C         	goto	l8093
  5408   001884                     u8200:
  5409   001884                     
  5410                           ; BSR set to: 0
  5411   001884  0E00               	movlw	0
  5412   001886  6FD8               	movwf	___flmul@prod& (0+255),b
  5413   001888  0E00               	movlw	0
  5414   00188A  6FD9               	movwf	(___flmul@prod+1)& (0+255),b
  5415   00188C  0E80               	movlw	128
  5416   00188E  6FDA               	movwf	(___flmul@prod+2)& (0+255),b
  5417   001890  0E7F               	movlw	127
  5418   001892  6FDB               	movwf	(___flmul@prod+3)& (0+255),b
  5419   001894  EF7A  F00C         	goto	l8105
  5420   001898                     l8093:
  5421                           
  5422                           ; BSR set to: 0
  5423   001898  BFDD               	btfsc	(___flmul@temp+1)& (0+255),7,b
  5424   00189A  EF59  F00C         	goto	u8210
  5425   00189E  51DD               	movf	(___flmul@temp+1)& (0+255),w,b
  5426   0018A0  E106               	bnz	u8211
  5427   0018A2  05DC               	decf	___flmul@temp& (0+255),w,b
  5428   0018A4  B0D8               	btfsc	status,0,c
  5429   0018A6  EF57  F00C         	goto	u8211
  5430   0018AA  EF59  F00C         	goto	u8210
  5431   0018AE                     u8211:
  5432   0018AE  EF65  F00C         	goto	l1744
  5433   0018B2                     u8210:
  5434   0018B2                     
  5435                           ; BSR set to: 0
  5436   0018B2  0E00               	movlw	0
  5437   0018B4  6FD8               	movwf	___flmul@prod& (0+255),b
  5438   0018B6  0E00               	movlw	0
  5439   0018B8  6FD9               	movwf	(___flmul@prod+1)& (0+255),b
  5440   0018BA  0E00               	movlw	0
  5441   0018BC  6FDA               	movwf	(___flmul@prod+2)& (0+255),b
  5442   0018BE  0E00               	movlw	0
  5443   0018C0  6FDB               	movwf	(___flmul@prod+3)& (0+255),b
  5444   0018C2  0E00               	movlw	0
  5445   0018C4  6FD1               	movwf	___flmul@sign& (0+255),b
  5446   0018C6  EF7A  F00C         	goto	l8105
  5447   0018CA                     l1744:
  5448                           
  5449                           ; BSR set to: 0
  5450   0018CA  C0DC  F0D7         	movff	___flmul@temp,___flmul@bexp
  5451   0018CE                     
  5452                           ; BSR set to: 0
  5453   0018CE  0EFF               	movlw	255
  5454   0018D0  17D8               	andwf	___flmul@prod& (0+255),f,b
  5455   0018D2  0EFF               	movlw	255
  5456   0018D4  17D9               	andwf	(___flmul@prod+1)& (0+255),f,b
  5457   0018D6  0E7F               	movlw	127
  5458   0018D8  17DA               	andwf	(___flmul@prod+2)& (0+255),f,b
  5459   0018DA  0E00               	movlw	0
  5460   0018DC  17DB               	andwf	(___flmul@prod+3)& (0+255),f,b
  5461   0018DE                     
  5462                           ; BSR set to: 0
  5463   0018DE  A1D7               	btfss	___flmul@bexp& (0+255),0,b
  5464   0018E0  EF74  F00C         	goto	u8221
  5465   0018E4  EF76  F00C         	goto	u8220
  5466   0018E8                     u8221:
  5467   0018E8  EF77  F00C         	goto	l8103
  5468   0018EC                     u8220:
  5469   0018EC                     
  5470                           ; BSR set to: 0
  5471   0018EC  8FDA               	bsf	(___flmul@prod+2)& (0+255),7,b
  5472   0018EE                     l8103:
  5473                           
  5474                           ; BSR set to: 0
  5475   0018EE  90D8               	bcf	status,0,c
  5476   0018F0  31D7               	rrcf	___flmul@bexp& (0+255),w,b
  5477   0018F2  6FDB               	movwf	(___flmul@prod+3)& (0+255),b
  5478   0018F4                     l8105:
  5479                           
  5480                           ; BSR set to: 0
  5481   0018F4  51D1               	movf	___flmul@sign& (0+255),w,b
  5482   0018F6  13DB               	iorwf	(___flmul@prod+3)& (0+255),f,b
  5483   0018F8                     
  5484                           ; BSR set to: 0
  5485   0018F8  C0D8  F0C5         	movff	___flmul@prod,?___flmul
  5486   0018FC  C0D9  F0C6         	movff	___flmul@prod+1,?___flmul+1
  5487   001900  C0DA  F0C7         	movff	___flmul@prod+2,?___flmul+2
  5488   001904  C0DB  F0C8         	movff	___flmul@prod+3,?___flmul+3
  5489   001908                     l1731:
  5490                           
  5491                           ; BSR set to: 0
  5492   001908  0012               	return		;funcret
  5493   00190A                     __end_of___flmul:
  5494                           	callstack 0
  5495                           
  5496 ;; *************** function ___fldiv *****************
  5497 ;; Defined at:
  5498 ;;		line 11 in file "D:\Program Files\Microchip\xc8\v2.45\pic\sources\c99\common\sprcdiv.c"
  5499 ;; Parameters:    Size  Location     Type
  5500 ;;  b               4   28[BANK0 ] unsigned char 
  5501 ;;  a               4   32[BANK0 ] unsigned char 
  5502 ;; Auto vars:     Size  Location     Type
  5503 ;;  grs             4   47[BANK0 ] unsigned long 
  5504 ;;  rem             4   40[BANK0 ] unsigned long 
  5505 ;;  new_exp         2   45[BANK0 ] short 
  5506 ;;  aexp            1   52[BANK0 ] unsigned char 
  5507 ;;  bexp            1   51[BANK0 ] unsigned char 
  5508 ;;  sign            1   44[BANK0 ] unsigned char 
  5509 ;; Return value:  Size  Location     Type
  5510 ;;                  4   28[BANK0 ] unsigned char 
  5511 ;; Registers used:
  5512 ;;		wreg, status,2, status,0
  5513 ;; Tracked objects:
  5514 ;;		On entry : 0/0
  5515 ;;		On exit  : 0/0
  5516 ;;		Unchanged: 0/0
  5517 ;; Data sizes:     COMRAM   BANK0   BANK1   BANK2   BANK3   BANK4   BANK5   BANK6   BANK7   BANK8   BANK9  BANK10  BANK1
      +1  BANK12  BANK13  BANK14  BANK15
  5518 ;;      Params:         0       8       0       0       0       0       0       0       0       0       0       0       
      +0       0       0       0       0
  5519 ;;      Locals:         0      13       0       0       0       0       0       0       0       0       0       0       
      +0       0       0       0       0
  5520 ;;      Temps:          0       4       0       0       0       0       0       0       0       0       0       0       
      +0       0       0       0       0
  5521 ;;      Totals:         0      25       0       0       0       0       0       0       0       0       0       0       
      +0       0       0       0       0
  5522 ;;Total ram usage:       25 bytes
  5523 ;; Hardware stack levels used: 1
  5524 ;; Hardware stack levels required when called: 9
  5525 ;; This function calls:
  5526 ;;		Nothing
  5527 ;; This function is called by:
  5528 ;;		_CCP_PWM_Set_Duty
  5529 ;;		_CCPx_SET_PWM_MODE
  5530 ;; This function uses a non-reentrant model
  5531 ;;
  5532                           
  5533                           	psect	text27
  5534   001D34                     __ptext27:
  5535                           	callstack 0
  5536   001D34                     ___fldiv:
  5537                           	callstack 18
  5538   001D34  0100               	movlb	0	; () banked
  5539   001D36  519F               	movf	(___fldiv@b+3)& (0+255),w,b
  5540   001D38  0B80               	andlw	128
  5541   001D3A  6FAC               	movwf	___fldiv@sign& (0+255),b
  5542   001D3C  519F               	movf	(___fldiv@b+3)& (0+255),w,b
  5543   001D3E  259F               	addwf	(___fldiv@b+3)& (0+255),w,b
  5544   001D40  6FB3               	movwf	___fldiv@bexp& (0+255),b
  5545   001D42                     
  5546                           ; BSR set to: 0
  5547   001D42  AF9E               	btfss	(___fldiv@b+2)& (0+255),7,b
  5548   001D44  EFA6  F00E         	goto	u7811
  5549   001D48  EFA8  F00E         	goto	u7810
  5550   001D4C                     u7811:
  5551   001D4C  EFA9  F00E         	goto	l7849
  5552   001D50                     u7810:
  5553   001D50                     
  5554                           ; BSR set to: 0
  5555   001D50  81B3               	bsf	___fldiv@bexp& (0+255),0,b
  5556   001D52                     l7849:
  5557                           
  5558                           ; BSR set to: 0
  5559   001D52  51B3               	movf	___fldiv@bexp& (0+255),w,b
  5560   001D54  B4D8               	btfsc	status,2,c
  5561   001D56  EFAF  F00E         	goto	u7821
  5562   001D5A  EFB1  F00E         	goto	u7820
  5563   001D5E                     u7821:
  5564   001D5E  EFC6  F00E         	goto	l7859
  5565   001D62                     u7820:
  5566   001D62                     
  5567                           ; BSR set to: 0
  5568   001D62  29B3               	incf	___fldiv@bexp& (0+255),w,b
  5569   001D64  A4D8               	btfss	status,2,c
  5570   001D66  EFB7  F00E         	goto	u7831
  5571   001D6A  EFB9  F00E         	goto	u7830
  5572   001D6E                     u7831:
  5573   001D6E  EFC1  F00E         	goto	l7855
  5574   001D72                     u7830:
  5575   001D72                     
  5576                           ; BSR set to: 0
  5577   001D72  0E00               	movlw	0
  5578   001D74  6F9C               	movwf	___fldiv@b& (0+255),b
  5579   001D76  0E00               	movlw	0
  5580   001D78  6F9D               	movwf	(___fldiv@b+1)& (0+255),b
  5581   001D7A  0E00               	movlw	0
  5582   001D7C  6F9E               	movwf	(___fldiv@b+2)& (0+255),b
  5583   001D7E  0E00               	movlw	0
  5584   001D80  6F9F               	movwf	(___fldiv@b+3)& (0+255),b
  5585   001D82                     l7855:
  5586                           
  5587                           ; BSR set to: 0
  5588   001D82  8F9E               	bsf	(___fldiv@b+2)& (0+255),7,b
  5589   001D84                     
  5590                           ; BSR set to: 0
  5591   001D84  0E00               	movlw	0
  5592   001D86  6F9F               	movwf	(___fldiv@b+3)& (0+255),b
  5593   001D88  EFCE  F00E         	goto	l7861
  5594   001D8C                     l7859:
  5595                           
  5596                           ; BSR set to: 0
  5597   001D8C  0E00               	movlw	0
  5598   001D8E  6F9C               	movwf	___fldiv@b& (0+255),b
  5599   001D90  0E00               	movlw	0
  5600   001D92  6F9D               	movwf	(___fldiv@b+1)& (0+255),b
  5601   001D94  0E00               	movlw	0
  5602   001D96  6F9E               	movwf	(___fldiv@b+2)& (0+255),b
  5603   001D98  0E00               	movlw	0
  5604   001D9A  6F9F               	movwf	(___fldiv@b+3)& (0+255),b
  5605   001D9C                     l7861:
  5606                           
  5607                           ; BSR set to: 0
  5608   001D9C  51A3               	movf	(___fldiv@a+3)& (0+255),w,b
  5609   001D9E  0B80               	andlw	128
  5610   001DA0  1BAC               	xorwf	___fldiv@sign& (0+255),f,b
  5611   001DA2                     
  5612                           ; BSR set to: 0
  5613   001DA2  51A3               	movf	(___fldiv@a+3)& (0+255),w,b
  5614   001DA4  25A3               	addwf	(___fldiv@a+3)& (0+255),w,b
  5615   001DA6  6FB4               	movwf	___fldiv@aexp& (0+255),b
  5616   001DA8                     
  5617                           ; BSR set to: 0
  5618   001DA8  AFA2               	btfss	(___fldiv@a+2)& (0+255),7,b
  5619   001DAA  EFD9  F00E         	goto	u7841
  5620   001DAE  EFDB  F00E         	goto	u7840
  5621   001DB2                     u7841:
  5622   001DB2  EFDC  F00E         	goto	l7869
  5623   001DB6                     u7840:
  5624   001DB6                     
  5625                           ; BSR set to: 0
  5626   001DB6  81B4               	bsf	___fldiv@aexp& (0+255),0,b
  5627   001DB8                     l7869:
  5628                           
  5629                           ; BSR set to: 0
  5630   001DB8  51B4               	movf	___fldiv@aexp& (0+255),w,b
  5631   001DBA  B4D8               	btfsc	status,2,c
  5632   001DBC  EFE2  F00E         	goto	u7851
  5633   001DC0  EFE4  F00E         	goto	u7850
  5634   001DC4                     u7851:
  5635   001DC4  EFF9  F00E         	goto	l7879
  5636   001DC8                     u7850:
  5637   001DC8                     
  5638                           ; BSR set to: 0
  5639   001DC8  29B4               	incf	___fldiv@aexp& (0+255),w,b
  5640   001DCA  A4D8               	btfss	status,2,c
  5641   001DCC  EFEA  F00E         	goto	u7861
  5642   001DD0  EFEC  F00E         	goto	u7860
  5643   001DD4                     u7861:
  5644   001DD4  EFF4  F00E         	goto	l7875
  5645   001DD8                     u7860:
  5646   001DD8                     
  5647                           ; BSR set to: 0
  5648   001DD8  0E00               	movlw	0
  5649   001DDA  6FA0               	movwf	___fldiv@a& (0+255),b
  5650   001DDC  0E00               	movlw	0
  5651   001DDE  6FA1               	movwf	(___fldiv@a+1)& (0+255),b
  5652   001DE0  0E00               	movlw	0
  5653   001DE2  6FA2               	movwf	(___fldiv@a+2)& (0+255),b
  5654   001DE4  0E00               	movlw	0
  5655   001DE6  6FA3               	movwf	(___fldiv@a+3)& (0+255),b
  5656   001DE8                     l7875:
  5657                           
  5658                           ; BSR set to: 0
  5659   001DE8  8FA2               	bsf	(___fldiv@a+2)& (0+255),7,b
  5660   001DEA                     
  5661                           ; BSR set to: 0
  5662   001DEA  0E00               	movlw	0
  5663   001DEC  6FA3               	movwf	(___fldiv@a+3)& (0+255),b
  5664   001DEE  EF01  F00F         	goto	l7881
  5665   001DF2                     l7879:
  5666                           
  5667                           ; BSR set to: 0
  5668   001DF2  0E00               	movlw	0
  5669   001DF4  6FA0               	movwf	___fldiv@a& (0+255),b
  5670   001DF6  0E00               	movlw	0
  5671   001DF8  6FA1               	movwf	(___fldiv@a+1)& (0+255),b
  5672   001DFA  0E00               	movlw	0
  5673   001DFC  6FA2               	movwf	(___fldiv@a+2)& (0+255),b
  5674   001DFE  0E00               	movlw	0
  5675   001E00  6FA3               	movwf	(___fldiv@a+3)& (0+255),b
  5676   001E02                     l7881:
  5677                           
  5678                           ; BSR set to: 0
  5679   001E02  51A0               	movf	___fldiv@a& (0+255),w,b
  5680   001E04  11A1               	iorwf	(___fldiv@a+1)& (0+255),w,b
  5681   001E06  11A2               	iorwf	(___fldiv@a+2)& (0+255),w,b
  5682   001E08  11A3               	iorwf	(___fldiv@a+3)& (0+255),w,b
  5683   001E0A  A4D8               	btfss	status,2,c
  5684   001E0C  EF0A  F00F         	goto	u7871
  5685   001E10  EF0C  F00F         	goto	u7870
  5686   001E14                     u7871:
  5687   001E14  EF24  F00F         	goto	l7893
  5688   001E18                     u7870:
  5689   001E18                     
  5690                           ; BSR set to: 0
  5691   001E18  0E00               	movlw	0
  5692   001E1A  6F9C               	movwf	___fldiv@b& (0+255),b
  5693   001E1C  0E00               	movlw	0
  5694   001E1E  6F9D               	movwf	(___fldiv@b+1)& (0+255),b
  5695   001E20  0E00               	movlw	0
  5696   001E22  6F9E               	movwf	(___fldiv@b+2)& (0+255),b
  5697   001E24  0E00               	movlw	0
  5698   001E26  6F9F               	movwf	(___fldiv@b+3)& (0+255),b
  5699   001E28                     
  5700                           ; BSR set to: 0
  5701   001E28  0E80               	movlw	128
  5702   001E2A  139E               	iorwf	(___fldiv@b+2)& (0+255),f,b
  5703   001E2C  0E7F               	movlw	127
  5704   001E2E  139F               	iorwf	(___fldiv@b+3)& (0+255),f,b
  5705   001E30                     l7887:
  5706                           
  5707                           ; BSR set to: 0
  5708   001E30  51AC               	movf	___fldiv@sign& (0+255),w,b
  5709   001E32  139F               	iorwf	(___fldiv@b+3)& (0+255),f,b
  5710   001E34                     
  5711                           ; BSR set to: 0
  5712   001E34  C09C  F09C         	movff	___fldiv@b,?___fldiv
  5713   001E38  C09D  F09D         	movff	___fldiv@b+1,?___fldiv+1
  5714   001E3C  C09E  F09E         	movff	___fldiv@b+2,?___fldiv+2
  5715   001E40  C09F  F09F         	movff	___fldiv@b+3,?___fldiv+3
  5716   001E44  EF67  F010         	goto	l1695
  5717   001E48                     l7893:
  5718                           
  5719                           ; BSR set to: 0
  5720   001E48  51B3               	movf	___fldiv@bexp& (0+255),w,b
  5721   001E4A  A4D8               	btfss	status,2,c
  5722   001E4C  EF2A  F00F         	goto	u7881
  5723   001E50  EF2C  F00F         	goto	u7880
  5724   001E54                     u7881:
  5725   001E54  EF36  F00F         	goto	l7901
  5726   001E58                     u7880:
  5727   001E58                     
  5728                           ; BSR set to: 0
  5729   001E58  0E00               	movlw	0
  5730   001E5A  6F9C               	movwf	?___fldiv& (0+255),b
  5731   001E5C  0E00               	movlw	0
  5732   001E5E  6F9D               	movwf	(?___fldiv+1)& (0+255),b
  5733   001E60  0E00               	movlw	0
  5734   001E62  6F9E               	movwf	(?___fldiv+2)& (0+255),b
  5735   001E64  0E00               	movlw	0
  5736   001E66  6F9F               	movwf	(?___fldiv+3)& (0+255),b
  5737   001E68  EF67  F010         	goto	l1695
  5738   001E6C                     l7901:
  5739                           
  5740                           ; BSR set to: 0
  5741   001E6C  51B4               	movf	___fldiv@aexp& (0+255),w,b
  5742   001E6E  C0B3  F0A4         	movff	___fldiv@bexp,??___fldiv
  5743   001E72  6BA5               	clrf	(??___fldiv+1)& (0+255),b
  5744   001E74  5FA4               	subwf	??___fldiv& (0+255),f,b
  5745   001E76  0E00               	movlw	0
  5746   001E78  5BA5               	subwfb	(??___fldiv+1)& (0+255),f,b
  5747   001E7A  0E7F               	movlw	127
  5748   001E7C  25A4               	addwf	??___fldiv& (0+255),w,b
  5749   001E7E  6FAD               	movwf	___fldiv@new_exp& (0+255),b
  5750   001E80  0E00               	movlw	0
  5751   001E82  21A5               	addwfc	(??___fldiv+1)& (0+255),w,b
  5752   001E84  6FAE               	movwf	(___fldiv@new_exp+1)& (0+255),b
  5753   001E86                     
  5754                           ; BSR set to: 0
  5755   001E86  C09C  F0A8         	movff	___fldiv@b,___fldiv@rem
  5756   001E8A  C09D  F0A9         	movff	___fldiv@b+1,___fldiv@rem+1
  5757   001E8E  C09E  F0AA         	movff	___fldiv@b+2,___fldiv@rem+2
  5758   001E92  C09F  F0AB         	movff	___fldiv@b+3,___fldiv@rem+3
  5759   001E96                     
  5760                           ; BSR set to: 0
  5761   001E96  0E00               	movlw	0
  5762   001E98  6F9C               	movwf	___fldiv@b& (0+255),b
  5763   001E9A  0E00               	movlw	0
  5764   001E9C  6F9D               	movwf	(___fldiv@b+1)& (0+255),b
  5765   001E9E  0E00               	movlw	0
  5766   001EA0  6F9E               	movwf	(___fldiv@b+2)& (0+255),b
  5767   001EA2  0E00               	movlw	0
  5768   001EA4  6F9F               	movwf	(___fldiv@b+3)& (0+255),b
  5769   001EA6                     
  5770                           ; BSR set to: 0
  5771   001EA6  0E00               	movlw	0
  5772   001EA8  6FAF               	movwf	___fldiv@grs& (0+255),b
  5773   001EAA  0E00               	movlw	0
  5774   001EAC  6FB0               	movwf	(___fldiv@grs+1)& (0+255),b
  5775   001EAE  0E00               	movlw	0
  5776   001EB0  6FB1               	movwf	(___fldiv@grs+2)& (0+255),b
  5777   001EB2  0E00               	movlw	0
  5778   001EB4  6FB2               	movwf	(___fldiv@grs+3)& (0+255),b
  5779   001EB6                     
  5780                           ; BSR set to: 0
  5781   001EB6  0E00               	movlw	0
  5782   001EB8  6FB4               	movwf	___fldiv@aexp& (0+255),b
  5783   001EBA  EF97  F00F         	goto	l1697
  5784   001EBE                     l7911:
  5785                           
  5786                           ; BSR set to: 0
  5787   001EBE  51B4               	movf	___fldiv@aexp& (0+255),w,b
  5788   001EC0  B4D8               	btfsc	status,2,c
  5789   001EC2  EF65  F00F         	goto	u7891
  5790   001EC6  EF67  F00F         	goto	u7890
  5791   001ECA                     u7891:
  5792   001ECA  EF7E  F00F         	goto	l7919
  5793   001ECE                     u7890:
  5794   001ECE                     
  5795                           ; BSR set to: 0
  5796   001ECE  90D8               	bcf	status,0,c
  5797   001ED0  37A8               	rlcf	___fldiv@rem& (0+255),f,b
  5798   001ED2  37A9               	rlcf	(___fldiv@rem+1)& (0+255),f,b
  5799   001ED4  37AA               	rlcf	(___fldiv@rem+2)& (0+255),f,b
  5800   001ED6  37AB               	rlcf	(___fldiv@rem+3)& (0+255),f,b
  5801   001ED8  90D8               	bcf	status,0,c
  5802   001EDA  379C               	rlcf	___fldiv@b& (0+255),f,b
  5803   001EDC  379D               	rlcf	(___fldiv@b+1)& (0+255),f,b
  5804   001EDE  379E               	rlcf	(___fldiv@b+2)& (0+255),f,b
  5805   001EE0  379F               	rlcf	(___fldiv@b+3)& (0+255),f,b
  5806   001EE2                     
  5807                           ; BSR set to: 0
  5808   001EE2  AFB2               	btfss	(___fldiv@grs+3)& (0+255),7,b
  5809   001EE4  EF76  F00F         	goto	u7901
  5810   001EE8  EF78  F00F         	goto	u7900
  5811   001EEC                     u7901:
  5812   001EEC  EF79  F00F         	goto	l1700
  5813   001EF0                     u7900:
  5814   001EF0                     
  5815                           ; BSR set to: 0
  5816   001EF0  819C               	bsf	___fldiv@b& (0+255),0,b
  5817   001EF2                     l1700:
  5818                           
  5819                           ; BSR set to: 0
  5820   001EF2  90D8               	bcf	status,0,c
  5821   001EF4  37AF               	rlcf	___fldiv@grs& (0+255),f,b
  5822   001EF6  37B0               	rlcf	(___fldiv@grs+1)& (0+255),f,b
  5823   001EF8  37B1               	rlcf	(___fldiv@grs+2)& (0+255),f,b
  5824   001EFA  37B2               	rlcf	(___fldiv@grs+3)& (0+255),f,b
  5825   001EFC                     l7919:
  5826                           
  5827                           ; BSR set to: 0
  5828   001EFC  51A0               	movf	___fldiv@a& (0+255),w,b
  5829   001EFE  5DA8               	subwf	___fldiv@rem& (0+255),w,b
  5830   001F00  51A1               	movf	(___fldiv@a+1)& (0+255),w,b
  5831   001F02  59A9               	subwfb	(___fldiv@rem+1)& (0+255),w,b
  5832   001F04  51A2               	movf	(___fldiv@a+2)& (0+255),w,b
  5833   001F06  59AA               	subwfb	(___fldiv@rem+2)& (0+255),w,b
  5834   001F08  51A3               	movf	(___fldiv@a+3)& (0+255),w,b
  5835   001F0A  59AB               	subwfb	(___fldiv@rem+3)& (0+255),w,b
  5836   001F0C  A0D8               	btfss	status,0,c
  5837   001F0E  EF8B  F00F         	goto	u7911
  5838   001F12  EF8D  F00F         	goto	u7910
  5839   001F16                     u7911:
  5840   001F16  EF96  F00F         	goto	l7925
  5841   001F1A                     u7910:
  5842   001F1A                     
  5843                           ; BSR set to: 0
  5844   001F1A  8DB2               	bsf	(___fldiv@grs+3)& (0+255),6,b
  5845   001F1C                     
  5846                           ; BSR set to: 0
  5847   001F1C  51A0               	movf	___fldiv@a& (0+255),w,b
  5848   001F1E  5FA8               	subwf	___fldiv@rem& (0+255),f,b
  5849   001F20  51A1               	movf	(___fldiv@a+1)& (0+255),w,b
  5850   001F22  5BA9               	subwfb	(___fldiv@rem+1)& (0+255),f,b
  5851   001F24  51A2               	movf	(___fldiv@a+2)& (0+255),w,b
  5852   001F26  5BAA               	subwfb	(___fldiv@rem+2)& (0+255),f,b
  5853   001F28  51A3               	movf	(___fldiv@a+3)& (0+255),w,b
  5854   001F2A  5BAB               	subwfb	(___fldiv@rem+3)& (0+255),f,b
  5855   001F2C                     l7925:
  5856                           
  5857                           ; BSR set to: 0
  5858   001F2C  2BB4               	incf	___fldiv@aexp& (0+255),f,b
  5859   001F2E                     l1697:
  5860                           
  5861                           ; BSR set to: 0
  5862   001F2E  0E19               	movlw	25
  5863   001F30  65B4               	cpfsgt	___fldiv@aexp& (0+255),b
  5864   001F32  EF9D  F00F         	goto	u7921
  5865   001F36  EF9F  F00F         	goto	u7920
  5866   001F3A                     u7921:
  5867   001F3A  EF5F  F00F         	goto	l7911
  5868   001F3E                     u7920:
  5869   001F3E                     
  5870                           ; BSR set to: 0
  5871   001F3E  51A8               	movf	___fldiv@rem& (0+255),w,b
  5872   001F40  11A9               	iorwf	(___fldiv@rem+1)& (0+255),w,b
  5873   001F42  11AA               	iorwf	(___fldiv@rem+2)& (0+255),w,b
  5874   001F44  11AB               	iorwf	(___fldiv@rem+3)& (0+255),w,b
  5875   001F46  B4D8               	btfsc	status,2,c
  5876   001F48  EFA8  F00F         	goto	u7931
  5877   001F4C  EFAA  F00F         	goto	u7930
  5878   001F50                     u7931:
  5879   001F50  EFC2  F00F         	goto	l7937
  5880   001F54                     u7930:
  5881   001F54                     
  5882                           ; BSR set to: 0
  5883   001F54  81AF               	bsf	___fldiv@grs& (0+255),0,b
  5884   001F56  EFC2  F00F         	goto	l7937
  5885   001F5A                     l7931:
  5886                           
  5887                           ; BSR set to: 0
  5888   001F5A  90D8               	bcf	status,0,c
  5889   001F5C  379C               	rlcf	___fldiv@b& (0+255),f,b
  5890   001F5E  379D               	rlcf	(___fldiv@b+1)& (0+255),f,b
  5891   001F60  379E               	rlcf	(___fldiv@b+2)& (0+255),f,b
  5892   001F62  379F               	rlcf	(___fldiv@b+3)& (0+255),f,b
  5893   001F64                     
  5894                           ; BSR set to: 0
  5895   001F64  AFB2               	btfss	(___fldiv@grs+3)& (0+255),7,b
  5896   001F66  EFB7  F00F         	goto	u7941
  5897   001F6A  EFB9  F00F         	goto	u7940
  5898   001F6E                     u7941:
  5899   001F6E  EFBA  F00F         	goto	l1706
  5900   001F72                     u7940:
  5901   001F72                     
  5902                           ; BSR set to: 0
  5903   001F72  819C               	bsf	___fldiv@b& (0+255),0,b
  5904   001F74                     l1706:
  5905                           
  5906                           ; BSR set to: 0
  5907   001F74  90D8               	bcf	status,0,c
  5908   001F76  37AF               	rlcf	___fldiv@grs& (0+255),f,b
  5909   001F78  37B0               	rlcf	(___fldiv@grs+1)& (0+255),f,b
  5910   001F7A  37B1               	rlcf	(___fldiv@grs+2)& (0+255),f,b
  5911   001F7C  37B2               	rlcf	(___fldiv@grs+3)& (0+255),f,b
  5912   001F7E  07AD               	decf	___fldiv@new_exp& (0+255),f,b
  5913   001F80  A0D8               	btfss	status,0,c
  5914   001F82  07AE               	decf	(___fldiv@new_exp+1)& (0+255),f,b
  5915   001F84                     l7937:
  5916                           
  5917                           ; BSR set to: 0
  5918   001F84  AF9E               	btfss	(___fldiv@b+2)& (0+255),7,b
  5919   001F86  EFC7  F00F         	goto	u7951
  5920   001F8A  EFC9  F00F         	goto	u7950
  5921   001F8E                     u7951:
  5922   001F8E  EFAD  F00F         	goto	l7931
  5923   001F92                     u7950:
  5924   001F92                     
  5925                           ; BSR set to: 0
  5926   001F92  0E00               	movlw	0
  5927   001F94  6FB4               	movwf	___fldiv@aexp& (0+255),b
  5928   001F96                     
  5929                           ; BSR set to: 0
  5930   001F96  AFB2               	btfss	(___fldiv@grs+3)& (0+255),7,b
  5931   001F98  EFD0  F00F         	goto	u7961
  5932   001F9C  EFD2  F00F         	goto	u7960
  5933   001FA0                     u7961:
  5934   001FA0  EFF6  F00F         	goto	l1708
  5935   001FA4                     u7960:
  5936   001FA4                     
  5937                           ; BSR set to: 0
  5938   001FA4  0EFF               	movlw	255
  5939   001FA6  15AF               	andwf	___fldiv@grs& (0+255),w,b
  5940   001FA8  6FA4               	movwf	??___fldiv& (0+255),b
  5941   001FAA  0EFF               	movlw	255
  5942   001FAC  15B0               	andwf	(___fldiv@grs+1)& (0+255),w,b
  5943   001FAE  6FA5               	movwf	(??___fldiv+1)& (0+255),b
  5944   001FB0  0EFF               	movlw	255
  5945   001FB2  15B1               	andwf	(___fldiv@grs+2)& (0+255),w,b
  5946   001FB4  6FA6               	movwf	(??___fldiv+2)& (0+255),b
  5947   001FB6  0E7F               	movlw	127
  5948   001FB8  15B2               	andwf	(___fldiv@grs+3)& (0+255),w,b
  5949   001FBA  6FA7               	movwf	(??___fldiv+3)& (0+255),b
  5950   001FBC  51A4               	movf	??___fldiv& (0+255),w,b
  5951   001FBE  11A5               	iorwf	(??___fldiv+1)& (0+255),w,b
  5952   001FC0  11A6               	iorwf	(??___fldiv+2)& (0+255),w,b
  5953   001FC2  11A7               	iorwf	(??___fldiv+3)& (0+255),w,b
  5954   001FC4  B4D8               	btfsc	status,2,c
  5955   001FC6  EFE7  F00F         	goto	u7971
  5956   001FCA  EFE9  F00F         	goto	u7970
  5957   001FCE                     u7971:
  5958   001FCE  EFED  F00F         	goto	l1709
  5959   001FD2                     u7970:
  5960   001FD2                     l7945:
  5961                           
  5962                           ; BSR set to: 0
  5963   001FD2  0E01               	movlw	1
  5964   001FD4  6FB4               	movwf	___fldiv@aexp& (0+255),b
  5965   001FD6  EFF6  F00F         	goto	l1708
  5966   001FDA                     l1709:
  5967                           
  5968                           ; BSR set to: 0
  5969   001FDA  A19C               	btfss	___fldiv@b& (0+255),0,b
  5970   001FDC  EFF2  F00F         	goto	u7981
  5971   001FE0  EFF4  F00F         	goto	u7980
  5972   001FE4                     u7981:
  5973   001FE4  EFF6  F00F         	goto	l1708
  5974   001FE8                     u7980:
  5975   001FE8  EFE9  F00F         	goto	l7945
  5976   001FEC                     l1708:
  5977                           
  5978                           ; BSR set to: 0
  5979   001FEC  51B4               	movf	___fldiv@aexp& (0+255),w,b
  5980   001FEE  B4D8               	btfsc	status,2,c
  5981   001FF0  EFFC  F00F         	goto	u7991
  5982   001FF4  EFFE  F00F         	goto	u7990
  5983   001FF8                     u7991:
  5984   001FF8  EF22  F010         	goto	l7957
  5985   001FFC                     u7990:
  5986   001FFC                     
  5987                           ; BSR set to: 0
  5988   001FFC  0E01               	movlw	1
  5989   001FFE  279C               	addwf	___fldiv@b& (0+255),f,b
  5990   002000  0E00               	movlw	0
  5991   002002  239D               	addwfc	(___fldiv@b+1)& (0+255),f,b
  5992   002004  239E               	addwfc	(___fldiv@b+2)& (0+255),f,b
  5993   002006  239F               	addwfc	(___fldiv@b+3)& (0+255),f,b
  5994   002008                     
  5995                           ; BSR set to: 0
  5996   002008  A19F               	btfss	(___fldiv@b+3)& (0+255),0,b
  5997   00200A  EF09  F010         	goto	u8001
  5998   00200E  EF0B  F010         	goto	u8000
  5999   002012                     u8001:
  6000   002012  EF22  F010         	goto	l7957
  6001   002016                     u8000:
  6002   002016                     
  6003                           ; BSR set to: 0
  6004   002016  C09C  F0A4         	movff	___fldiv@b,??___fldiv
  6005   00201A  C09D  F0A5         	movff	___fldiv@b+1,??___fldiv+1
  6006   00201E  C09E  F0A6         	movff	___fldiv@b+2,??___fldiv+2
  6007   002022  C09F  F0A7         	movff	___fldiv@b+3,??___fldiv+3
  6008   002026  35A7               	rlcf	(??___fldiv+3)& (0+255),w,b
  6009   002028  33A7               	rrcf	(??___fldiv+3)& (0+255),f,b
  6010   00202A  33A6               	rrcf	(??___fldiv+2)& (0+255),f,b
  6011   00202C  33A5               	rrcf	(??___fldiv+1)& (0+255),f,b
  6012   00202E  33A4               	rrcf	??___fldiv& (0+255),f,b
  6013   002030  C0A4  F09C         	movff	??___fldiv,___fldiv@b
  6014   002034  C0A5  F09D         	movff	??___fldiv+1,___fldiv@b+1
  6015   002038  C0A6  F09E         	movff	??___fldiv+2,___fldiv@b+2
  6016   00203C  C0A7  F09F         	movff	??___fldiv+3,___fldiv@b+3
  6017   002040                     
  6018                           ; BSR set to: 0
  6019   002040  4BAD               	infsnz	___fldiv@new_exp& (0+255),f,b
  6020   002042  2BAE               	incf	(___fldiv@new_exp+1)& (0+255),f,b
  6021   002044                     l7957:
  6022                           
  6023                           ; BSR set to: 0
  6024   002044  BFAE               	btfsc	(___fldiv@new_exp+1)& (0+255),7,b
  6025   002046  EF2D  F010         	goto	u8011
  6026   00204A  51AE               	movf	(___fldiv@new_exp+1)& (0+255),w,b
  6027   00204C  E108               	bnz	u8010
  6028   00204E  29AD               	incf	___fldiv@new_exp& (0+255),w,b
  6029   002050  A0D8               	btfss	status,0,c
  6030   002052  EF2D  F010         	goto	u8011
  6031   002056  EF2F  F010         	goto	u8010
  6032   00205A                     u8011:
  6033   00205A  EF3A  F010         	goto	l7961
  6034   00205E                     u8010:
  6035   00205E                     
  6036                           ; BSR set to: 0
  6037   00205E  0E00               	movlw	0
  6038   002060  6FAE               	movwf	(___fldiv@new_exp+1)& (0+255),b
  6039   002062  69AD               	setf	___fldiv@new_exp& (0+255),b
  6040   002064  0E00               	movlw	0
  6041   002066  6F9C               	movwf	___fldiv@b& (0+255),b
  6042   002068  0E00               	movlw	0
  6043   00206A  6F9D               	movwf	(___fldiv@b+1)& (0+255),b
  6044   00206C  0E00               	movlw	0
  6045   00206E  6F9E               	movwf	(___fldiv@b+2)& (0+255),b
  6046   002070  0E00               	movlw	0
  6047   002072  6F9F               	movwf	(___fldiv@b+3)& (0+255),b
  6048   002074                     l7961:
  6049                           
  6050                           ; BSR set to: 0
  6051   002074  BFAE               	btfsc	(___fldiv@new_exp+1)& (0+255),7,b
  6052   002076  EF47  F010         	goto	u8020
  6053   00207A  51AE               	movf	(___fldiv@new_exp+1)& (0+255),w,b
  6054   00207C  E106               	bnz	u8021
  6055   00207E  05AD               	decf	___fldiv@new_exp& (0+255),w,b
  6056   002080  B0D8               	btfsc	status,0,c
  6057   002082  EF45  F010         	goto	u8021
  6058   002086  EF47  F010         	goto	u8020
  6059   00208A                     u8021:
  6060   00208A  EF55  F010         	goto	l7965
  6061   00208E                     u8020:
  6062   00208E                     
  6063                           ; BSR set to: 0
  6064   00208E  0E00               	movlw	0
  6065   002090  6FAE               	movwf	(___fldiv@new_exp+1)& (0+255),b
  6066   002092  0E00               	movlw	0
  6067   002094  6FAD               	movwf	___fldiv@new_exp& (0+255),b
  6068   002096  0E00               	movlw	0
  6069   002098  6F9C               	movwf	___fldiv@b& (0+255),b
  6070   00209A  0E00               	movlw	0
  6071   00209C  6F9D               	movwf	(___fldiv@b+1)& (0+255),b
  6072   00209E  0E00               	movlw	0
  6073   0020A0  6F9E               	movwf	(___fldiv@b+2)& (0+255),b
  6074   0020A2  0E00               	movlw	0
  6075   0020A4  6F9F               	movwf	(___fldiv@b+3)& (0+255),b
  6076   0020A6  0E00               	movlw	0
  6077   0020A8  6FAC               	movwf	___fldiv@sign& (0+255),b
  6078   0020AA                     l7965:
  6079                           
  6080                           ; BSR set to: 0
  6081   0020AA  C0AD  F0B3         	movff	___fldiv@new_exp,___fldiv@bexp
  6082   0020AE                     
  6083                           ; BSR set to: 0
  6084   0020AE  A1B3               	btfss	___fldiv@bexp& (0+255),0,b
  6085   0020B0  EF5C  F010         	goto	u8031
  6086   0020B4  EF5E  F010         	goto	u8030
  6087   0020B8                     u8031:
  6088   0020B8  EF61  F010         	goto	l7971
  6089   0020BC                     u8030:
  6090   0020BC                     
  6091                           ; BSR set to: 0
  6092   0020BC  8F9E               	bsf	(___fldiv@b+2)& (0+255),7,b
  6093   0020BE  EF62  F010         	goto	l7973
  6094   0020C2                     l7971:
  6095                           
  6096                           ; BSR set to: 0
  6097   0020C2  9F9E               	bcf	(___fldiv@b+2)& (0+255),7,b
  6098   0020C4                     l7973:
  6099                           
  6100                           ; BSR set to: 0
  6101   0020C4  90D8               	bcf	status,0,c
  6102   0020C6  31B3               	rrcf	___fldiv@bexp& (0+255),w,b
  6103   0020C8  6F9F               	movwf	(___fldiv@b+3)& (0+255),b
  6104   0020CA  EF18  F00F         	goto	l7887
  6105   0020CE                     l1695:
  6106                           
  6107                           ; BSR set to: 0
  6108   0020CE  0012               	return		;funcret
  6109   0020D0                     __end_of___fldiv:
  6110                           	callstack 0
  6111                           
  6112 ;; *************** function ___fladd *****************
  6113 ;; Defined at:
  6114 ;;		line 10 in file "D:\Program Files\Microchip\xc8\v2.45\pic\sources\c99\common\sprcadd.c"
  6115 ;; Parameters:    Size  Location     Type
  6116 ;;  b               4   53[BANK0 ] unsigned char 
  6117 ;;  a               4   57[BANK0 ] unsigned char 
  6118 ;; Auto vars:     Size  Location     Type
  6119 ;;  grs             1   68[BANK0 ] unsigned char 
  6120 ;;  bexp            1   67[BANK0 ] unsigned char 
  6121 ;;  aexp            1   66[BANK0 ] unsigned char 
  6122 ;;  signs           1   65[BANK0 ] unsigned char 
  6123 ;; Return value:  Size  Location     Type
  6124 ;;                  4   53[BANK0 ] unsigned char 
  6125 ;; Registers used:
  6126 ;;		wreg, status,2, status,0
  6127 ;; Tracked objects:
  6128 ;;		On entry : 0/0
  6129 ;;		On exit  : 0/0
  6130 ;;		Unchanged: 0/0
  6131 ;; Data sizes:     COMRAM   BANK0   BANK1   BANK2   BANK3   BANK4   BANK5   BANK6   BANK7   BANK8   BANK9  BANK10  BANK1
      +1  BANK12  BANK13  BANK14  BANK15
  6132 ;;      Params:         0       8       0       0       0       0       0       0       0       0       0       0       
      +0       0       0       0       0
  6133 ;;      Locals:         0       4       0       0       0       0       0       0       0       0       0       0       
      +0       0       0       0       0
  6134 ;;      Temps:          0       4       0       0       0       0       0       0       0       0       0       0       
      +0       0       0       0       0
  6135 ;;      Totals:         0      16       0       0       0       0       0       0       0       0       0       0       
      +0       0       0       0       0
  6136 ;;Total ram usage:       16 bytes
  6137 ;; Hardware stack levels used: 1
  6138 ;; Hardware stack levels required when called: 9
  6139 ;; This function calls:
  6140 ;;		Nothing
  6141 ;; This function is called by:
  6142 ;;		_CCP_PWM_Set_Duty
  6143 ;;		_CCPx_SET_PWM_MODE
  6144 ;; This function uses a non-reentrant model
  6145 ;;
  6146                           
  6147                           	psect	text28
  6148   00101C                     __ptext28:
  6149                           	callstack 0
  6150   00101C                     ___fladd:
  6151                           	callstack 18
  6152   00101C  0100               	movlb	0	; () banked
  6153   00101E  51B8               	movf	(___fladd@b+3)& (0+255),w,b
  6154   001020  0B80               	andlw	128
  6155   001022  6FC1               	movwf	___fladd@signs& (0+255),b
  6156   001024  51B8               	movf	(___fladd@b+3)& (0+255),w,b
  6157   001026  25B8               	addwf	(___fladd@b+3)& (0+255),w,b
  6158   001028  6FC3               	movwf	___fladd@bexp& (0+255),b
  6159   00102A                     
  6160                           ; BSR set to: 0
  6161   00102A  AFB7               	btfss	(___fladd@b+2)& (0+255),7,b
  6162   00102C  EF1A  F008         	goto	u7421
  6163   001030  EF1C  F008         	goto	u7420
  6164   001034                     u7421:
  6165   001034  EF1D  F008         	goto	l7647
  6166   001038                     u7420:
  6167   001038                     
  6168                           ; BSR set to: 0
  6169   001038  81C3               	bsf	___fladd@bexp& (0+255),0,b
  6170   00103A                     l7647:
  6171                           
  6172                           ; BSR set to: 0
  6173   00103A  51C3               	movf	___fladd@bexp& (0+255),w,b
  6174   00103C  B4D8               	btfsc	status,2,c
  6175   00103E  EF23  F008         	goto	u7431
  6176   001042  EF25  F008         	goto	u7430
  6177   001046                     u7431:
  6178   001046  EF3A  F008         	goto	l7657
  6179   00104A                     u7430:
  6180   00104A                     
  6181                           ; BSR set to: 0
  6182   00104A  29C3               	incf	___fladd@bexp& (0+255),w,b
  6183   00104C  A4D8               	btfss	status,2,c
  6184   00104E  EF2B  F008         	goto	u7441
  6185   001052  EF2D  F008         	goto	u7440
  6186   001056                     u7441:
  6187   001056  EF35  F008         	goto	l7653
  6188   00105A                     u7440:
  6189   00105A                     
  6190                           ; BSR set to: 0
  6191   00105A  0E00               	movlw	0
  6192   00105C  6FB5               	movwf	___fladd@b& (0+255),b
  6193   00105E  0E00               	movlw	0
  6194   001060  6FB6               	movwf	(___fladd@b+1)& (0+255),b
  6195   001062  0E00               	movlw	0
  6196   001064  6FB7               	movwf	(___fladd@b+2)& (0+255),b
  6197   001066  0E00               	movlw	0
  6198   001068  6FB8               	movwf	(___fladd@b+3)& (0+255),b
  6199   00106A                     l7653:
  6200                           
  6201                           ; BSR set to: 0
  6202   00106A  8FB7               	bsf	(___fladd@b+2)& (0+255),7,b
  6203   00106C                     
  6204                           ; BSR set to: 0
  6205   00106C  0E00               	movlw	0
  6206   00106E  6FB8               	movwf	(___fladd@b+3)& (0+255),b
  6207   001070  EF42  F008         	goto	l7659
  6208   001074                     l7657:
  6209                           
  6210                           ; BSR set to: 0
  6211   001074  0E00               	movlw	0
  6212   001076  6FB5               	movwf	___fladd@b& (0+255),b
  6213   001078  0E00               	movlw	0
  6214   00107A  6FB6               	movwf	(___fladd@b+1)& (0+255),b
  6215   00107C  0E00               	movlw	0
  6216   00107E  6FB7               	movwf	(___fladd@b+2)& (0+255),b
  6217   001080  0E00               	movlw	0
  6218   001082  6FB8               	movwf	(___fladd@b+3)& (0+255),b
  6219   001084                     l7659:
  6220                           
  6221                           ; BSR set to: 0
  6222   001084  51BC               	movf	(___fladd@a+3)& (0+255),w,b
  6223   001086  0B80               	andlw	128
  6224   001088  6FC2               	movwf	___fladd@aexp& (0+255),b
  6225   00108A                     
  6226                           ; BSR set to: 0
  6227   00108A  51C1               	movf	___fladd@signs& (0+255),w,b
  6228   00108C  19C2               	xorwf	___fladd@aexp& (0+255),w,b
  6229   00108E  B4D8               	btfsc	status,2,c
  6230   001090  EF4C  F008         	goto	u7451
  6231   001094  EF4E  F008         	goto	u7450
  6232   001098                     u7451:
  6233   001098  EF4F  F008         	goto	l7665
  6234   00109C                     u7450:
  6235   00109C                     
  6236                           ; BSR set to: 0
  6237   00109C  8DC1               	bsf	___fladd@signs& (0+255),6,b
  6238   00109E                     l7665:
  6239                           
  6240                           ; BSR set to: 0
  6241   00109E  51BC               	movf	(___fladd@a+3)& (0+255),w,b
  6242   0010A0  25BC               	addwf	(___fladd@a+3)& (0+255),w,b
  6243   0010A2  6FC2               	movwf	___fladd@aexp& (0+255),b
  6244   0010A4                     
  6245                           ; BSR set to: 0
  6246   0010A4  AFBB               	btfss	(___fladd@a+2)& (0+255),7,b
  6247   0010A6  EF57  F008         	goto	u7461
  6248   0010AA  EF59  F008         	goto	u7460
  6249   0010AE                     u7461:
  6250   0010AE  EF5A  F008         	goto	l7671
  6251   0010B2                     u7460:
  6252   0010B2                     
  6253                           ; BSR set to: 0
  6254   0010B2  81C2               	bsf	___fladd@aexp& (0+255),0,b
  6255   0010B4                     l7671:
  6256                           
  6257                           ; BSR set to: 0
  6258   0010B4  51C2               	movf	___fladd@aexp& (0+255),w,b
  6259   0010B6  B4D8               	btfsc	status,2,c
  6260   0010B8  EF60  F008         	goto	u7471
  6261   0010BC  EF62  F008         	goto	u7470
  6262   0010C0                     u7471:
  6263   0010C0  EF77  F008         	goto	l7681
  6264   0010C4                     u7470:
  6265   0010C4                     
  6266                           ; BSR set to: 0
  6267   0010C4  29C2               	incf	___fladd@aexp& (0+255),w,b
  6268   0010C6  A4D8               	btfss	status,2,c
  6269   0010C8  EF68  F008         	goto	u7481
  6270   0010CC  EF6A  F008         	goto	u7480
  6271   0010D0                     u7481:
  6272   0010D0  EF72  F008         	goto	l7677
  6273   0010D4                     u7480:
  6274   0010D4                     
  6275                           ; BSR set to: 0
  6276   0010D4  0E00               	movlw	0
  6277   0010D6  6FB9               	movwf	___fladd@a& (0+255),b
  6278   0010D8  0E00               	movlw	0
  6279   0010DA  6FBA               	movwf	(___fladd@a+1)& (0+255),b
  6280   0010DC  0E00               	movlw	0
  6281   0010DE  6FBB               	movwf	(___fladd@a+2)& (0+255),b
  6282   0010E0  0E00               	movlw	0
  6283   0010E2  6FBC               	movwf	(___fladd@a+3)& (0+255),b
  6284   0010E4                     l7677:
  6285                           
  6286                           ; BSR set to: 0
  6287   0010E4  8FBB               	bsf	(___fladd@a+2)& (0+255),7,b
  6288   0010E6                     
  6289                           ; BSR set to: 0
  6290   0010E6  0E00               	movlw	0
  6291   0010E8  6FBC               	movwf	(___fladd@a+3)& (0+255),b
  6292   0010EA  EF7F  F008         	goto	l7683
  6293   0010EE                     l7681:
  6294                           
  6295                           ; BSR set to: 0
  6296   0010EE  0E00               	movlw	0
  6297   0010F0  6FB9               	movwf	___fladd@a& (0+255),b
  6298   0010F2  0E00               	movlw	0
  6299   0010F4  6FBA               	movwf	(___fladd@a+1)& (0+255),b
  6300   0010F6  0E00               	movlw	0
  6301   0010F8  6FBB               	movwf	(___fladd@a+2)& (0+255),b
  6302   0010FA  0E00               	movlw	0
  6303   0010FC  6FBC               	movwf	(___fladd@a+3)& (0+255),b
  6304   0010FE                     l7683:
  6305                           
  6306                           ; BSR set to: 0
  6307   0010FE  51C3               	movf	___fladd@bexp& (0+255),w,b
  6308   001100  5DC2               	subwf	___fladd@aexp& (0+255),w,b
  6309   001102  B0D8               	btfsc	status,0,c
  6310   001104  EF86  F008         	goto	u7491
  6311   001108  EF88  F008         	goto	u7490
  6312   00110C                     u7491:
  6313   00110C  EFAF  F008         	goto	l7719
  6314   001110                     u7490:
  6315   001110                     
  6316                           ; BSR set to: 0
  6317   001110  ADC1               	btfss	___fladd@signs& (0+255),6,b
  6318   001112  EF8D  F008         	goto	u7501
  6319   001116  EF8F  F008         	goto	u7500
  6320   00111A                     u7501:
  6321   00111A  EF91  F008         	goto	l7689
  6322   00111E                     u7500:
  6323   00111E                     
  6324                           ; BSR set to: 0
  6325   00111E  0E80               	movlw	128
  6326   001120  1BC1               	xorwf	___fladd@signs& (0+255),f,b
  6327   001122                     l7689:
  6328                           
  6329                           ; BSR set to: 0
  6330   001122  C0C3  F0C4         	movff	___fladd@bexp,___fladd@grs
  6331   001126                     
  6332                           ; BSR set to: 0
  6333   001126  C0C2  F0C3         	movff	___fladd@aexp,___fladd@bexp
  6334   00112A                     
  6335                           ; BSR set to: 0
  6336   00112A  C0C4  F0C2         	movff	___fladd@grs,___fladd@aexp
  6337   00112E                     
  6338                           ; BSR set to: 0
  6339   00112E  C0B5  F0C4         	movff	___fladd@b,___fladd@grs
  6340   001132                     
  6341                           ; BSR set to: 0
  6342   001132  C0B9  F0B5         	movff	___fladd@a,___fladd@b
  6343   001136                     
  6344                           ; BSR set to: 0
  6345   001136  C0C4  F0B9         	movff	___fladd@grs,___fladd@a
  6346   00113A                     
  6347                           ; BSR set to: 0
  6348   00113A  C0B6  F0C4         	movff	___fladd@b+1,___fladd@grs
  6349   00113E                     
  6350                           ; BSR set to: 0
  6351   00113E  C0BA  F0B6         	movff	___fladd@a+1,___fladd@b+1
  6352   001142                     
  6353                           ; BSR set to: 0
  6354   001142  C0C4  F0BA         	movff	___fladd@grs,___fladd@a+1
  6355   001146                     
  6356                           ; BSR set to: 0
  6357   001146  C0B7  F0C4         	movff	___fladd@b+2,___fladd@grs
  6358   00114A                     
  6359                           ; BSR set to: 0
  6360   00114A  C0BB  F0B7         	movff	___fladd@a+2,___fladd@b+2
  6361   00114E                     
  6362                           ; BSR set to: 0
  6363   00114E  C0C4  F0BB         	movff	___fladd@grs,___fladd@a+2
  6364   001152                     
  6365                           ; BSR set to: 0
  6366   001152  C0B8  F0C4         	movff	___fladd@b+3,___fladd@grs
  6367   001156                     
  6368                           ; BSR set to: 0
  6369   001156  C0BC  F0B8         	movff	___fladd@a+3,___fladd@b+3
  6370   00115A                     
  6371                           ; BSR set to: 0
  6372   00115A  C0C4  F0BC         	movff	___fladd@grs,___fladd@a+3
  6373   00115E                     l7719:
  6374                           
  6375                           ; BSR set to: 0
  6376   00115E  0E00               	movlw	0
  6377   001160  6FC4               	movwf	___fladd@grs& (0+255),b
  6378   001162                     
  6379                           ; BSR set to: 0
  6380   001162  51C3               	movf	___fladd@bexp& (0+255),w,b
  6381   001164  C0C2  F0BD         	movff	___fladd@aexp,??___fladd
  6382   001168  6BBE               	clrf	(??___fladd+1)& (0+255),b
  6383   00116A  5FBD               	subwf	??___fladd& (0+255),f,b
  6384   00116C  0E00               	movlw	0
  6385   00116E  5BBE               	subwfb	(??___fladd+1)& (0+255),f,b
  6386   001170  BFBE               	btfsc	(??___fladd+1)& (0+255),7,b
  6387   001172  EFC4  F008         	goto	u7511
  6388   001176  51BE               	movf	(??___fladd+1)& (0+255),w,b
  6389   001178  E109               	bnz	u7510
  6390   00117A  0E1A               	movlw	26
  6391   00117C  5DBD               	subwf	??___fladd& (0+255),w,b
  6392   00117E  A0D8               	btfss	status,0,c
  6393   001180  EFC4  F008         	goto	u7511
  6394   001184  EFC6  F008         	goto	u7510
  6395   001188                     u7511:
  6396   001188  EFFD  F008         	goto	l1642
  6397   00118C                     u7510:
  6398   00118C                     
  6399                           ; BSR set to: 0
  6400   00118C  51B5               	movf	___fladd@b& (0+255),w,b
  6401   00118E  11B6               	iorwf	(___fladd@b+1)& (0+255),w,b
  6402   001190  11B7               	iorwf	(___fladd@b+2)& (0+255),w,b
  6403   001192  11B8               	iorwf	(___fladd@b+3)& (0+255),w,b
  6404   001194  A4D8               	btfss	status,2,c
  6405   001196  EFCF  F008         	goto	u7521
  6406   00119A  EFD2  F008         	goto	u7520
  6407   00119E                     u7521:
  6408   00119E  0E01               	movlw	1
  6409   0011A0  EFD3  F008         	goto	u7530
  6410   0011A4                     u7520:
  6411   0011A4  0E00               	movlw	0
  6412   0011A6                     u7530:
  6413   0011A6  6FC4               	movwf	___fladd@grs& (0+255),b
  6414   0011A8                     
  6415                           ; BSR set to: 0
  6416   0011A8  0E00               	movlw	0
  6417   0011AA  6FB5               	movwf	___fladd@b& (0+255),b
  6418   0011AC  0E00               	movlw	0
  6419   0011AE  6FB6               	movwf	(___fladd@b+1)& (0+255),b
  6420   0011B0  0E00               	movlw	0
  6421   0011B2  6FB7               	movwf	(___fladd@b+2)& (0+255),b
  6422   0011B4  0E00               	movlw	0
  6423   0011B6  6FB8               	movwf	(___fladd@b+3)& (0+255),b
  6424   0011B8                     
  6425                           ; BSR set to: 0
  6426   0011B8  C0C2  F0C3         	movff	___fladd@aexp,___fladd@bexp
  6427   0011BC  EF06  F009         	goto	l1641
  6428   0011C0                     l1643:
  6429                           
  6430                           ; BSR set to: 0
  6431   0011C0  A1C4               	btfss	___fladd@grs& (0+255),0,b
  6432   0011C2  EFE5  F008         	goto	u7541
  6433   0011C6  EFE7  F008         	goto	u7540
  6434   0011CA                     u7541:
  6435   0011CA  EFED  F008         	goto	l7731
  6436   0011CE                     u7540:
  6437   0011CE                     
  6438                           ; BSR set to: 0
  6439   0011CE  90D8               	bcf	status,0,c
  6440   0011D0  31C4               	rrcf	___fladd@grs& (0+255),w,b
  6441   0011D2  0901               	iorlw	1
  6442   0011D4  6FC4               	movwf	___fladd@grs& (0+255),b
  6443   0011D6  EFEF  F008         	goto	l7733
  6444   0011DA                     l7731:
  6445                           
  6446                           ; BSR set to: 0
  6447   0011DA  90D8               	bcf	status,0,c
  6448   0011DC  33C4               	rrcf	___fladd@grs& (0+255),f,b
  6449   0011DE                     l7733:
  6450                           
  6451                           ; BSR set to: 0
  6452   0011DE  A1B5               	btfss	___fladd@b& (0+255),0,b
  6453   0011E0  EFF4  F008         	goto	u7551
  6454   0011E4  EFF6  F008         	goto	u7550
  6455   0011E8                     u7551:
  6456   0011E8  EFF7  F008         	goto	l7737
  6457   0011EC                     u7550:
  6458   0011EC                     
  6459                           ; BSR set to: 0
  6460   0011EC  8FC4               	bsf	___fladd@grs& (0+255),7,b
  6461   0011EE                     l7737:
  6462                           
  6463                           ; BSR set to: 0
  6464   0011EE  35B8               	rlcf	(___fladd@b+3)& (0+255),w,b
  6465   0011F0  33B8               	rrcf	(___fladd@b+3)& (0+255),f,b
  6466   0011F2  33B7               	rrcf	(___fladd@b+2)& (0+255),f,b
  6467   0011F4  33B6               	rrcf	(___fladd@b+1)& (0+255),f,b
  6468   0011F6  33B5               	rrcf	___fladd@b& (0+255),f,b
  6469   0011F8                     
  6470                           ; BSR set to: 0
  6471   0011F8  2BC3               	incf	___fladd@bexp& (0+255),f,b
  6472   0011FA                     l1642:
  6473                           
  6474                           ; BSR set to: 0
  6475   0011FA  51C2               	movf	___fladd@aexp& (0+255),w,b
  6476   0011FC  5DC3               	subwf	___fladd@bexp& (0+255),w,b
  6477   0011FE  A0D8               	btfss	status,0,c
  6478   001200  EF04  F009         	goto	u7561
  6479   001204  EF06  F009         	goto	u7560
  6480   001208                     u7561:
  6481   001208  EFE0  F008         	goto	l1643
  6482   00120C                     u7560:
  6483   00120C                     l1641:
  6484                           
  6485                           ; BSR set to: 0
  6486   00120C  BDC1               	btfsc	___fladd@signs& (0+255),6,b
  6487   00120E  EF0B  F009         	goto	u7571
  6488   001212  EF0D  F009         	goto	u7570
  6489   001216                     u7571:
  6490   001216  EF4D  F009         	goto	l7765
  6491   00121A                     u7570:
  6492   00121A                     
  6493                           ; BSR set to: 0
  6494   00121A  51C3               	movf	___fladd@bexp& (0+255),w,b
  6495   00121C  A4D8               	btfss	status,2,c
  6496   00121E  EF13  F009         	goto	u7581
  6497   001222  EF15  F009         	goto	u7580
  6498   001226                     u7581:
  6499   001226  EF1F  F009         	goto	l7747
  6500   00122A                     u7580:
  6501   00122A                     
  6502                           ; BSR set to: 0
  6503   00122A  0E00               	movlw	0
  6504   00122C  6FB5               	movwf	?___fladd& (0+255),b
  6505   00122E  0E00               	movlw	0
  6506   001230  6FB6               	movwf	(?___fladd+1)& (0+255),b
  6507   001232  0E00               	movlw	0
  6508   001234  6FB7               	movwf	(?___fladd+2)& (0+255),b
  6509   001236  0E00               	movlw	0
  6510   001238  6FB8               	movwf	(?___fladd+3)& (0+255),b
  6511   00123A  EF6E  F00A         	goto	l1650
  6512   00123E                     l7747:
  6513                           
  6514                           ; BSR set to: 0
  6515   00123E  51B9               	movf	___fladd@a& (0+255),w,b
  6516   001240  27B5               	addwf	___fladd@b& (0+255),f,b
  6517   001242  51BA               	movf	(___fladd@a+1)& (0+255),w,b
  6518   001244  23B6               	addwfc	(___fladd@b+1)& (0+255),f,b
  6519   001246  51BB               	movf	(___fladd@a+2)& (0+255),w,b
  6520   001248  23B7               	addwfc	(___fladd@b+2)& (0+255),f,b
  6521   00124A  51BC               	movf	(___fladd@a+3)& (0+255),w,b
  6522   00124C  23B8               	addwfc	(___fladd@b+3)& (0+255),f,b
  6523   00124E                     
  6524                           ; BSR set to: 0
  6525   00124E  A1B8               	btfss	(___fladd@b+3)& (0+255),0,b
  6526   001250  EF2C  F009         	goto	u7591
  6527   001254  EF2E  F009         	goto	u7590
  6528   001258                     u7591:
  6529   001258  EFDA  F009         	goto	l7801
  6530   00125C                     u7590:
  6531   00125C                     
  6532                           ; BSR set to: 0
  6533   00125C  A1C4               	btfss	___fladd@grs& (0+255),0,b
  6534   00125E  EF33  F009         	goto	u7601
  6535   001262  EF35  F009         	goto	u7600
  6536   001266                     u7601:
  6537   001266  EF3B  F009         	goto	l7755
  6538   00126A                     u7600:
  6539   00126A                     
  6540                           ; BSR set to: 0
  6541   00126A  90D8               	bcf	status,0,c
  6542   00126C  31C4               	rrcf	___fladd@grs& (0+255),w,b
  6543   00126E  0901               	iorlw	1
  6544   001270  6FC4               	movwf	___fladd@grs& (0+255),b
  6545   001272  EF3D  F009         	goto	l7757
  6546   001276                     l7755:
  6547                           
  6548                           ; BSR set to: 0
  6549   001276  90D8               	bcf	status,0,c
  6550   001278  33C4               	rrcf	___fladd@grs& (0+255),f,b
  6551   00127A                     l7757:
  6552                           
  6553                           ; BSR set to: 0
  6554   00127A  A1B5               	btfss	___fladd@b& (0+255),0,b
  6555   00127C  EF42  F009         	goto	u7611
  6556   001280  EF44  F009         	goto	u7610
  6557   001284                     u7611:
  6558   001284  EF45  F009         	goto	l7761
  6559   001288                     u7610:
  6560   001288                     
  6561                           ; BSR set to: 0
  6562   001288  8FC4               	bsf	___fladd@grs& (0+255),7,b
  6563   00128A                     l7761:
  6564                           
  6565                           ; BSR set to: 0
  6566   00128A  35B8               	rlcf	(___fladd@b+3)& (0+255),w,b
  6567   00128C  33B8               	rrcf	(___fladd@b+3)& (0+255),f,b
  6568   00128E  33B7               	rrcf	(___fladd@b+2)& (0+255),f,b
  6569   001290  33B6               	rrcf	(___fladd@b+1)& (0+255),f,b
  6570   001292  33B5               	rrcf	___fladd@b& (0+255),f,b
  6571   001294                     
  6572                           ; BSR set to: 0
  6573   001294  2BC3               	incf	___fladd@bexp& (0+255),f,b
  6574   001296  EFDA  F009         	goto	l7801
  6575   00129A                     l7765:
  6576                           
  6577                           ; BSR set to: 0
  6578   00129A  51B9               	movf	___fladd@a& (0+255),w,b
  6579   00129C  5DB5               	subwf	___fladd@b& (0+255),w,b
  6580   00129E  51BA               	movf	(___fladd@a+1)& (0+255),w,b
  6581   0012A0  59B6               	subwfb	(___fladd@b+1)& (0+255),w,b
  6582   0012A2  51BB               	movf	(___fladd@a+2)& (0+255),w,b
  6583   0012A4  59B7               	subwfb	(___fladd@b+2)& (0+255),w,b
  6584   0012A6  51B8               	movf	(___fladd@b+3)& (0+255),w,b
  6585   0012A8  0A80               	xorlw	128
  6586   0012AA  6FBD               	movwf	??___fladd& (0+255),b
  6587   0012AC  51BC               	movf	(___fladd@a+3)& (0+255),w,b
  6588   0012AE  0A80               	xorlw	128
  6589   0012B0  59BD               	subwfb	??___fladd& (0+255),w,b
  6590   0012B2  B0D8               	btfsc	status,0,c
  6591   0012B4  EF5E  F009         	goto	u7621
  6592   0012B8  EF60  F009         	goto	u7620
  6593   0012BC                     u7621:
  6594   0012BC  EF8B  F009         	goto	l7775
  6595   0012C0                     u7620:
  6596   0012C0                     
  6597                           ; BSR set to: 0
  6598   0012C0  51B5               	movf	___fladd@b& (0+255),w,b
  6599   0012C2  5DB9               	subwf	___fladd@a& (0+255),w,b
  6600   0012C4  6FBD               	movwf	??___fladd& (0+255),b
  6601   0012C6  51B6               	movf	(___fladd@b+1)& (0+255),w,b
  6602   0012C8  59BA               	subwfb	(___fladd@a+1)& (0+255),w,b
  6603   0012CA  6FBE               	movwf	(??___fladd+1)& (0+255),b
  6604   0012CC  51B7               	movf	(___fladd@b+2)& (0+255),w,b
  6605   0012CE  59BB               	subwfb	(___fladd@a+2)& (0+255),w,b
  6606   0012D0  6FBF               	movwf	(??___fladd+2)& (0+255),b
  6607   0012D2  51B8               	movf	(___fladd@b+3)& (0+255),w,b
  6608   0012D4  59BC               	subwfb	(___fladd@a+3)& (0+255),w,b
  6609   0012D6  6FC0               	movwf	(??___fladd+3)& (0+255),b
  6610   0012D8  0EFF               	movlw	255
  6611   0012DA  25BD               	addwf	??___fladd& (0+255),w,b
  6612   0012DC  6FB5               	movwf	___fladd@b& (0+255),b
  6613   0012DE  0EFF               	movlw	255
  6614   0012E0  21BE               	addwfc	(??___fladd+1)& (0+255),w,b
  6615   0012E2  6FB6               	movwf	(___fladd@b+1)& (0+255),b
  6616   0012E4  0EFF               	movlw	255
  6617   0012E6  21BF               	addwfc	(??___fladd+2)& (0+255),w,b
  6618   0012E8  6FB7               	movwf	(___fladd@b+2)& (0+255),b
  6619   0012EA  0EFF               	movlw	255
  6620   0012EC  21C0               	addwfc	(??___fladd+3)& (0+255),w,b
  6621   0012EE  6FB8               	movwf	(___fladd@b+3)& (0+255),b
  6622   0012F0  0E80               	movlw	128
  6623   0012F2  1BC1               	xorwf	___fladd@signs& (0+255),f,b
  6624   0012F4                     
  6625                           ; BSR set to: 0
  6626   0012F4  6DC4               	negf	___fladd@grs& (0+255),b
  6627   0012F6                     
  6628                           ; BSR set to: 0
  6629   0012F6  51C4               	movf	___fladd@grs& (0+255),w,b
  6630   0012F8  A4D8               	btfss	status,2,c
  6631   0012FA  EF81  F009         	goto	u7631
  6632   0012FE  EF83  F009         	goto	u7630
  6633   001302                     u7631:
  6634   001302  EF93  F009         	goto	l1658
  6635   001306                     u7630:
  6636   001306                     
  6637                           ; BSR set to: 0
  6638   001306  0E01               	movlw	1
  6639   001308  27B5               	addwf	___fladd@b& (0+255),f,b
  6640   00130A  0E00               	movlw	0
  6641   00130C  23B6               	addwfc	(___fladd@b+1)& (0+255),f,b
  6642   00130E  23B7               	addwfc	(___fladd@b+2)& (0+255),f,b
  6643   001310  23B8               	addwfc	(___fladd@b+3)& (0+255),f,b
  6644   001312  EF93  F009         	goto	l1658
  6645   001316                     l7775:
  6646                           
  6647                           ; BSR set to: 0
  6648   001316  51B9               	movf	___fladd@a& (0+255),w,b
  6649   001318  5FB5               	subwf	___fladd@b& (0+255),f,b
  6650   00131A  51BA               	movf	(___fladd@a+1)& (0+255),w,b
  6651   00131C  5BB6               	subwfb	(___fladd@b+1)& (0+255),f,b
  6652   00131E  51BB               	movf	(___fladd@a+2)& (0+255),w,b
  6653   001320  5BB7               	subwfb	(___fladd@b+2)& (0+255),f,b
  6654   001322  51BC               	movf	(___fladd@a+3)& (0+255),w,b
  6655   001324  5BB8               	subwfb	(___fladd@b+3)& (0+255),f,b
  6656   001326                     l1658:
  6657                           
  6658                           ; BSR set to: 0
  6659   001326  51B5               	movf	___fladd@b& (0+255),w,b
  6660   001328  11B6               	iorwf	(___fladd@b+1)& (0+255),w,b
  6661   00132A  11B7               	iorwf	(___fladd@b+2)& (0+255),w,b
  6662   00132C  11B8               	iorwf	(___fladd@b+3)& (0+255),w,b
  6663   00132E  A4D8               	btfss	status,2,c
  6664   001330  EF9C  F009         	goto	u7641
  6665   001334  EF9E  F009         	goto	u7640
  6666   001338                     u7641:
  6667   001338  EFD3  F009         	goto	l7799
  6668   00133C                     u7640:
  6669   00133C                     
  6670                           ; BSR set to: 0
  6671   00133C  51C4               	movf	___fladd@grs& (0+255),w,b
  6672   00133E  A4D8               	btfss	status,2,c
  6673   001340  EFA4  F009         	goto	u7651
  6674   001344  EFA6  F009         	goto	u7650
  6675   001348                     u7651:
  6676   001348  EFD3  F009         	goto	l7799
  6677   00134C                     u7650:
  6678   00134C                     
  6679                           ; BSR set to: 0
  6680   00134C  0E00               	movlw	0
  6681   00134E  6FB5               	movwf	?___fladd& (0+255),b
  6682   001350  0E00               	movlw	0
  6683   001352  6FB6               	movwf	(?___fladd+1)& (0+255),b
  6684   001354  0E00               	movlw	0
  6685   001356  6FB7               	movwf	(?___fladd+2)& (0+255),b
  6686   001358  0E00               	movlw	0
  6687   00135A  6FB8               	movwf	(?___fladd+3)& (0+255),b
  6688   00135C  EF6E  F00A         	goto	l1650
  6689   001360                     l7783:
  6690                           
  6691                           ; BSR set to: 0
  6692   001360  90D8               	bcf	status,0,c
  6693   001362  37B5               	rlcf	___fladd@b& (0+255),f,b
  6694   001364  37B6               	rlcf	(___fladd@b+1)& (0+255),f,b
  6695   001366  37B7               	rlcf	(___fladd@b+2)& (0+255),f,b
  6696   001368  37B8               	rlcf	(___fladd@b+3)& (0+255),f,b
  6697   00136A                     
  6698                           ; BSR set to: 0
  6699   00136A  AFC4               	btfss	___fladd@grs& (0+255),7,b
  6700   00136C  EFBA  F009         	goto	u7661
  6701   001370  EFBC  F009         	goto	u7660
  6702   001374                     u7661:
  6703   001374  EFBD  F009         	goto	l7789
  6704   001378                     u7660:
  6705   001378                     
  6706                           ; BSR set to: 0
  6707   001378  81B5               	bsf	___fladd@b& (0+255),0,b
  6708   00137A                     l7789:
  6709                           
  6710                           ; BSR set to: 0
  6711   00137A  A1C4               	btfss	___fladd@grs& (0+255),0,b
  6712   00137C  EFC2  F009         	goto	u7671
  6713   001380  EFC4  F009         	goto	u7670
  6714   001384                     u7671:
  6715   001384  EFC8  F009         	goto	l7793
  6716   001388                     u7670:
  6717   001388                     
  6718                           ; BSR set to: 0
  6719   001388  80D8               	bsf	status,0,c
  6720   00138A  37C4               	rlcf	___fladd@grs& (0+255),f,b
  6721   00138C  EFCA  F009         	goto	l7795
  6722   001390                     l7793:
  6723                           
  6724                           ; BSR set to: 0
  6725   001390  90D8               	bcf	status,0,c
  6726   001392  37C4               	rlcf	___fladd@grs& (0+255),f,b
  6727   001394                     l7795:
  6728                           
  6729                           ; BSR set to: 0
  6730   001394  51C3               	movf	___fladd@bexp& (0+255),w,b
  6731   001396  B4D8               	btfsc	status,2,c
  6732   001398  EFD0  F009         	goto	u7681
  6733   00139C  EFD2  F009         	goto	u7680
  6734   0013A0                     u7681:
  6735   0013A0  EFD3  F009         	goto	l7799
  6736   0013A4                     u7680:
  6737   0013A4                     
  6738                           ; BSR set to: 0
  6739   0013A4  07C3               	decf	___fladd@bexp& (0+255),f,b
  6740   0013A6                     l7799:
  6741                           
  6742                           ; BSR set to: 0
  6743   0013A6  AFB7               	btfss	(___fladd@b+2)& (0+255),7,b
  6744   0013A8  EFD8  F009         	goto	u7691
  6745   0013AC  EFDA  F009         	goto	u7690
  6746   0013B0                     u7691:
  6747   0013B0  EFB0  F009         	goto	l7783
  6748   0013B4                     u7690:
  6749   0013B4                     l7801:
  6750                           
  6751                           ; BSR set to: 0
  6752   0013B4  0E00               	movlw	0
  6753   0013B6  6FC2               	movwf	___fladd@aexp& (0+255),b
  6754   0013B8                     
  6755                           ; BSR set to: 0
  6756   0013B8  AFC4               	btfss	___fladd@grs& (0+255),7,b
  6757   0013BA  EFE1  F009         	goto	u7701
  6758   0013BE  EFE3  F009         	goto	u7700
  6759   0013C2                     u7701:
  6760   0013C2  EFFB  F009         	goto	l1667
  6761   0013C6                     u7700:
  6762   0013C6                     
  6763                           ; BSR set to: 0
  6764   0013C6  C0C4  F0BD         	movff	___fladd@grs,??___fladd
  6765   0013CA  0E7F               	movlw	127
  6766   0013CC  17BD               	andwf	??___fladd& (0+255),f,b
  6767   0013CE  B4D8               	btfsc	status,2,c
  6768   0013D0  EFEC  F009         	goto	u7711
  6769   0013D4  EFEE  F009         	goto	u7710
  6770   0013D8                     u7711:
  6771   0013D8  EFF2  F009         	goto	l1668
  6772   0013DC                     u7710:
  6773   0013DC                     l7807:
  6774                           
  6775                           ; BSR set to: 0
  6776   0013DC  0E01               	movlw	1
  6777   0013DE  6FC2               	movwf	___fladd@aexp& (0+255),b
  6778   0013E0  EFFB  F009         	goto	l1667
  6779   0013E4                     l1668:
  6780                           
  6781                           ; BSR set to: 0
  6782   0013E4  A1B5               	btfss	___fladd@b& (0+255),0,b
  6783   0013E6  EFF7  F009         	goto	u7721
  6784   0013EA  EFF9  F009         	goto	u7720
  6785   0013EE                     u7721:
  6786   0013EE  EFFB  F009         	goto	l1667
  6787   0013F2                     u7720:
  6788   0013F2  EFEE  F009         	goto	l7807
  6789   0013F6                     l1667:
  6790                           
  6791                           ; BSR set to: 0
  6792   0013F6  51C2               	movf	___fladd@aexp& (0+255),w,b
  6793   0013F8  B4D8               	btfsc	status,2,c
  6794   0013FA  EF01  F00A         	goto	u7731
  6795   0013FE  EF03  F00A         	goto	u7730
  6796   001402                     u7731:
  6797   001402  EF2E  F00A         	goto	l7819
  6798   001406                     u7730:
  6799   001406                     
  6800                           ; BSR set to: 0
  6801   001406  0E01               	movlw	1
  6802   001408  27B5               	addwf	___fladd@b& (0+255),f,b
  6803   00140A  0E00               	movlw	0
  6804   00140C  23B6               	addwfc	(___fladd@b+1)& (0+255),f,b
  6805   00140E  23B7               	addwfc	(___fladd@b+2)& (0+255),f,b
  6806   001410  23B8               	addwfc	(___fladd@b+3)& (0+255),f,b
  6807   001412                     
  6808                           ; BSR set to: 0
  6809   001412  A1B8               	btfss	(___fladd@b+3)& (0+255),0,b
  6810   001414  EF0E  F00A         	goto	u7741
  6811   001418  EF10  F00A         	goto	u7740
  6812   00141C                     u7741:
  6813   00141C  EF2E  F00A         	goto	l7819
  6814   001420                     u7740:
  6815   001420                     
  6816                           ; BSR set to: 0
  6817   001420  C0B5  F0BD         	movff	___fladd@b,??___fladd
  6818   001424  C0B6  F0BE         	movff	___fladd@b+1,??___fladd+1
  6819   001428  C0B7  F0BF         	movff	___fladd@b+2,??___fladd+2
  6820   00142C  C0B8  F0C0         	movff	___fladd@b+3,??___fladd+3
  6821   001430  35C0               	rlcf	(??___fladd+3)& (0+255),w,b
  6822   001432  33C0               	rrcf	(??___fladd+3)& (0+255),f,b
  6823   001434  33BF               	rrcf	(??___fladd+2)& (0+255),f,b
  6824   001436  33BE               	rrcf	(??___fladd+1)& (0+255),f,b
  6825   001438  33BD               	rrcf	??___fladd& (0+255),f,b
  6826   00143A  C0BD  F0B5         	movff	??___fladd,___fladd@b
  6827   00143E  C0BE  F0B6         	movff	??___fladd+1,___fladd@b+1
  6828   001442  C0BF  F0B7         	movff	??___fladd+2,___fladd@b+2
  6829   001446  C0C0  F0B8         	movff	??___fladd+3,___fladd@b+3
  6830   00144A  29C3               	incf	___fladd@bexp& (0+255),w,b
  6831   00144C  B4D8               	btfsc	status,2,c
  6832   00144E  EF2B  F00A         	goto	u7751
  6833   001452  EF2D  F00A         	goto	u7750
  6834   001456                     u7751:
  6835   001456  EF2E  F00A         	goto	l7819
  6836   00145A                     u7750:
  6837   00145A                     
  6838                           ; BSR set to: 0
  6839   00145A  2BC3               	incf	___fladd@bexp& (0+255),f,b
  6840   00145C                     l7819:
  6841                           
  6842                           ; BSR set to: 0
  6843   00145C  29C3               	incf	___fladd@bexp& (0+255),w,b
  6844   00145E  B4D8               	btfsc	status,2,c
  6845   001460  EF34  F00A         	goto	u7761
  6846   001464  EF36  F00A         	goto	u7760
  6847   001468                     u7761:
  6848   001468  EF3E  F00A         	goto	l7823
  6849   00146C                     u7760:
  6850   00146C                     
  6851                           ; BSR set to: 0
  6852   00146C  51C3               	movf	___fladd@bexp& (0+255),w,b
  6853   00146E  A4D8               	btfss	status,2,c
  6854   001470  EF3C  F00A         	goto	u7771
  6855   001474  EF3E  F00A         	goto	u7770
  6856   001478                     u7771:
  6857   001478  EF50  F00A         	goto	l7827
  6858   00147C                     u7770:
  6859   00147C                     l7823:
  6860                           
  6861                           ; BSR set to: 0
  6862   00147C  0E00               	movlw	0
  6863   00147E  6FB5               	movwf	___fladd@b& (0+255),b
  6864   001480  0E00               	movlw	0
  6865   001482  6FB6               	movwf	(___fladd@b+1)& (0+255),b
  6866   001484  0E00               	movlw	0
  6867   001486  6FB7               	movwf	(___fladd@b+2)& (0+255),b
  6868   001488  0E00               	movlw	0
  6869   00148A  6FB8               	movwf	(___fladd@b+3)& (0+255),b
  6870   00148C  51C3               	movf	___fladd@bexp& (0+255),w,b
  6871   00148E  A4D8               	btfss	status,2,c
  6872   001490  EF4C  F00A         	goto	u7781
  6873   001494  EF4E  F00A         	goto	u7780
  6874   001498                     u7781:
  6875   001498  EF50  F00A         	goto	l7827
  6876   00149C                     u7780:
  6877   00149C                     
  6878                           ; BSR set to: 0
  6879   00149C  0E00               	movlw	0
  6880   00149E  6FC1               	movwf	___fladd@signs& (0+255),b
  6881   0014A0                     l7827:
  6882                           
  6883                           ; BSR set to: 0
  6884   0014A0  A1C3               	btfss	___fladd@bexp& (0+255),0,b
  6885   0014A2  EF55  F00A         	goto	u7791
  6886   0014A6  EF57  F00A         	goto	u7790
  6887   0014AA                     u7791:
  6888   0014AA  EF5A  F00A         	goto	l7831
  6889   0014AE                     u7790:
  6890   0014AE                     
  6891                           ; BSR set to: 0
  6892   0014AE  8FB7               	bsf	(___fladd@b+2)& (0+255),7,b
  6893   0014B0  EF5B  F00A         	goto	l7833
  6894   0014B4                     l7831:
  6895                           
  6896                           ; BSR set to: 0
  6897   0014B4  9FB7               	bcf	(___fladd@b+2)& (0+255),7,b
  6898   0014B6                     l7833:
  6899                           
  6900                           ; BSR set to: 0
  6901   0014B6  90D8               	bcf	status,0,c
  6902   0014B8  31C3               	rrcf	___fladd@bexp& (0+255),w,b
  6903   0014BA  6FB8               	movwf	(___fladd@b+3)& (0+255),b
  6904   0014BC                     
  6905                           ; BSR set to: 0
  6906   0014BC  AFC1               	btfss	___fladd@signs& (0+255),7,b
  6907   0014BE  EF63  F00A         	goto	u7801
  6908   0014C2  EF65  F00A         	goto	u7800
  6909   0014C6                     u7801:
  6910   0014C6  EF66  F00A         	goto	l7839
  6911   0014CA                     u7800:
  6912   0014CA                     
  6913                           ; BSR set to: 0
  6914   0014CA  8FB8               	bsf	(___fladd@b+3)& (0+255),7,b
  6915   0014CC                     l7839:
  6916                           
  6917                           ; BSR set to: 0
  6918   0014CC  C0B5  F0B5         	movff	___fladd@b,?___fladd
  6919   0014D0  C0B6  F0B6         	movff	___fladd@b+1,?___fladd+1
  6920   0014D4  C0B7  F0B7         	movff	___fladd@b+2,?___fladd+2
  6921   0014D8  C0B8  F0B8         	movff	___fladd@b+3,?___fladd+3
  6922   0014DC                     l1650:
  6923                           
  6924                           ; BSR set to: 0
  6925   0014DC  0012               	return		;funcret
  6926   0014DE                     __end_of___fladd:
  6927                           	callstack 0
  6928                           
  6929 ;; *************** function _CCPx_SET_COMPARE_MODE *****************
  6930 ;; Defined at:
  6931 ;;		line 355 in file "MCAL_LAYER/CCP/CCP.c"
  6932 ;; Parameters:    Size  Location     Type
  6933 ;;  ccp_obj         2   14[BANK0 ] PTR const struct .
  6934 ;;		 -> Heater(12), AC(12), 
  6935 ;; Auto vars:     Size  Location     Type
  6936 ;;		None
  6937 ;; Return value:  Size  Location     Type
  6938 ;;                  1    wreg      void 
  6939 ;; Registers used:
  6940 ;;		wreg, fsr2l, fsr2h, status,2, status,0
  6941 ;; Tracked objects:
  6942 ;;		On entry : 0/0
  6943 ;;		On exit  : 0/0
  6944 ;;		Unchanged: 0/0
  6945 ;; Data sizes:     COMRAM   BANK0   BANK1   BANK2   BANK3   BANK4   BANK5   BANK6   BANK7   BANK8   BANK9  BANK10  BANK1
      +1  BANK12  BANK13  BANK14  BANK15
  6946 ;;      Params:         0       2       0       0       0       0       0       0       0       0       0       0       
      +0       0       0       0       0
  6947 ;;      Locals:         0       0       0       0       0       0       0       0       0       0       0       0       
      +0       0       0       0       0
  6948 ;;      Temps:          0       2       0       0       0       0       0       0       0       0       0       0       
      +0       0       0       0       0
  6949 ;;      Totals:         0       4       0       0       0       0       0       0       0       0       0       0       
      +0       0       0       0       0
  6950 ;;Total ram usage:        4 bytes
  6951 ;; Hardware stack levels used: 1
  6952 ;; Hardware stack levels required when called: 9
  6953 ;; This function calls:
  6954 ;;		Nothing
  6955 ;; This function is called by:
  6956 ;;		_CCPx_Init
  6957 ;; This function uses a non-reentrant model
  6958 ;;
  6959                           
  6960                           	psect	text29
  6961   003004                     __ptext29:
  6962                           	callstack 0
  6963   003004                     _CCPx_SET_COMPARE_MODE:
  6964                           	callstack 19
  6965   003004                     
  6966                           ;MCAL_LAYER/CCP/CCP.c: 356:      if (ccp_obj->CCPx == 1){
  6967   003004  C08E  FFD9         	movff	CCPx_SET_COMPARE_MODE@ccp_obj,fsr2l
  6968   003008  C08F  FFDA         	movff	CCPx_SET_COMPARE_MODE@ccp_obj+1,fsr2h
  6969   00300C  04DE               	decf	postinc2,w,c
  6970   00300E  A4D8               	btfss	status,2,c
  6971   003010  EF0C  F018         	goto	u8531
  6972   003014  EF0E  F018         	goto	u8530
  6973   003018                     u8531:
  6974   003018  EF56  F018         	goto	l8343
  6975   00301C                     u8530:
  6976   00301C  EF2E  F018         	goto	l8341
  6977   003020                     l8329:
  6978                           
  6979                           ; BSR set to: 0
  6980   003020  50BD               	movf	189,w,c	;volatile
  6981   003022  0BF0               	andlw	-16
  6982   003024  0908               	iorlw	8
  6983   003026  6EBD               	movwf	189,c	;volatile
  6984                           
  6985                           ;MCAL_LAYER/CCP/CCP.c: 359:            break;
  6986   003028  EFAB  F018         	goto	l451
  6987   00302C                     l8331:
  6988                           
  6989                           ; BSR set to: 0
  6990   00302C  50BD               	movf	189,w,c	;volatile
  6991   00302E  0BF0               	andlw	-16
  6992   003030  0909               	iorlw	9
  6993   003032  6EBD               	movwf	189,c	;volatile
  6994                           
  6995                           ;MCAL_LAYER/CCP/CCP.c: 361:            break;
  6996   003034  EFAB  F018         	goto	l451
  6997   003038                     l8333:
  6998                           
  6999                           ; BSR set to: 0
  7000   003038  50BD               	movf	189,w,c	;volatile
  7001   00303A  0BF0               	andlw	-16
  7002   00303C  0902               	iorlw	2
  7003   00303E  6EBD               	movwf	189,c	;volatile
  7004                           
  7005                           ;MCAL_LAYER/CCP/CCP.c: 363:            break;
  7006   003040  EFAB  F018         	goto	l451
  7007   003044                     l8335:
  7008                           
  7009                           ; BSR set to: 0
  7010   003044  50BD               	movf	189,w,c	;volatile
  7011   003046  0BF0               	andlw	-16
  7012   003048  090A               	iorlw	10
  7013   00304A  6EBD               	movwf	189,c	;volatile
  7014                           
  7015                           ;MCAL_LAYER/CCP/CCP.c: 365:            break;
  7016   00304C  EFAB  F018         	goto	l451
  7017   003050                     l8337:
  7018                           
  7019                           ; BSR set to: 0
  7020   003050  50BD               	movf	189,w,c	;volatile
  7021   003052  0BF0               	andlw	-16
  7022   003054  090B               	iorlw	11
  7023   003056  6EBD               	movwf	189,c	;volatile
  7024                           
  7025                           ;MCAL_LAYER/CCP/CCP.c: 367:            break;
  7026   003058  EFAB  F018         	goto	l451
  7027   00305C                     l8341:
  7028   00305C  0100               	movlb	0	; () banked
  7029   00305E  EE20 F002          	lfsr	2,2
  7030   003062  518E               	movf	CCPx_SET_COMPARE_MODE@ccp_obj& (0+255),w,b
  7031   003064  26D9               	addwf	fsr2l,f,c
  7032   003066  518F               	movf	(CCPx_SET_COMPARE_MODE@ccp_obj+1)& (0+255),w,b
  7033   003068  22DA               	addwfc	fsr2h,f,c
  7034   00306A  50DF               	movf	indf2,w,c
  7035   00306C  6F90               	movwf	??_CCPx_SET_COMPARE_MODE& (0+255),b
  7036   00306E  6B91               	clrf	(??_CCPx_SET_COMPARE_MODE+1)& (0+255),b
  7037                           
  7038                           ; Switch on 2 bytes has been partitioned into a top level switch of size 1, and 1 sub-sw
      +                          itches
  7039                           ; Switch size 1, requested type "simple"
  7040                           ; Number of cases is 1, Range of values is 0 to 0
  7041                           ; switch strategies available:
  7042                           ; Name         Instructions Cycles
  7043                           ; simple_byte            4     3 (average)
  7044                           ;	Chosen strategy is simple_byte
  7045   003070  5191               	movf	(??_CCPx_SET_COMPARE_MODE+1)& (0+255),w,b
  7046   003072  0A00               	xorlw	0	; case 0
  7047   003074  B4D8               	btfsc	status,2,c
  7048   003076  EF3F  F018         	goto	l9475
  7049   00307A  EFAB  F018         	goto	l451
  7050   00307E                     l9475:
  7051                           
  7052                           ; BSR set to: 0
  7053                           ; Switch size 1, requested type "simple"
  7054                           ; Number of cases is 5, Range of values is 2 to 11
  7055                           ; switch strategies available:
  7056                           ; Name         Instructions Cycles
  7057                           ; simple_byte           16     9 (average)
  7058                           ;	Chosen strategy is simple_byte
  7059   00307E  5190               	movf	??_CCPx_SET_COMPARE_MODE& (0+255),w,b
  7060   003080  0A02               	xorlw	2	; case 2
  7061   003082  B4D8               	btfsc	status,2,c
  7062   003084  EF1C  F018         	goto	l8333
  7063   003088  0A0A               	xorlw	10	; case 8
  7064   00308A  B4D8               	btfsc	status,2,c
  7065   00308C  EF10  F018         	goto	l8329
  7066   003090  0A01               	xorlw	1	; case 9
  7067   003092  B4D8               	btfsc	status,2,c
  7068   003094  EF16  F018         	goto	l8331
  7069   003098  0A03               	xorlw	3	; case 10
  7070   00309A  B4D8               	btfsc	status,2,c
  7071   00309C  EF22  F018         	goto	l8335
  7072   0030A0  0A01               	xorlw	1	; case 11
  7073   0030A2  B4D8               	btfsc	status,2,c
  7074   0030A4  EF28  F018         	goto	l8337
  7075   0030A8  EFAB  F018         	goto	l451
  7076   0030AC                     l8343:
  7077   0030AC  C08E  FFD9         	movff	CCPx_SET_COMPARE_MODE@ccp_obj,fsr2l
  7078   0030B0  C08F  FFDA         	movff	CCPx_SET_COMPARE_MODE@ccp_obj+1,fsr2h
  7079   0030B4  0E02               	movlw	2
  7080   0030B6  18DE               	xorwf	postinc2,w,c
  7081   0030B8  A4D8               	btfss	status,2,c
  7082   0030BA  EF61  F018         	goto	u8541
  7083   0030BE  EF63  F018         	goto	u8540
  7084   0030C2                     u8541:
  7085   0030C2  EFAB  F018         	goto	l451
  7086   0030C6                     u8540:
  7087   0030C6  EF83  F018         	goto	l8359
  7088   0030CA                     l8347:
  7089                           
  7090                           ; BSR set to: 0
  7091   0030CA  50BA               	movf	186,w,c	;volatile
  7092   0030CC  0BF0               	andlw	-16
  7093   0030CE  0908               	iorlw	8
  7094   0030D0  6EBA               	movwf	186,c	;volatile
  7095                           
  7096                           ;MCAL_LAYER/CCP/CCP.c: 373:            break;
  7097   0030D2  EFAB  F018         	goto	l451
  7098   0030D6                     l8349:
  7099                           
  7100                           ; BSR set to: 0
  7101   0030D6  50BA               	movf	186,w,c	;volatile
  7102   0030D8  0BF0               	andlw	-16
  7103   0030DA  0909               	iorlw	9
  7104   0030DC  6EBA               	movwf	186,c	;volatile
  7105                           
  7106                           ;MCAL_LAYER/CCP/CCP.c: 375:            break;
  7107   0030DE  EFAB  F018         	goto	l451
  7108   0030E2                     l8351:
  7109                           
  7110                           ; BSR set to: 0
  7111   0030E2  50BA               	movf	186,w,c	;volatile
  7112   0030E4  0BF0               	andlw	-16
  7113   0030E6  0902               	iorlw	2
  7114   0030E8  6EBA               	movwf	186,c	;volatile
  7115                           
  7116                           ;MCAL_LAYER/CCP/CCP.c: 377:            break;
  7117   0030EA  EFAB  F018         	goto	l451
  7118   0030EE                     l8353:
  7119                           
  7120                           ; BSR set to: 0
  7121   0030EE  50BA               	movf	186,w,c	;volatile
  7122   0030F0  0BF0               	andlw	-16
  7123   0030F2  090A               	iorlw	10
  7124   0030F4  6EBA               	movwf	186,c	;volatile
  7125                           
  7126                           ;MCAL_LAYER/CCP/CCP.c: 379:            break;
  7127   0030F6  EFAB  F018         	goto	l451
  7128   0030FA                     l8355:
  7129                           
  7130                           ; BSR set to: 0
  7131   0030FA  50BA               	movf	186,w,c	;volatile
  7132   0030FC  0BF0               	andlw	-16
  7133   0030FE  090B               	iorlw	11
  7134   003100  6EBA               	movwf	186,c	;volatile
  7135                           
  7136                           ;MCAL_LAYER/CCP/CCP.c: 381:            break;
  7137   003102  EFAB  F018         	goto	l451
  7138   003106                     l8359:
  7139   003106  0100               	movlb	0	; () banked
  7140   003108  EE20 F002          	lfsr	2,2
  7141   00310C  518E               	movf	CCPx_SET_COMPARE_MODE@ccp_obj& (0+255),w,b
  7142   00310E  26D9               	addwf	fsr2l,f,c
  7143   003110  518F               	movf	(CCPx_SET_COMPARE_MODE@ccp_obj+1)& (0+255),w,b
  7144   003112  22DA               	addwfc	fsr2h,f,c
  7145   003114  50DF               	movf	indf2,w,c
  7146   003116  6F90               	movwf	??_CCPx_SET_COMPARE_MODE& (0+255),b
  7147   003118  6B91               	clrf	(??_CCPx_SET_COMPARE_MODE+1)& (0+255),b
  7148                           
  7149                           ; Switch on 2 bytes has been partitioned into a top level switch of size 1, and 1 sub-sw
      +                          itches
  7150                           ; Switch size 1, requested type "simple"
  7151                           ; Number of cases is 1, Range of values is 0 to 0
  7152                           ; switch strategies available:
  7153                           ; Name         Instructions Cycles
  7154                           ; simple_byte            4     3 (average)
  7155                           ;	Chosen strategy is simple_byte
  7156   00311A  5191               	movf	(??_CCPx_SET_COMPARE_MODE+1)& (0+255),w,b
  7157   00311C  0A00               	xorlw	0	; case 0
  7158   00311E  B4D8               	btfsc	status,2,c
  7159   003120  EF94  F018         	goto	l9477
  7160   003124  EFAB  F018         	goto	l451
  7161   003128                     l9477:
  7162                           
  7163                           ; BSR set to: 0
  7164                           ; Switch size 1, requested type "simple"
  7165                           ; Number of cases is 5, Range of values is 2 to 11
  7166                           ; switch strategies available:
  7167                           ; Name         Instructions Cycles
  7168                           ; simple_byte           16     9 (average)
  7169                           ;	Chosen strategy is simple_byte
  7170   003128  5190               	movf	??_CCPx_SET_COMPARE_MODE& (0+255),w,b
  7171   00312A  0A02               	xorlw	2	; case 2
  7172   00312C  B4D8               	btfsc	status,2,c
  7173   00312E  EF71  F018         	goto	l8351
  7174   003132  0A0A               	xorlw	10	; case 8
  7175   003134  B4D8               	btfsc	status,2,c
  7176   003136  EF65  F018         	goto	l8347
  7177   00313A  0A01               	xorlw	1	; case 9
  7178   00313C  B4D8               	btfsc	status,2,c
  7179   00313E  EF6B  F018         	goto	l8349
  7180   003142  0A03               	xorlw	3	; case 10
  7181   003144  B4D8               	btfsc	status,2,c
  7182   003146  EF77  F018         	goto	l8353
  7183   00314A  0A01               	xorlw	1	; case 11
  7184   00314C  B4D8               	btfsc	status,2,c
  7185   00314E  EF7D  F018         	goto	l8355
  7186   003152  EFAB  F018         	goto	l451
  7187   003156                     l451:
  7188   003156  0012               	return		;funcret
  7189   003158                     __end_of_CCPx_SET_COMPARE_MODE:
  7190                           	callstack 0
  7191                           
  7192 ;; *************** function _CCPx_SET_CAPTURE_MODE *****************
  7193 ;; Defined at:
  7194 ;;		line 322 in file "MCAL_LAYER/CCP/CCP.c"
  7195 ;; Parameters:    Size  Location     Type
  7196 ;;  ccp_obj         2   14[BANK0 ] PTR const struct .
  7197 ;;		 -> Heater(12), AC(12), 
  7198 ;; Auto vars:     Size  Location     Type
  7199 ;;		None
  7200 ;; Return value:  Size  Location     Type
  7201 ;;                  1    wreg      void 
  7202 ;; Registers used:
  7203 ;;		wreg, fsr2l, fsr2h, status,2, status,0
  7204 ;; Tracked objects:
  7205 ;;		On entry : 0/0
  7206 ;;		On exit  : 0/0
  7207 ;;		Unchanged: 0/0
  7208 ;; Data sizes:     COMRAM   BANK0   BANK1   BANK2   BANK3   BANK4   BANK5   BANK6   BANK7   BANK8   BANK9  BANK10  BANK1
      +1  BANK12  BANK13  BANK14  BANK15
  7209 ;;      Params:         0       2       0       0       0       0       0       0       0       0       0       0       
      +0       0       0       0       0
  7210 ;;      Locals:         0       0       0       0       0       0       0       0       0       0       0       0       
      +0       0       0       0       0
  7211 ;;      Temps:          0       2       0       0       0       0       0       0       0       0       0       0       
      +0       0       0       0       0
  7212 ;;      Totals:         0       4       0       0       0       0       0       0       0       0       0       0       
      +0       0       0       0       0
  7213 ;;Total ram usage:        4 bytes
  7214 ;; Hardware stack levels used: 1
  7215 ;; Hardware stack levels required when called: 9
  7216 ;; This function calls:
  7217 ;;		Nothing
  7218 ;; This function is called by:
  7219 ;;		_CCPx_Init
  7220 ;; This function uses a non-reentrant model
  7221 ;;
  7222                           
  7223                           	psect	text30
  7224   0033DE                     __ptext30:
  7225                           	callstack 0
  7226   0033DE                     _CCPx_SET_CAPTURE_MODE:
  7227                           	callstack 19
  7228   0033DE                     
  7229                           ;MCAL_LAYER/CCP/CCP.c: 324:    if (ccp_obj->CCPx == 1){
  7230   0033DE  C08E  FFD9         	movff	CCPx_SET_CAPTURE_MODE@ccp_obj,fsr2l
  7231   0033E2  C08F  FFDA         	movff	CCPx_SET_CAPTURE_MODE@ccp_obj+1,fsr2h
  7232   0033E6  04DE               	decf	postinc2,w,c
  7233   0033E8  A4D8               	btfss	status,2,c
  7234   0033EA  EFF9  F019         	goto	u8511
  7235   0033EE  EFFB  F019         	goto	u8510
  7236   0033F2                     u8511:
  7237   0033F2  EF39  F01A         	goto	l8297
  7238   0033F6                     u8510:
  7239   0033F6  EF15  F01A         	goto	l8295
  7240   0033FA                     l8285:
  7241                           
  7242                           ; BSR set to: 0
  7243   0033FA  50BD               	movf	189,w,c	;volatile
  7244   0033FC  0BF0               	andlw	-16
  7245   0033FE  0904               	iorlw	4
  7246   003400  6EBD               	movwf	189,c	;volatile
  7247                           
  7248                           ;MCAL_LAYER/CCP/CCP.c: 327:            break;
  7249   003402  EF84  F01A         	goto	l430
  7250   003406                     l8287:
  7251                           
  7252                           ; BSR set to: 0
  7253   003406  50BD               	movf	189,w,c	;volatile
  7254   003408  0BF0               	andlw	-16
  7255   00340A  0905               	iorlw	5
  7256   00340C  6EBD               	movwf	189,c	;volatile
  7257                           
  7258                           ;MCAL_LAYER/CCP/CCP.c: 329:            break;
  7259   00340E  EF84  F01A         	goto	l430
  7260   003412                     l8289:
  7261                           
  7262                           ; BSR set to: 0
  7263   003412  50BD               	movf	189,w,c	;volatile
  7264   003414  0BF0               	andlw	-16
  7265   003416  0906               	iorlw	6
  7266   003418  6EBD               	movwf	189,c	;volatile
  7267                           
  7268                           ;MCAL_LAYER/CCP/CCP.c: 331:            break;
  7269   00341A  EF84  F01A         	goto	l430
  7270   00341E                     l8291:
  7271                           
  7272                           ; BSR set to: 0
  7273   00341E  50BD               	movf	189,w,c	;volatile
  7274   003420  0BF0               	andlw	-16
  7275   003422  0907               	iorlw	7
  7276   003424  6EBD               	movwf	189,c	;volatile
  7277                           
  7278                           ;MCAL_LAYER/CCP/CCP.c: 333:            break;
  7279   003426  EF84  F01A         	goto	l430
  7280   00342A                     l8295:
  7281   00342A  0100               	movlb	0	; () banked
  7282   00342C  EE20 F002          	lfsr	2,2
  7283   003430  518E               	movf	CCPx_SET_CAPTURE_MODE@ccp_obj& (0+255),w,b
  7284   003432  26D9               	addwf	fsr2l,f,c
  7285   003434  518F               	movf	(CCPx_SET_CAPTURE_MODE@ccp_obj+1)& (0+255),w,b
  7286   003436  22DA               	addwfc	fsr2h,f,c
  7287   003438  50DF               	movf	indf2,w,c
  7288   00343A  6F90               	movwf	??_CCPx_SET_CAPTURE_MODE& (0+255),b
  7289   00343C  6B91               	clrf	(??_CCPx_SET_CAPTURE_MODE+1)& (0+255),b
  7290                           
  7291                           ; Switch on 2 bytes has been partitioned into a top level switch of size 1, and 1 sub-sw
      +                          itches
  7292                           ; Switch size 1, requested type "simple"
  7293                           ; Number of cases is 1, Range of values is 0 to 0
  7294                           ; switch strategies available:
  7295                           ; Name         Instructions Cycles
  7296                           ; simple_byte            4     3 (average)
  7297                           ;	Chosen strategy is simple_byte
  7298   00343E  5191               	movf	(??_CCPx_SET_CAPTURE_MODE+1)& (0+255),w,b
  7299   003440  0A00               	xorlw	0	; case 0
  7300   003442  B4D8               	btfsc	status,2,c
  7301   003444  EF26  F01A         	goto	l9479
  7302   003448  EF84  F01A         	goto	l430
  7303   00344C                     l9479:
  7304                           
  7305                           ; BSR set to: 0
  7306                           ; Switch size 1, requested type "simple"
  7307                           ; Number of cases is 4, Range of values is 4 to 7
  7308                           ; switch strategies available:
  7309                           ; Name         Instructions Cycles
  7310                           ; simple_byte           13     7 (average)
  7311                           ;	Chosen strategy is simple_byte
  7312   00344C  5190               	movf	??_CCPx_SET_CAPTURE_MODE& (0+255),w,b
  7313   00344E  0A04               	xorlw	4	; case 4
  7314   003450  B4D8               	btfsc	status,2,c
  7315   003452  EFFD  F019         	goto	l8285
  7316   003456  0A01               	xorlw	1	; case 5
  7317   003458  B4D8               	btfsc	status,2,c
  7318   00345A  EF03  F01A         	goto	l8287
  7319   00345E  0A03               	xorlw	3	; case 6
  7320   003460  B4D8               	btfsc	status,2,c
  7321   003462  EF09  F01A         	goto	l8289
  7322   003466  0A01               	xorlw	1	; case 7
  7323   003468  B4D8               	btfsc	status,2,c
  7324   00346A  EF0F  F01A         	goto	l8291
  7325   00346E  EF84  F01A         	goto	l430
  7326   003472                     l8297:
  7327   003472  C08E  FFD9         	movff	CCPx_SET_CAPTURE_MODE@ccp_obj,fsr2l
  7328   003476  C08F  FFDA         	movff	CCPx_SET_CAPTURE_MODE@ccp_obj+1,fsr2h
  7329   00347A  0E02               	movlw	2
  7330   00347C  18DE               	xorwf	postinc2,w,c
  7331   00347E  A4D8               	btfss	status,2,c
  7332   003480  EF44  F01A         	goto	u8521
  7333   003484  EF46  F01A         	goto	u8520
  7334   003488                     u8521:
  7335   003488  EF84  F01A         	goto	l430
  7336   00348C                     u8520:
  7337   00348C  EF60  F01A         	goto	l8311
  7338   003490                     l8301:
  7339                           
  7340                           ; BSR set to: 0
  7341   003490  50BA               	movf	186,w,c	;volatile
  7342   003492  0BF0               	andlw	-16
  7343   003494  0904               	iorlw	4
  7344   003496  6EBA               	movwf	186,c	;volatile
  7345                           
  7346                           ;MCAL_LAYER/CCP/CCP.c: 339:            break;
  7347   003498  EF84  F01A         	goto	l430
  7348   00349C                     l8303:
  7349                           
  7350                           ; BSR set to: 0
  7351   00349C  50BA               	movf	186,w,c	;volatile
  7352   00349E  0BF0               	andlw	-16
  7353   0034A0  0905               	iorlw	5
  7354   0034A2  6EBA               	movwf	186,c	;volatile
  7355                           
  7356                           ;MCAL_LAYER/CCP/CCP.c: 341:            break;
  7357   0034A4  EF84  F01A         	goto	l430
  7358   0034A8                     l8305:
  7359                           
  7360                           ; BSR set to: 0
  7361   0034A8  50BA               	movf	186,w,c	;volatile
  7362   0034AA  0BF0               	andlw	-16
  7363   0034AC  0906               	iorlw	6
  7364   0034AE  6EBA               	movwf	186,c	;volatile
  7365                           
  7366                           ;MCAL_LAYER/CCP/CCP.c: 343:            break;
  7367   0034B0  EF84  F01A         	goto	l430
  7368   0034B4                     l8307:
  7369                           
  7370                           ; BSR set to: 0
  7371   0034B4  50BA               	movf	186,w,c	;volatile
  7372   0034B6  0BF0               	andlw	-16
  7373   0034B8  0907               	iorlw	7
  7374   0034BA  6EBA               	movwf	186,c	;volatile
  7375                           
  7376                           ;MCAL_LAYER/CCP/CCP.c: 345:            break;
  7377   0034BC  EF84  F01A         	goto	l430
  7378   0034C0                     l8311:
  7379   0034C0  0100               	movlb	0	; () banked
  7380   0034C2  EE20 F002          	lfsr	2,2
  7381   0034C6  518E               	movf	CCPx_SET_CAPTURE_MODE@ccp_obj& (0+255),w,b
  7382   0034C8  26D9               	addwf	fsr2l,f,c
  7383   0034CA  518F               	movf	(CCPx_SET_CAPTURE_MODE@ccp_obj+1)& (0+255),w,b
  7384   0034CC  22DA               	addwfc	fsr2h,f,c
  7385   0034CE  50DF               	movf	indf2,w,c
  7386   0034D0  6F90               	movwf	??_CCPx_SET_CAPTURE_MODE& (0+255),b
  7387   0034D2  6B91               	clrf	(??_CCPx_SET_CAPTURE_MODE+1)& (0+255),b
  7388                           
  7389                           ; Switch on 2 bytes has been partitioned into a top level switch of size 1, and 1 sub-sw
      +                          itches
  7390                           ; Switch size 1, requested type "simple"
  7391                           ; Number of cases is 1, Range of values is 0 to 0
  7392                           ; switch strategies available:
  7393                           ; Name         Instructions Cycles
  7394                           ; simple_byte            4     3 (average)
  7395                           ;	Chosen strategy is simple_byte
  7396   0034D4  5191               	movf	(??_CCPx_SET_CAPTURE_MODE+1)& (0+255),w,b
  7397   0034D6  0A00               	xorlw	0	; case 0
  7398   0034D8  B4D8               	btfsc	status,2,c
  7399   0034DA  EF71  F01A         	goto	l9481
  7400   0034DE  EF84  F01A         	goto	l430
  7401   0034E2                     l9481:
  7402                           
  7403                           ; BSR set to: 0
  7404                           ; Switch size 1, requested type "simple"
  7405                           ; Number of cases is 4, Range of values is 4 to 7
  7406                           ; switch strategies available:
  7407                           ; Name         Instructions Cycles
  7408                           ; simple_byte           13     7 (average)
  7409                           ;	Chosen strategy is simple_byte
  7410   0034E2  5190               	movf	??_CCPx_SET_CAPTURE_MODE& (0+255),w,b
  7411   0034E4  0A04               	xorlw	4	; case 4
  7412   0034E6  B4D8               	btfsc	status,2,c
  7413   0034E8  EF48  F01A         	goto	l8301
  7414   0034EC  0A01               	xorlw	1	; case 5
  7415   0034EE  B4D8               	btfsc	status,2,c
  7416   0034F0  EF4E  F01A         	goto	l8303
  7417   0034F4  0A03               	xorlw	3	; case 6
  7418   0034F6  B4D8               	btfsc	status,2,c
  7419   0034F8  EF54  F01A         	goto	l8305
  7420   0034FC  0A01               	xorlw	1	; case 7
  7421   0034FE  B4D8               	btfsc	status,2,c
  7422   003500  EF5A  F01A         	goto	l8307
  7423   003504  EF84  F01A         	goto	l430
  7424   003508                     l430:
  7425   003508  0012               	return		;funcret
  7426   00350A                     __end_of_CCPx_SET_CAPTURE_MODE:
  7427                           	callstack 0
  7428                           
  7429 ;; *************** function _ADC_Init *****************
  7430 ;; Defined at:
  7431 ;;		line 21 in file "MCAL_LAYER/ADC/adc.c"
  7432 ;; Parameters:    Size  Location     Type
  7433 ;;  pin             2   17[BANK0 ] PTR const struct .
  7434 ;;		 -> Tempe_reader(8), 
  7435 ;; Auto vars:     Size  Location     Type
  7436 ;;  ret             1    0        unsigned char 
  7437 ;; Return value:  Size  Location     Type
  7438 ;;                  1    wreg      unsigned char 
  7439 ;; Registers used:
  7440 ;;		wreg, fsr2l, fsr2h, status,2, status,0, cstack
  7441 ;; Tracked objects:
  7442 ;;		On entry : 0/0
  7443 ;;		On exit  : 0/0
  7444 ;;		Unchanged: 0/0
  7445 ;; Data sizes:     COMRAM   BANK0   BANK1   BANK2   BANK3   BANK4   BANK5   BANK6   BANK7   BANK8   BANK9  BANK10  BANK1
      +1  BANK12  BANK13  BANK14  BANK15
  7446 ;;      Params:         0       2       0       0       0       0       0       0       0       0       0       0       
      +0       0       0       0       0
  7447 ;;      Locals:         0       0       0       0       0       0       0       0       0       0       0       0       
      +0       0       0       0       0
  7448 ;;      Temps:          0       2       0       0       0       0       0       0       0       0       0       0       
      +0       0       0       0       0
  7449 ;;      Totals:         0       4       0       0       0       0       0       0       0       0       0       0       
      +0       0       0       0       0
  7450 ;;Total ram usage:        4 bytes
  7451 ;; Hardware stack levels used: 1
  7452 ;; Hardware stack levels required when called: 10
  7453 ;; This function calls:
  7454 ;;		_ADC_Set_bit
  7455 ;; This function is called by:
  7456 ;;		_intialization
  7457 ;; This function uses a non-reentrant model
  7458 ;;
  7459                           
  7460                           	psect	text31
  7461   003966                     __ptext31:
  7462                           	callstack 0
  7463   003966                     _ADC_Init:
  7464                           	callstack 19
  7465   003966                     
  7466                           ;MCAL_LAYER/ADC/adc.c: 25:     if (((void*)0) == pin){
  7467   003966  0100               	movlb	0	; () banked
  7468   003968  5191               	movf	ADC_Init@pin& (0+255),w,b
  7469   00396A  1192               	iorwf	(ADC_Init@pin+1)& (0+255),w,b
  7470   00396C  A4D8               	btfss	status,2,c
  7471   00396E  EFBB  F01C         	goto	u8701
  7472   003972  EFBD  F01C         	goto	u8700
  7473   003976                     u8701:
  7474   003976  EFBF  F01C         	goto	l245
  7475   00397A                     u8700:
  7476   00397A                     
  7477                           ; BSR set to: 0
  7478                           ;MCAL_LAYER/ADC/adc.c: 27:     }
  7479   00397A  EF2A  F01D         	goto	l255
  7480   00397E                     l245:
  7481                           
  7482                           ; BSR set to: 0
  7483                           ;MCAL_LAYER/ADC/adc.c: 32:         (ADCON0bits.ADON =0);
  7484   00397E  90C2               	bcf	194,0,c	;volatile
  7485   003980                     
  7486                           ; BSR set to: 0
  7487                           ;MCAL_LAYER/ADC/adc.c: 36:         ADCON2bits.ACQT=pin->Acq_Time;
  7488   003980  EE20 F005          	lfsr	2,5
  7489   003984  5191               	movf	ADC_Init@pin& (0+255),w,b
  7490   003986  26D9               	addwf	fsr2l,f,c
  7491   003988  5192               	movf	(ADC_Init@pin+1)& (0+255),w,b
  7492   00398A  22DA               	addwfc	fsr2h,f,c
  7493   00398C  50DF               	movf	indf2,w,c
  7494   00398E  6F93               	movwf	??_ADC_Init& (0+255),b
  7495   003990  4793               	rlncf	??_ADC_Init& (0+255),f,b
  7496   003992  4793               	rlncf	??_ADC_Init& (0+255),f,b
  7497   003994  4793               	rlncf	??_ADC_Init& (0+255),f,b
  7498   003996  50C0               	movf	192,w,c	;volatile
  7499   003998  1993               	xorwf	??_ADC_Init& (0+255),w,b
  7500   00399A  0BC7               	andlw	-57
  7501   00399C  1993               	xorwf	??_ADC_Init& (0+255),w,b
  7502   00399E  6EC0               	movwf	192,c	;volatile
  7503                           
  7504                           ;MCAL_LAYER/ADC/adc.c: 38:          ADCON2bits.ADCS=pin->Clock;
  7505   0039A0  EE20 F004          	lfsr	2,4
  7506   0039A4  5191               	movf	ADC_Init@pin& (0+255),w,b
  7507   0039A6  26D9               	addwf	fsr2l,f,c
  7508   0039A8  5192               	movf	(ADC_Init@pin+1)& (0+255),w,b
  7509   0039AA  22DA               	addwfc	fsr2h,f,c
  7510   0039AC  50DF               	movf	indf2,w,c
  7511   0039AE  6F93               	movwf	??_ADC_Init& (0+255),b
  7512   0039B0  50C0               	movf	192,w,c	;volatile
  7513   0039B2  1993               	xorwf	??_ADC_Init& (0+255),w,b
  7514   0039B4  0BF8               	andlw	-8
  7515   0039B6  1993               	xorwf	??_ADC_Init& (0+255),w,b
  7516   0039B8  6EC0               	movwf	192,c	;volatile
  7517                           
  7518                           ;MCAL_LAYER/ADC/adc.c: 41:           ADCON0bits.CHS=pin->ANT;
  7519   0039BA  EE20 F003          	lfsr	2,3
  7520   0039BE  5191               	movf	ADC_Init@pin& (0+255),w,b
  7521   0039C0  26D9               	addwf	fsr2l,f,c
  7522   0039C2  5192               	movf	(ADC_Init@pin+1)& (0+255),w,b
  7523   0039C4  22DA               	addwfc	fsr2h,f,c
  7524   0039C6  50DF               	movf	indf2,w,c
  7525   0039C8  6F93               	movwf	??_ADC_Init& (0+255),b
  7526   0039CA  4793               	rlncf	??_ADC_Init& (0+255),f,b
  7527   0039CC  4793               	rlncf	??_ADC_Init& (0+255),f,b
  7528   0039CE  50C2               	movf	194,w,c	;volatile
  7529   0039D0  1993               	xorwf	??_ADC_Init& (0+255),w,b
  7530   0039D2  0BC3               	andlw	-61
  7531   0039D4  1993               	xorwf	??_ADC_Init& (0+255),w,b
  7532   0039D6  6EC2               	movwf	194,c	;volatile
  7533   0039D8                     
  7534                           ; BSR set to: 0
  7535                           ;MCAL_LAYER/ADC/adc.c: 42:          ADC_Set_bit(pin->ANT);
  7536   0039D8  EE20 F003          	lfsr	2,3
  7537   0039DC  5191               	movf	ADC_Init@pin& (0+255),w,b
  7538   0039DE  26D9               	addwf	fsr2l,f,c
  7539   0039E0  5192               	movf	(ADC_Init@pin+1)& (0+255),w,b
  7540   0039E2  22DA               	addwfc	fsr2h,f,c
  7541   0039E4  50DF               	movf	indf2,w,c
  7542   0039E6  EC2B  F01D         	call	_ADC_Set_bit
  7543   0039EA                     
  7544                           ;MCAL_LAYER/ADC/adc.c: 47:          (INTCONbits.GIE=1);
  7545   0039EA  8EF2               	bsf	242,7,c	;volatile
  7546   0039EC                     
  7547                           ;MCAL_LAYER/ADC/adc.c: 48:          (INTCONbits.PEIE=1);
  7548   0039EC  8CF2               	bsf	242,6,c	;volatile
  7549   0039EE                     
  7550                           ;MCAL_LAYER/ADC/adc.c: 50:          (PIE1bits.ADIE=1);
  7551   0039EE  8C9D               	bsf	157,6,c	;volatile
  7552   0039F0                     
  7553                           ;MCAL_LAYER/ADC/adc.c: 51:          (PIR1bits.ADIF=0);
  7554   0039F0  9C9E               	bcf	158,6,c	;volatile
  7555   0039F2                     
  7556                           ;MCAL_LAYER/ADC/adc.c: 63:          ADC_InterruptHandler=pin->ADC_InterruptHandler;
  7557   0039F2  C091  FFD9         	movff	ADC_Init@pin,fsr2l
  7558   0039F6  C092  FFDA         	movff	ADC_Init@pin+1,fsr2h
  7559   0039FA  CFDE F069          	movff	postinc2,_ADC_InterruptHandler
  7560   0039FE  CFDD F06A          	movff	postdec2,_ADC_InterruptHandler+1
  7561   003A02                     
  7562                           ;MCAL_LAYER/ADC/adc.c: 68:          if (pin->Result_flag == 1){(ADCON2bits.ADFM=1);}
  7563   003A02  0100               	movlb	0	; () banked
  7564   003A04  EE20 F007          	lfsr	2,7
  7565   003A08  5191               	movf	ADC_Init@pin& (0+255),w,b
  7566   003A0A  26D9               	addwf	fsr2l,f,c
  7567   003A0C  5192               	movf	(ADC_Init@pin+1)& (0+255),w,b
  7568   003A0E  22DA               	addwfc	fsr2h,f,c
  7569   003A10  04DE               	decf	postinc2,w,c
  7570   003A12  A4D8               	btfss	status,2,c
  7571   003A14  EF0E  F01D         	goto	u8711
  7572   003A18  EF10  F01D         	goto	u8710
  7573   003A1C                     u8711:
  7574   003A1C  EF13  F01D         	goto	l247
  7575   003A20                     u8710:
  7576   003A20                     
  7577                           ; BSR set to: 0
  7578   003A20  8EC0               	bsf	192,7,c	;volatile
  7579   003A22  EF14  F01D         	goto	l8547
  7580   003A26                     l247:
  7581                           
  7582                           ; BSR set to: 0
  7583   003A26  9EC0               	bcf	192,7,c	;volatile
  7584   003A28                     l8547:
  7585                           
  7586                           ; BSR set to: 0
  7587                           ;MCAL_LAYER/ADC/adc.c: 74:          if (&(pin->voltage_reference_flag) == 1){do {ADCON1b
      +                          its.VCFG0=1;ADCON1bits.VCFG1=1;}while(0);}
  7588   003A28  0E06               	movlw	6
  7589   003A2A  2591               	addwf	ADC_Init@pin& (0+255),w,b
  7590   003A2C  6F93               	movwf	??_ADC_Init& (0+255),b
  7591   003A2E  0E00               	movlw	0
  7592   003A30  2192               	addwfc	(ADC_Init@pin+1)& (0+255),w,b
  7593   003A32  6F94               	movwf	(??_ADC_Init+1)& (0+255),b
  7594   003A34  0593               	decf	??_ADC_Init& (0+255),w,b
  7595   003A36  1194               	iorwf	(??_ADC_Init+1)& (0+255),w,b
  7596   003A38  A4D8               	btfss	status,2,c
  7597   003A3A  EF21  F01D         	goto	u8721
  7598   003A3E  EF23  F01D         	goto	u8720
  7599   003A42                     u8721:
  7600   003A42  EF27  F01D         	goto	l253
  7601   003A46                     u8720:
  7602   003A46                     
  7603                           ; BSR set to: 0
  7604   003A46  88C1               	bsf	193,4,c	;volatile
  7605   003A48  8AC1               	bsf	193,5,c	;volatile
  7606   003A4A  EF29  F01D         	goto	l252
  7607   003A4E                     l253:
  7608                           
  7609                           ; BSR set to: 0
  7610   003A4E  98C1               	bcf	193,4,c	;volatile
  7611   003A50  9AC1               	bcf	193,5,c	;volatile
  7612   003A52                     l252:
  7613                           
  7614                           ; BSR set to: 0
  7615                           ;MCAL_LAYER/ADC/adc.c: 79:         (ADCON0bits.ADON =1);
  7616   003A52  80C2               	bsf	194,0,c	;volatile
  7617   003A54                     l255:
  7618                           
  7619                           ; BSR set to: 0
  7620   003A54  0012               	return		;funcret
  7621   003A56                     __end_of_ADC_Init:
  7622                           	callstack 0
  7623                           
  7624 ;; *************** function _ADC_GetConversion *****************
  7625 ;; Defined at:
  7626 ;;		line 196 in file "MCAL_LAYER/ADC/adc.c"
  7627 ;; Parameters:    Size  Location     Type
  7628 ;;  pin             2   21[BANK0 ] PTR const struct .
  7629 ;;		 -> Tempe_reader(8), 
  7630 ;;  channel         1   23[BANK0 ] enum E3044
  7631 ;;  result          1   24[BANK0 ] PTR unsigned char 
  7632 ;;		 -> adc_read(2), 
  7633 ;; Auto vars:     Size  Location     Type
  7634 ;;  ret             1    0        unsigned char 
  7635 ;; Return value:  Size  Location     Type
  7636 ;;                  1    wreg      unsigned char 
  7637 ;; Registers used:
  7638 ;;		wreg, fsr2l, fsr2h, status,2, status,0, cstack
  7639 ;; Tracked objects:
  7640 ;;		On entry : 0/0
  7641 ;;		On exit  : 0/0
  7642 ;;		Unchanged: 0/0
  7643 ;; Data sizes:     COMRAM   BANK0   BANK1   BANK2   BANK3   BANK4   BANK5   BANK6   BANK7   BANK8   BANK9  BANK10  BANK1
      +1  BANK12  BANK13  BANK14  BANK15
  7644 ;;      Params:         0       4       0       0       0       0       0       0       0       0       0       0       
      +0       0       0       0       0
  7645 ;;      Locals:         0       0       0       0       0       0       0       0       0       0       0       0       
      +0       0       0       0       0
  7646 ;;      Temps:          0       0       0       0       0       0       0       0       0       0       0       0       
      +0       0       0       0       0
  7647 ;;      Totals:         0       4       0       0       0       0       0       0       0       0       0       0       
      +0       0       0       0       0
  7648 ;;Total ram usage:        4 bytes
  7649 ;; Hardware stack levels used: 1
  7650 ;; Hardware stack levels required when called: 11
  7651 ;; This function calls:
  7652 ;;		_ADC_GetResult
  7653 ;;		_ADC_Select_channel
  7654 ;;		_ADC_StartConversion
  7655 ;; This function is called by:
  7656 ;;		_main
  7657 ;; This function uses a non-reentrant model
  7658 ;;
  7659                           
  7660                           	psect	text32
  7661   004492                     __ptext32:
  7662                           	callstack 0
  7663   004492                     _ADC_GetConversion:
  7664                           	callstack 19
  7665   004492                     
  7666                           ;MCAL_LAYER/ADC/adc.c: 200:     if (((void*)0) == pin && ((void*)0) == result){
  7667   004492  0100               	movlb	0	; () banked
  7668   004494  5195               	movf	ADC_GetConversion@pin& (0+255),w,b
  7669   004496  1196               	iorwf	(ADC_GetConversion@pin+1)& (0+255),w,b
  7670   004498  A4D8               	btfss	status,2,c
  7671   00449A  EF51  F022         	goto	u8951
  7672   00449E  EF53  F022         	goto	u8950
  7673   0044A2                     u8951:
  7674   0044A2  EF5D  F022         	goto	l8763
  7675   0044A6                     u8950:
  7676   0044A6                     
  7677                           ; BSR set to: 0
  7678   0044A6  5198               	movf	ADC_GetConversion@result& (0+255),w,b
  7679   0044A8  A4D8               	btfss	status,2,c
  7680   0044AA  EF59  F022         	goto	u8961
  7681   0044AE  EF5B  F022         	goto	u8960
  7682   0044B2                     u8961:
  7683   0044B2  EF5D  F022         	goto	l8763
  7684   0044B6                     u8960:
  7685   0044B6                     
  7686                           ; BSR set to: 0
  7687                           ;MCAL_LAYER/ADC/adc.c: 202:     }
  7688   0044B6  EF7A  F022         	goto	l290
  7689   0044BA                     l8763:
  7690                           
  7691                           ; BSR set to: 0
  7692                           ;MCAL_LAYER/ADC/adc.c: 205:         ADC_Select_channel(pin,channel);
  7693   0044BA  C095  F091         	movff	ADC_GetConversion@pin,ADC_Select_channel@pin
  7694   0044BE  C096  F092         	movff	ADC_GetConversion@pin+1,ADC_Select_channel@pin+1
  7695   0044C2  C097  F093         	movff	ADC_GetConversion@channel,ADC_Select_channel@channel
  7696   0044C6  EC31  F025         	call	_ADC_Select_channel	;wreg free
  7697                           
  7698                           ;MCAL_LAYER/ADC/adc.c: 207:         ADC_StartConversion(pin);
  7699   0044CA  C095  F08E         	movff	ADC_GetConversion@pin,ADC_StartConversion@pin
  7700   0044CE  C096  F08F         	movff	ADC_GetConversion@pin+1,ADC_StartConversion@pin+1
  7701   0044D2  EC8F  F025         	call	_ADC_StartConversion	;wreg free
  7702   0044D6                     l287:
  7703   0044D6  B2C2               	btfsc	194,1,c	;volatile
  7704   0044D8  EF70  F022         	goto	u8971
  7705   0044DC  EF72  F022         	goto	u8970
  7706   0044E0                     u8971:
  7707   0044E0  EF6B  F022         	goto	l287
  7708   0044E4                     u8970:
  7709   0044E4                     
  7710                           ;MCAL_LAYER/ADC/adc.c: 211:        ADC_GetResult(pin,result);
  7711   0044E4  C095  F08E         	movff	ADC_GetConversion@pin,ADC_GetResult@pin
  7712   0044E8  C096  F08F         	movff	ADC_GetConversion@pin+1,ADC_GetResult@pin+1
  7713   0044EC  C098  F090         	movff	ADC_GetConversion@result,ADC_GetResult@result
  7714   0044F0  ECB1  F01F         	call	_ADC_GetResult	;wreg free
  7715   0044F4                     l290:
  7716   0044F4  0012               	return		;funcret
  7717   0044F6                     __end_of_ADC_GetConversion:
  7718                           	callstack 0
  7719                           
  7720 ;; *************** function _ADC_StartConversion *****************
  7721 ;; Defined at:
  7722 ;;		line 130 in file "MCAL_LAYER/ADC/adc.c"
  7723 ;; Parameters:    Size  Location     Type
  7724 ;;  pin             2   14[BANK0 ] PTR const struct .
  7725 ;;		 -> Tempe_reader(8), 
  7726 ;; Auto vars:     Size  Location     Type
  7727 ;;  ret             1    0        unsigned char 
  7728 ;; Return value:  Size  Location     Type
  7729 ;;                  1    wreg      unsigned char 
  7730 ;; Registers used:
  7731 ;;		wreg, status,2, status,0
  7732 ;; Tracked objects:
  7733 ;;		On entry : 0/0
  7734 ;;		On exit  : 0/0
  7735 ;;		Unchanged: 0/0
  7736 ;; Data sizes:     COMRAM   BANK0   BANK1   BANK2   BANK3   BANK4   BANK5   BANK6   BANK7   BANK8   BANK9  BANK10  BANK1
      +1  BANK12  BANK13  BANK14  BANK15
  7737 ;;      Params:         0       2       0       0       0       0       0       0       0       0       0       0       
      +0       0       0       0       0
  7738 ;;      Locals:         0       0       0       0       0       0       0       0       0       0       0       0       
      +0       0       0       0       0
  7739 ;;      Temps:          0       0       0       0       0       0       0       0       0       0       0       0       
      +0       0       0       0       0
  7740 ;;      Totals:         0       2       0       0       0       0       0       0       0       0       0       0       
      +0       0       0       0       0
  7741 ;;Total ram usage:        2 bytes
  7742 ;; Hardware stack levels used: 1
  7743 ;; Hardware stack levels required when called: 9
  7744 ;; This function calls:
  7745 ;;		Nothing
  7746 ;; This function is called by:
  7747 ;;		_ADC_GetConversion
  7748 ;;		_ADC_GetConversion_Interrupt
  7749 ;; This function uses a non-reentrant model
  7750 ;;
  7751                           
  7752                           	psect	text33
  7753   004B1E                     __ptext33:
  7754                           	callstack 0
  7755   004B1E                     _ADC_StartConversion:
  7756                           	callstack 20
  7757   004B1E                     
  7758                           ;MCAL_LAYER/ADC/adc.c: 133:     if (((void*)0) == pin){
  7759   004B1E  0100               	movlb	0	; () banked
  7760   004B20  518E               	movf	ADC_StartConversion@pin& (0+255),w,b
  7761   004B22  118F               	iorwf	(ADC_StartConversion@pin+1)& (0+255),w,b
  7762   004B24  A4D8               	btfss	status,2,c
  7763   004B26  EF97  F025         	goto	u8741
  7764   004B2A  EF99  F025         	goto	u8740
  7765   004B2E                     u8741:
  7766   004B2E  EF9B  F025         	goto	l268
  7767   004B32                     u8740:
  7768   004B32                     
  7769                           ; BSR set to: 0
  7770                           ;MCAL_LAYER/ADC/adc.c: 135:     }
  7771   004B32  EF9C  F025         	goto	l270
  7772   004B36                     l268:
  7773                           
  7774                           ; BSR set to: 0
  7775                           ;MCAL_LAYER/ADC/adc.c: 138:         (ADCON0bits.GODONE=1);
  7776   004B36  82C2               	bsf	194,1,c	;volatile
  7777   004B38                     l270:
  7778                           
  7779                           ; BSR set to: 0
  7780   004B38  0012               	return		;funcret
  7781   004B3A                     __end_of_ADC_StartConversion:
  7782                           	callstack 0
  7783                           
  7784 ;; *************** function _ADC_Select_channel *****************
  7785 ;; Defined at:
  7786 ;;		line 111 in file "MCAL_LAYER/ADC/adc.c"
  7787 ;; Parameters:    Size  Location     Type
  7788 ;;  pin             2   17[BANK0 ] PTR const struct .
  7789 ;;		 -> Tempe_reader(8), 
  7790 ;;  channel         1   19[BANK0 ] enum E3044
  7791 ;; Auto vars:     Size  Location     Type
  7792 ;;  ret             1    0        unsigned char 
  7793 ;; Return value:  Size  Location     Type
  7794 ;;                  1    wreg      unsigned char 
  7795 ;; Registers used:
  7796 ;;		wreg, status,2, status,0, cstack
  7797 ;; Tracked objects:
  7798 ;;		On entry : 0/0
  7799 ;;		On exit  : 0/0
  7800 ;;		Unchanged: 0/0
  7801 ;; Data sizes:     COMRAM   BANK0   BANK1   BANK2   BANK3   BANK4   BANK5   BANK6   BANK7   BANK8   BANK9  BANK10  BANK1
      +1  BANK12  BANK13  BANK14  BANK15
  7802 ;;      Params:         0       3       0       0       0       0       0       0       0       0       0       0       
      +0       0       0       0       0
  7803 ;;      Locals:         0       0       0       0       0       0       0       0       0       0       0       0       
      +0       0       0       0       0
  7804 ;;      Temps:          0       1       0       0       0       0       0       0       0       0       0       0       
      +0       0       0       0       0
  7805 ;;      Totals:         0       4       0       0       0       0       0       0       0       0       0       0       
      +0       0       0       0       0
  7806 ;;Total ram usage:        4 bytes
  7807 ;; Hardware stack levels used: 1
  7808 ;; Hardware stack levels required when called: 10
  7809 ;; This function calls:
  7810 ;;		_ADC_Set_bit
  7811 ;; This function is called by:
  7812 ;;		_ADC_GetConversion
  7813 ;;		_ADC_GetConversion_Interrupt
  7814 ;; This function uses a non-reentrant model
  7815 ;;
  7816                           
  7817                           	psect	text34
  7818   004A62                     __ptext34:
  7819                           	callstack 0
  7820   004A62                     _ADC_Select_channel:
  7821                           	callstack 19
  7822   004A62                     
  7823                           ;MCAL_LAYER/ADC/adc.c: 114:     if (((void*)0) == pin){
  7824   004A62  0100               	movlb	0	; () banked
  7825   004A64  5191               	movf	ADC_Select_channel@pin& (0+255),w,b
  7826   004A66  1192               	iorwf	(ADC_Select_channel@pin+1)& (0+255),w,b
  7827   004A68  A4D8               	btfss	status,2,c
  7828   004A6A  EF39  F025         	goto	u8731
  7829   004A6E  EF3B  F025         	goto	u8730
  7830   004A72                     u8731:
  7831   004A72  EF3D  F025         	goto	l8555
  7832   004A76                     u8730:
  7833   004A76                     
  7834                           ; BSR set to: 0
  7835                           ;MCAL_LAYER/ADC/adc.c: 116:     }
  7836   004A76  EF49  F025         	goto	l265
  7837   004A7A                     l8555:
  7838                           
  7839                           ; BSR set to: 0
  7840                           ;MCAL_LAYER/ADC/adc.c: 119:         ADCON0bits.CHS=channel;
  7841   004A7A  C093  F094         	movff	ADC_Select_channel@channel,??_ADC_Select_channel
  7842   004A7E  4794               	rlncf	??_ADC_Select_channel& (0+255),f,b
  7843   004A80  4794               	rlncf	??_ADC_Select_channel& (0+255),f,b
  7844   004A82  50C2               	movf	194,w,c	;volatile
  7845   004A84  1994               	xorwf	??_ADC_Select_channel& (0+255),w,b
  7846   004A86  0BC3               	andlw	-61
  7847   004A88  1994               	xorwf	??_ADC_Select_channel& (0+255),w,b
  7848   004A8A  6EC2               	movwf	194,c	;volatile
  7849   004A8C                     
  7850                           ; BSR set to: 0
  7851                           ;MCAL_LAYER/ADC/adc.c: 120:          ADC_Set_bit(channel);
  7852   004A8C  5193               	movf	ADC_Select_channel@channel& (0+255),w,b
  7853   004A8E  EC2B  F01D         	call	_ADC_Set_bit
  7854   004A92                     l265:
  7855   004A92  0012               	return		;funcret
  7856   004A94                     __end_of_ADC_Select_channel:
  7857                           	callstack 0
  7858                           
  7859 ;; *************** function _ADC_Set_bit *****************
  7860 ;; Defined at:
  7861 ;;		line 243 in file "MCAL_LAYER/ADC/adc.c"
  7862 ;; Parameters:    Size  Location     Type
  7863 ;;  channel         1    wreg     enum E3044
  7864 ;; Auto vars:     Size  Location     Type
  7865 ;;  channel         1   16[BANK0 ] enum E3044
  7866 ;; Return value:  Size  Location     Type
  7867 ;;                  1    wreg      void 
  7868 ;; Registers used:
  7869 ;;		wreg, status,2, status,0
  7870 ;; Tracked objects:
  7871 ;;		On entry : 0/0
  7872 ;;		On exit  : 0/0
  7873 ;;		Unchanged: 0/0
  7874 ;; Data sizes:     COMRAM   BANK0   BANK1   BANK2   BANK3   BANK4   BANK5   BANK6   BANK7   BANK8   BANK9  BANK10  BANK1
      +1  BANK12  BANK13  BANK14  BANK15
  7875 ;;      Params:         0       0       0       0       0       0       0       0       0       0       0       0       
      +0       0       0       0       0
  7876 ;;      Locals:         0       1       0       0       0       0       0       0       0       0       0       0       
      +0       0       0       0       0
  7877 ;;      Temps:          0       2       0       0       0       0       0       0       0       0       0       0       
      +0       0       0       0       0
  7878 ;;      Totals:         0       3       0       0       0       0       0       0       0       0       0       0       
      +0       0       0       0       0
  7879 ;;Total ram usage:        3 bytes
  7880 ;; Hardware stack levels used: 1
  7881 ;; Hardware stack levels required when called: 9
  7882 ;; This function calls:
  7883 ;;		Nothing
  7884 ;; This function is called by:
  7885 ;;		_ADC_Init
  7886 ;;		_ADC_Select_channel
  7887 ;; This function uses a non-reentrant model
  7888 ;;
  7889                           
  7890                           	psect	text35
  7891   003A56                     __ptext35:
  7892                           	callstack 0
  7893   003A56                     _ADC_Set_bit:
  7894                           	callstack 19
  7895                           
  7896                           ;incstack = 0
  7897                           ;ADC_Set_bit@channel stored from wreg
  7898   003A56  0100               	movlb	0	; () banked
  7899   003A58  6F90               	movwf	ADC_Set_bit@channel& (0+255),b
  7900   003A5A                     
  7901                           ;MCAL_LAYER/ADC/adc.c: 244:     switch (channel){
  7902   003A5A  EF56  F01D         	goto	l5861
  7903   003A5E                     l5833:
  7904                           
  7905                           ; BSR set to: 0
  7906   003A5E  8092               	bsf	146,0,c	;volatile
  7907   003A60  EF98  F01D         	goto	l313
  7908   003A64                     l5835:
  7909                           
  7910                           ; BSR set to: 0
  7911   003A64  8292               	bsf	146,1,c	;volatile
  7912   003A66  EF98  F01D         	goto	l313
  7913   003A6A                     l5837:
  7914                           
  7915                           ; BSR set to: 0
  7916   003A6A  8492               	bsf	146,2,c	;volatile
  7917   003A6C  EF98  F01D         	goto	l313
  7918   003A70                     l5839:
  7919                           
  7920                           ; BSR set to: 0
  7921   003A70  8692               	bsf	146,3,c	;volatile
  7922   003A72  EF98  F01D         	goto	l313
  7923   003A76                     l5841:
  7924                           
  7925                           ; BSR set to: 0
  7926   003A76  8A92               	bsf	146,5,c	;volatile
  7927   003A78  EF98  F01D         	goto	l313
  7928   003A7C                     l5843:
  7929                           
  7930                           ; BSR set to: 0
  7931   003A7C  8096               	bsf	150,0,c	;volatile
  7932   003A7E  EF98  F01D         	goto	l313
  7933   003A82                     l5845:
  7934                           
  7935                           ; BSR set to: 0
  7936   003A82  8296               	bsf	150,1,c	;volatile
  7937   003A84  EF98  F01D         	goto	l313
  7938   003A88                     l5847:
  7939                           
  7940                           ; BSR set to: 0
  7941   003A88  8496               	bsf	150,2,c	;volatile
  7942   003A8A  EF98  F01D         	goto	l313
  7943   003A8E                     l5849:
  7944                           
  7945                           ; BSR set to: 0
  7946   003A8E  8493               	bsf	147,2,c	;volatile
  7947   003A90  EF98  F01D         	goto	l313
  7948   003A94                     l5851:
  7949                           
  7950                           ; BSR set to: 0
  7951   003A94  8693               	bsf	147,3,c	;volatile
  7952   003A96  EF98  F01D         	goto	l313
  7953   003A9A                     l5853:
  7954                           
  7955                           ; BSR set to: 0
  7956   003A9A  8293               	bsf	147,1,c	;volatile
  7957   003A9C  EF98  F01D         	goto	l313
  7958   003AA0                     l5855:
  7959                           
  7960                           ; BSR set to: 0
  7961   003AA0  8893               	bsf	147,4,c	;volatile
  7962   003AA2  EF98  F01D         	goto	l313
  7963   003AA6                     l5857:
  7964                           
  7965                           ; BSR set to: 0
  7966   003AA6  8093               	bsf	147,0,c	;volatile
  7967   003AA8  EF98  F01D         	goto	l313
  7968   003AAC                     l5861:
  7969   003AAC  0100               	movlb	0	; () banked
  7970   003AAE  5190               	movf	ADC_Set_bit@channel& (0+255),w,b
  7971   003AB0  6F8E               	movwf	??_ADC_Set_bit& (0+255),b
  7972   003AB2  6B8F               	clrf	(??_ADC_Set_bit+1)& (0+255),b
  7973                           
  7974                           ; Switch on 2 bytes has been partitioned into a top level switch of size 1, and 1 sub-sw
      +                          itches
  7975                           ; Switch size 1, requested type "simple"
  7976                           ; Number of cases is 1, Range of values is 0 to 0
  7977                           ; switch strategies available:
  7978                           ; Name         Instructions Cycles
  7979                           ; simple_byte            4     3 (average)
  7980                           ;	Chosen strategy is simple_byte
  7981   003AB4  518F               	movf	(??_ADC_Set_bit+1)& (0+255),w,b
  7982   003AB6  0A00               	xorlw	0	; case 0
  7983   003AB8  B4D8               	btfsc	status,2,c
  7984   003ABA  EF61  F01D         	goto	l9483
  7985   003ABE  EF98  F01D         	goto	l313
  7986   003AC2                     l9483:
  7987                           
  7988                           ; BSR set to: 0
  7989                           ; Switch size 1, requested type "simple"
  7990                           ; Number of cases is 13, Range of values is 0 to 12
  7991                           ; switch strategies available:
  7992                           ; Name         Instructions Cycles
  7993                           ; simple_byte           40    21 (average)
  7994                           ;	Chosen strategy is simple_byte
  7995   003AC2  518E               	movf	??_ADC_Set_bit& (0+255),w,b
  7996   003AC4  0A00               	xorlw	0	; case 0
  7997   003AC6  B4D8               	btfsc	status,2,c
  7998   003AC8  EF2F  F01D         	goto	l5833
  7999   003ACC  0A01               	xorlw	1	; case 1
  8000   003ACE  B4D8               	btfsc	status,2,c
  8001   003AD0  EF32  F01D         	goto	l5835
  8002   003AD4  0A03               	xorlw	3	; case 2
  8003   003AD6  B4D8               	btfsc	status,2,c
  8004   003AD8  EF35  F01D         	goto	l5837
  8005   003ADC  0A01               	xorlw	1	; case 3
  8006   003ADE  B4D8               	btfsc	status,2,c
  8007   003AE0  EF38  F01D         	goto	l5839
  8008   003AE4  0A07               	xorlw	7	; case 4
  8009   003AE6  B4D8               	btfsc	status,2,c
  8010   003AE8  EF3B  F01D         	goto	l5841
  8011   003AEC  0A01               	xorlw	1	; case 5
  8012   003AEE  B4D8               	btfsc	status,2,c
  8013   003AF0  EF3E  F01D         	goto	l5843
  8014   003AF4  0A03               	xorlw	3	; case 6
  8015   003AF6  B4D8               	btfsc	status,2,c
  8016   003AF8  EF41  F01D         	goto	l5845
  8017   003AFC  0A01               	xorlw	1	; case 7
  8018   003AFE  B4D8               	btfsc	status,2,c
  8019   003B00  EF44  F01D         	goto	l5847
  8020   003B04  0A0F               	xorlw	15	; case 8
  8021   003B06  B4D8               	btfsc	status,2,c
  8022   003B08  EF47  F01D         	goto	l5849
  8023   003B0C  0A01               	xorlw	1	; case 9
  8024   003B0E  B4D8               	btfsc	status,2,c
  8025   003B10  EF4A  F01D         	goto	l5851
  8026   003B14  0A03               	xorlw	3	; case 10
  8027   003B16  B4D8               	btfsc	status,2,c
  8028   003B18  EF4D  F01D         	goto	l5853
  8029   003B1C  0A01               	xorlw	1	; case 11
  8030   003B1E  B4D8               	btfsc	status,2,c
  8031   003B20  EF50  F01D         	goto	l5855
  8032   003B24  0A07               	xorlw	7	; case 12
  8033   003B26  B4D8               	btfsc	status,2,c
  8034   003B28  EF53  F01D         	goto	l5857
  8035   003B2C  EF98  F01D         	goto	l313
  8036   003B30                     l313:
  8037                           
  8038                           ; BSR set to: 0
  8039   003B30  0012               	return		;funcret
  8040   003B32                     __end_of_ADC_Set_bit:
  8041                           	callstack 0
  8042                           
  8043 ;; *************** function _ADC_GetResult *****************
  8044 ;; Defined at:
  8045 ;;		line 171 in file "MCAL_LAYER/ADC/adc.c"
  8046 ;; Parameters:    Size  Location     Type
  8047 ;;  pin             2   14[BANK0 ] PTR const struct .
  8048 ;;		 -> Tempe_reader(8), 
  8049 ;;  result          1   16[BANK0 ] PTR unsigned short 
  8050 ;;		 -> adc_read(2), 
  8051 ;; Auto vars:     Size  Location     Type
  8052 ;;  ret             1    0        unsigned char 
  8053 ;; Return value:  Size  Location     Type
  8054 ;;                  1    wreg      unsigned char 
  8055 ;; Registers used:
  8056 ;;		wreg, fsr2l, fsr2h, status,2, status,0
  8057 ;; Tracked objects:
  8058 ;;		On entry : 0/0
  8059 ;;		On exit  : 0/0
  8060 ;;		Unchanged: 0/0
  8061 ;; Data sizes:     COMRAM   BANK0   BANK1   BANK2   BANK3   BANK4   BANK5   BANK6   BANK7   BANK8   BANK9  BANK10  BANK1
      +1  BANK12  BANK13  BANK14  BANK15
  8062 ;;      Params:         0       3       0       0       0       0       0       0       0       0       0       0       
      +0       0       0       0       0
  8063 ;;      Locals:         0       0       0       0       0       0       0       0       0       0       0       0       
      +0       0       0       0       0
  8064 ;;      Temps:          0       4       0       0       0       0       0       0       0       0       0       0       
      +0       0       0       0       0
  8065 ;;      Totals:         0       7       0       0       0       0       0       0       0       0       0       0       
      +0       0       0       0       0
  8066 ;;Total ram usage:        7 bytes
  8067 ;; Hardware stack levels used: 1
  8068 ;; Hardware stack levels required when called: 9
  8069 ;; This function calls:
  8070 ;;		Nothing
  8071 ;; This function is called by:
  8072 ;;		_ADC_GetConversion
  8073 ;; This function uses a non-reentrant model
  8074 ;;
  8075                           
  8076                           	psect	text36
  8077   003F62                     __ptext36:
  8078                           	callstack 0
  8079   003F62                     _ADC_GetResult:
  8080                           	callstack 20
  8081   003F62                     
  8082                           ;MCAL_LAYER/ADC/adc.c: 175:     if (((void*)0) == pin && ((void*)0) == result ){
  8083   003F62  0100               	movlb	0	; () banked
  8084   003F64  518E               	movf	ADC_GetResult@pin& (0+255),w,b
  8085   003F66  118F               	iorwf	(ADC_GetResult@pin+1)& (0+255),w,b
  8086   003F68  A4D8               	btfss	status,2,c
  8087   003F6A  EFB9  F01F         	goto	u8751
  8088   003F6E  EFBB  F01F         	goto	u8750
  8089   003F72                     u8751:
  8090   003F72  EFC5  F01F         	goto	l8575
  8091   003F76                     u8750:
  8092   003F76                     
  8093                           ; BSR set to: 0
  8094   003F76  5190               	movf	ADC_GetResult@result& (0+255),w,b
  8095   003F78  A4D8               	btfss	status,2,c
  8096   003F7A  EFC1  F01F         	goto	u8761
  8097   003F7E  EFC3  F01F         	goto	u8760
  8098   003F82                     u8761:
  8099   003F82  EFC5  F01F         	goto	l8575
  8100   003F86                     u8760:
  8101   003F86                     
  8102                           ; BSR set to: 0
  8103                           ;MCAL_LAYER/ADC/adc.c: 177:     }
  8104   003F86  EFFE  F01F         	goto	l282
  8105   003F8A                     l8575:
  8106                           
  8107                           ; BSR set to: 0
  8108                           ;MCAL_LAYER/ADC/adc.c: 180:         if (pin->Result_flag == 1){
  8109   003F8A  EE20 F007          	lfsr	2,7
  8110   003F8E  518E               	movf	ADC_GetResult@pin& (0+255),w,b
  8111   003F90  26D9               	addwf	fsr2l,f,c
  8112   003F92  518F               	movf	(ADC_GetResult@pin+1)& (0+255),w,b
  8113   003F94  22DA               	addwfc	fsr2h,f,c
  8114   003F96  04DE               	decf	postinc2,w,c
  8115   003F98  A4D8               	btfss	status,2,c
  8116   003F9A  EFD1  F01F         	goto	u8771
  8117   003F9E  EFD3  F01F         	goto	u8770
  8118   003FA2                     u8771:
  8119   003FA2  EFE5  F01F         	goto	l8579
  8120   003FA6                     u8770:
  8121   003FA6                     
  8122                           ; BSR set to: 0
  8123                           ;MCAL_LAYER/ADC/adc.c: 182:             *result= (uint_16)(ADRESL + (ADRESH << 8));
  8124   003FA6  50C4               	movf	196,w,c	;volatile
  8125   003FA8  6F92               	movwf	(??_ADC_GetResult+1)& (0+255),b
  8126   003FAA  6B91               	clrf	??_ADC_GetResult& (0+255),b
  8127   003FAC  50C3               	movf	195,w,c	;volatile
  8128   003FAE  2591               	addwf	??_ADC_GetResult& (0+255),w,b
  8129   003FB0  6F93               	movwf	(??_ADC_GetResult+2)& (0+255),b
  8130   003FB2  0E00               	movlw	0
  8131   003FB4  2192               	addwfc	(??_ADC_GetResult+1)& (0+255),w,b
  8132   003FB6  6F94               	movwf	(??_ADC_GetResult+3)& (0+255),b
  8133   003FB8  5190               	movf	ADC_GetResult@result& (0+255),w,b
  8134   003FBA  6ED9               	movwf	fsr2l,c
  8135   003FBC  6ADA               	clrf	fsr2h,c
  8136   003FBE  C093  FFDE         	movff	??_ADC_GetResult+2,postinc2
  8137   003FC2  C094  FFDD         	movff	??_ADC_GetResult+3,postdec2
  8138                           
  8139                           ;MCAL_LAYER/ADC/adc.c: 183:         }
  8140   003FC6  EFFE  F01F         	goto	l282
  8141   003FCA                     l8579:
  8142                           
  8143                           ; BSR set to: 0
  8144                           ;MCAL_LAYER/ADC/adc.c: 185:              *result= (uint_16) (((ADRESH << 8)+ADRESL)>>6);
  8145   003FCA  50C3               	movf	195,w,c	;volatile
  8146   003FCC  CFC4 F091          	movff	4036,??_ADC_GetResult	;volatile
  8147   003FD0  6B92               	clrf	(??_ADC_GetResult+1)& (0+255),b
  8148   003FD2  C091  F092         	movff	??_ADC_GetResult,??_ADC_GetResult+1
  8149   003FD6  6B91               	clrf	??_ADC_GetResult& (0+255),b
  8150   003FD8  2791               	addwf	??_ADC_GetResult& (0+255),f,b
  8151   003FDA  0E00               	movlw	0
  8152   003FDC  2392               	addwfc	(??_ADC_GetResult+1)& (0+255),f,b
  8153   003FDE  0E06               	movlw	6
  8154   003FE0  6F93               	movwf	(??_ADC_GetResult+2)& (0+255),b
  8155   003FE2                     u8785:
  8156   003FE2  3592               	rlcf	(??_ADC_GetResult+1)& (0+255),w,b
  8157   003FE4  3392               	rrcf	(??_ADC_GetResult+1)& (0+255),f,b
  8158   003FE6  3391               	rrcf	??_ADC_GetResult& (0+255),f,b
  8159   003FE8  2F93               	decfsz	(??_ADC_GetResult+2)& (0+255),f,b
  8160   003FEA  EFF1  F01F         	goto	u8785
  8161   003FEE  5190               	movf	ADC_GetResult@result& (0+255),w,b
  8162   003FF0  6ED9               	movwf	fsr2l,c
  8163   003FF2  6ADA               	clrf	fsr2h,c
  8164   003FF4  C091  FFDE         	movff	??_ADC_GetResult,postinc2
  8165   003FF8  C092  FFDD         	movff	??_ADC_GetResult+1,postdec2
  8166   003FFC                     l282:
  8167                           
  8168                           ; BSR set to: 0
  8169   003FFC  0012               	return		;funcret
  8170   003FFE                     __end_of_ADC_GetResult:
  8171                           	callstack 0
  8172                           
  8173 ;; *************** function _InterruptManger *****************
  8174 ;; Defined at:
  8175 ;;		line 56 in file "MCAL_LAYER/interrupt/mcal_interrupt_mamager.c"
  8176 ;; Parameters:    Size  Location     Type
  8177 ;;		None
  8178 ;; Auto vars:     Size  Location     Type
  8179 ;;		None
  8180 ;; Return value:  Size  Location     Type
  8181 ;;                  1    wreg      void 
  8182 ;; Registers used:
  8183 ;;		wreg, fsr0l, fsr0h, fsr1l, fsr1h, fsr2l, fsr2h, status,2, status,0, pcl, pclath, pclatu, tosl, tblptrl, tblptrh, tbl
      +ptru, prodl, prodh, cstack
  8184 ;; Tracked objects:
  8185 ;;		On entry : 0/0
  8186 ;;		On exit  : 0/0
  8187 ;;		Unchanged: 0/0
  8188 ;; Data sizes:     COMRAM   BANK0   BANK1   BANK2   BANK3   BANK4   BANK5   BANK6   BANK7   BANK8   BANK9  BANK10  BANK1
      +1  BANK12  BANK13  BANK14  BANK15
  8189 ;;      Params:         0       0       0       0       0       0       0       0       0       0       0       0       
      +0       0       0       0       0
  8190 ;;      Locals:         0       0       0       0       0       0       0       0       0       0       0       0       
      +0       0       0       0       0
  8191 ;;      Temps:          0      14       0       0       0       0       0       0       0       0       0       0       
      +0       0       0       0       0
  8192 ;;      Totals:         0      14       0       0       0       0       0       0       0       0       0       0       
      +0       0       0       0       0
  8193 ;;Total ram usage:       14 bytes
  8194 ;; Hardware stack levels used: 1
  8195 ;; Hardware stack levels required when called: 8
  8196 ;; This function calls:
  8197 ;;		_ADC_ISR
  8198 ;;		_CCP1_ISR
  8199 ;;		_CCP2_ISR
  8200 ;;		_INT0_ISR
  8201 ;;		_INT1_ISR
  8202 ;;		_INT2_ISR
  8203 ;;		_TMR1_ISR
  8204 ;;		_TMR2_ISR
  8205 ;;		_TMR3_ISR
  8206 ;;		_Timer0_ISR
  8207 ;; This function is called by:
  8208 ;;		Interrupt level 2
  8209 ;; This function uses a non-reentrant model
  8210 ;;
  8211                           
  8212                           	psect	intcode
  8213   000008                     __pintcode:
  8214                           	callstack 0
  8215   000008                     _InterruptManger:
  8216                           	callstack 16
  8217                           
  8218                           ; BSR set to: 0
  8219                           ;incstack = 0
  8220   000008  8272               	bsf	int$flags,1,c	;set compiler interrupt flag (level 2)
  8221   00000A  EDF8  F013         	call	int_func,f	;refresh shadow registers
  8222                           
  8223                           	psect	intcode_body
  8224   0027F0                     __pintcode_body:
  8225                           	callstack 16
  8226   0027F0                     int_func:
  8227                           	callstack 16
  8228   0027F0  0006               	pop		; remove dummy address from shadow register refresh
  8229   0027F2  CFFA F080          	movff	pclath,??_InterruptManger
  8230   0027F6  CFFB F081          	movff	pclatu,??_InterruptManger+1
  8231   0027FA  CFE9 F082          	movff	fsr0l,??_InterruptManger+2
  8232   0027FE  CFEA F083          	movff	fsr0h,??_InterruptManger+3
  8233   002802  CFE1 F084          	movff	fsr1l,??_InterruptManger+4
  8234   002806  CFE2 F085          	movff	fsr1h,??_InterruptManger+5
  8235   00280A  CFD9 F086          	movff	fsr2l,??_InterruptManger+6
  8236   00280E  CFDA F087          	movff	fsr2h,??_InterruptManger+7
  8237   002812  CFF3 F088          	movff	prodl,??_InterruptManger+8
  8238   002816  CFF4 F089          	movff	prodh,??_InterruptManger+9
  8239   00281A  CFF6 F08A          	movff	tblptrl,??_InterruptManger+10
  8240   00281E  CFF7 F08B          	movff	tblptrh,??_InterruptManger+11
  8241   002822  CFF8 F08C          	movff	tblptru,??_InterruptManger+12
  8242   002826  CFF5 F08D          	movff	tablat,??_InterruptManger+13
  8243   00282A                     
  8244                           ;MCAL_LAYER/interrupt/mcal_interrupt_mamager.c: 58:     if ((1 == INTCONbits.INT0IE)&&(1
      +                           == INTCONbits.INT0IF)){
  8245   00282A  A8F2               	btfss	242,4,c	;volatile
  8246   00282C  EF1A  F014         	goto	i2u925_41
  8247   002830  EF1C  F014         	goto	i2u925_40
  8248   002834                     i2u925_41:
  8249   002834  EF25  F014         	goto	i2l9073
  8250   002838                     i2u925_40:
  8251   002838  A2F2               	btfss	242,1,c	;volatile
  8252   00283A  EF21  F014         	goto	i2u926_41
  8253   00283E  EF23  F014         	goto	i2u926_40
  8254   002842                     i2u926_41:
  8255   002842  EF25  F014         	goto	i2l9073
  8256   002846                     i2u926_40:
  8257   002846                     
  8258                           ;MCAL_LAYER/interrupt/mcal_interrupt_mamager.c: 59:         INT0_ISR();
  8259   002846  ECB7  F025         	call	_INT0_ISR	;wreg free
  8260   00284A                     i2l9073:
  8261                           
  8262                           ;MCAL_LAYER/interrupt/mcal_interrupt_mamager.c: 61:      if ((1 == INTCON3bits.INT1IE)&&
      +                          (1 == INTCON3bits.INT1IF)){
  8263   00284A  A6F0               	btfss	240,3,c	;volatile
  8264   00284C  EF2A  F014         	goto	i2u927_41
  8265   002850  EF2C  F014         	goto	i2u927_40
  8266   002854                     i2u927_41:
  8267   002854  EF35  F014         	goto	i2l9079
  8268   002858                     i2u927_40:
  8269   002858  A0F0               	btfss	240,0,c	;volatile
  8270   00285A  EF31  F014         	goto	i2u928_41
  8271   00285E  EF33  F014         	goto	i2u928_40
  8272   002862                     i2u928_41:
  8273   002862  EF35  F014         	goto	i2l9079
  8274   002866                     i2u928_40:
  8275   002866                     
  8276                           ;MCAL_LAYER/interrupt/mcal_interrupt_mamager.c: 62:         INT1_ISR();
  8277   002866  ECB5  F025         	call	_INT1_ISR	;wreg free
  8278   00286A                     i2l9079:
  8279                           
  8280                           ;MCAL_LAYER/interrupt/mcal_interrupt_mamager.c: 64:      if ((1 == INTCON3bits.INT2IE)&&
      +                          (1 == INTCON3bits.INT2IF)){
  8281   00286A  A8F0               	btfss	240,4,c	;volatile
  8282   00286C  EF3A  F014         	goto	i2u929_41
  8283   002870  EF3C  F014         	goto	i2u929_40
  8284   002874                     i2u929_41:
  8285   002874  EF45  F014         	goto	i2l9085
  8286   002878                     i2u929_40:
  8287   002878  A2F0               	btfss	240,1,c	;volatile
  8288   00287A  EF41  F014         	goto	i2u930_41
  8289   00287E  EF43  F014         	goto	i2u930_40
  8290   002882                     i2u930_41:
  8291   002882  EF45  F014         	goto	i2l9085
  8292   002886                     i2u930_40:
  8293   002886                     
  8294                           ;MCAL_LAYER/interrupt/mcal_interrupt_mamager.c: 65:         INT2_ISR();
  8295   002886  ECB3  F025         	call	_INT2_ISR	;wreg free
  8296   00288A                     i2l9085:
  8297                           
  8298                           ;MCAL_LAYER/interrupt/mcal_interrupt_mamager.c: 68:     if ((1 ==PIE1bits.ADIE )&&(1 ==P
      +                          IR1bits.ADIF )){
  8299   00288A  AC9D               	btfss	157,6,c	;volatile
  8300   00288C  EF4A  F014         	goto	i2u931_41
  8301   002890  EF4C  F014         	goto	i2u931_40
  8302   002894                     i2u931_41:
  8303   002894  EF55  F014         	goto	i2l9091
  8304   002898                     i2u931_40:
  8305   002898  AC9E               	btfss	158,6,c	;volatile
  8306   00289A  EF51  F014         	goto	i2u932_41
  8307   00289E  EF53  F014         	goto	i2u932_40
  8308   0028A2                     i2u932_41:
  8309   0028A2  EF55  F014         	goto	i2l9091
  8310   0028A6                     i2u932_40:
  8311   0028A6                     
  8312                           ;MCAL_LAYER/interrupt/mcal_interrupt_mamager.c: 69:         ADC_ISR();
  8313   0028A6  EC63  F025         	call	_ADC_ISR	;wreg free
  8314   0028AA                     i2l9091:
  8315                           
  8316                           ;MCAL_LAYER/interrupt/mcal_interrupt_mamager.c: 71:     if ((1 ==INTCONbits.TMR0IE )&&(1
      +                           ==INTCONbits.TMR0IF)){
  8317   0028AA  AAF2               	btfss	242,5,c	;volatile
  8318   0028AC  EF5A  F014         	goto	i2u933_41
  8319   0028B0  EF5C  F014         	goto	i2u933_40
  8320   0028B4                     i2u933_41:
  8321   0028B4  EF65  F014         	goto	i2l9097
  8322   0028B8                     i2u933_40:
  8323   0028B8  A4F2               	btfss	242,2,c	;volatile
  8324   0028BA  EF61  F014         	goto	i2u934_41
  8325   0028BE  EF63  F014         	goto	i2u934_40
  8326   0028C2                     i2u934_41:
  8327   0028C2  EF65  F014         	goto	i2l9097
  8328   0028C6                     i2u934_40:
  8329   0028C6                     
  8330                           ;MCAL_LAYER/interrupt/mcal_interrupt_mamager.c: 72:         Timer0_ISR();
  8331   0028C6  EC9D  F025         	call	_Timer0_ISR	;wreg free
  8332   0028CA                     i2l9097:
  8333                           
  8334                           ;MCAL_LAYER/interrupt/mcal_interrupt_mamager.c: 74:     if ((1 ==PIE1bits.TMR1IE )&&(1 =
      +                          =PIR1bits.TMR1IF)){
  8335   0028CA  A09D               	btfss	157,0,c	;volatile
  8336   0028CC  EF6A  F014         	goto	i2u935_41
  8337   0028D0  EF6C  F014         	goto	i2u935_40
  8338   0028D4                     i2u935_41:
  8339   0028D4  EF75  F014         	goto	i2l9103
  8340   0028D8                     i2u935_40:
  8341   0028D8  A09E               	btfss	158,0,c	;volatile
  8342   0028DA  EF71  F014         	goto	i2u936_41
  8343   0028DE  EF73  F014         	goto	i2u936_40
  8344   0028E2                     i2u936_41:
  8345   0028E2  EF75  F014         	goto	i2l9103
  8346   0028E6                     i2u936_40:
  8347   0028E6                     
  8348                           ;MCAL_LAYER/interrupt/mcal_interrupt_mamager.c: 75:         TMR1_ISR();
  8349   0028E6  ECA9  F025         	call	_TMR1_ISR	;wreg free
  8350   0028EA                     i2l9103:
  8351                           
  8352                           ;MCAL_LAYER/interrupt/mcal_interrupt_mamager.c: 77:      if ((1 ==PIE1bits.TMR2IE )&&(1 
      +                          ==PIR1bits.TMR2IF)){
  8353   0028EA  A29D               	btfss	157,1,c	;volatile
  8354   0028EC  EF7A  F014         	goto	i2u937_41
  8355   0028F0  EF7C  F014         	goto	i2u937_40
  8356   0028F4                     i2u937_41:
  8357   0028F4  EF85  F014         	goto	i2l9109
  8358   0028F8                     i2u937_40:
  8359   0028F8  A29E               	btfss	158,1,c	;volatile
  8360   0028FA  EF81  F014         	goto	i2u938_41
  8361   0028FE  EF83  F014         	goto	i2u938_40
  8362   002902                     i2u938_41:
  8363   002902  EF85  F014         	goto	i2l9109
  8364   002906                     i2u938_40:
  8365   002906                     
  8366                           ;MCAL_LAYER/interrupt/mcal_interrupt_mamager.c: 78:         TMR2_ISR();
  8367   002906  ECAF  F025         	call	_TMR2_ISR	;wreg free
  8368   00290A                     i2l9109:
  8369                           
  8370                           ;MCAL_LAYER/interrupt/mcal_interrupt_mamager.c: 80:     if ((1 ==PIE2bits.TMR3IE )&&(1 =
      +                          =PIR2bits.TMR3IF)){
  8371   00290A  A2A0               	btfss	160,1,c	;volatile
  8372   00290C  EF8A  F014         	goto	i2u939_41
  8373   002910  EF8C  F014         	goto	i2u939_40
  8374   002914                     i2u939_41:
  8375   002914  EF95  F014         	goto	i2l9115
  8376   002918                     i2u939_40:
  8377   002918  A2A1               	btfss	161,1,c	;volatile
  8378   00291A  EF91  F014         	goto	i2u940_41
  8379   00291E  EF93  F014         	goto	i2u940_40
  8380   002922                     i2u940_41:
  8381   002922  EF95  F014         	goto	i2l9115
  8382   002926                     i2u940_40:
  8383   002926                     
  8384                           ;MCAL_LAYER/interrupt/mcal_interrupt_mamager.c: 81:         TMR3_ISR();
  8385   002926  ECA3  F025         	call	_TMR3_ISR	;wreg free
  8386   00292A                     i2l9115:
  8387                           
  8388                           ;MCAL_LAYER/interrupt/mcal_interrupt_mamager.c: 83:     if ((1 ==PIE1bits.CCP1IE )&&(1 =
      +                          =PIR1bits.CCP1IF)){
  8389   00292A  A49D               	btfss	157,2,c	;volatile
  8390   00292C  EF9A  F014         	goto	i2u941_41
  8391   002930  EF9C  F014         	goto	i2u941_40
  8392   002934                     i2u941_41:
  8393   002934  EFA5  F014         	goto	i2l9121
  8394   002938                     i2u941_40:
  8395   002938  A49E               	btfss	158,2,c	;volatile
  8396   00293A  EFA1  F014         	goto	i2u942_41
  8397   00293E  EFA3  F014         	goto	i2u942_40
  8398   002942                     i2u942_41:
  8399   002942  EFA5  F014         	goto	i2l9121
  8400   002946                     i2u942_40:
  8401   002946                     
  8402                           ;MCAL_LAYER/interrupt/mcal_interrupt_mamager.c: 84:       CCP1_ISR();
  8403   002946  ECBB  F025         	call	_CCP1_ISR	;wreg free
  8404   00294A                     i2l9121:
  8405                           
  8406                           ;MCAL_LAYER/interrupt/mcal_interrupt_mamager.c: 86:   if ((1 ==PIE2bits.CCP2IE )&&(1 ==P
      +                          IR2bits.CCP2IF)){
  8407   00294A  A0A0               	btfss	160,0,c	;volatile
  8408   00294C  EFAA  F014         	goto	i2u943_41
  8409   002950  EFAC  F014         	goto	i2u943_40
  8410   002954                     i2u943_41:
  8411   002954  EFB5  F014         	goto	i2l804
  8412   002958                     i2u943_40:
  8413   002958  A0A1               	btfss	161,0,c	;volatile
  8414   00295A  EFB1  F014         	goto	i2u944_41
  8415   00295E  EFB3  F014         	goto	i2u944_40
  8416   002962                     i2u944_41:
  8417   002962  EFB5  F014         	goto	i2l804
  8418   002966                     i2u944_40:
  8419   002966                     
  8420                           ;MCAL_LAYER/interrupt/mcal_interrupt_mamager.c: 87:       CCP2_ISR();
  8421   002966  ECB9  F025         	call	_CCP2_ISR	;wreg free
  8422   00296A                     i2l804:
  8423   00296A  C08D  FFF5         	movff	??_InterruptManger+13,tablat
  8424   00296E  C08C  FFF8         	movff	??_InterruptManger+12,tblptru
  8425   002972  C08B  FFF7         	movff	??_InterruptManger+11,tblptrh
  8426   002976  C08A  FFF6         	movff	??_InterruptManger+10,tblptrl
  8427   00297A  C089  FFF4         	movff	??_InterruptManger+9,prodh
  8428   00297E  C088  FFF3         	movff	??_InterruptManger+8,prodl
  8429   002982  C087  FFDA         	movff	??_InterruptManger+7,fsr2h
  8430   002986  C086  FFD9         	movff	??_InterruptManger+6,fsr2l
  8431   00298A  C085  FFE2         	movff	??_InterruptManger+5,fsr1h
  8432   00298E  C084  FFE1         	movff	??_InterruptManger+4,fsr1l
  8433   002992  C083  FFEA         	movff	??_InterruptManger+3,fsr0h
  8434   002996  C082  FFE9         	movff	??_InterruptManger+2,fsr0l
  8435   00299A  C081  FFFB         	movff	??_InterruptManger+1,pclatu
  8436   00299E  C080  FFFA         	movff	??_InterruptManger,pclath
  8437   0029A2  9272               	bcf	int$flags,1,c	;clear compiler interrupt flag (level 2)
  8438   0029A4  0011               	retfie		f
  8439   0029A6                     __end_of_InterruptManger:
  8440                           	callstack 0
  8441                           
  8442 ;; *************** function _Timer0_ISR *****************
  8443 ;; Defined at:
  8444 ;;		line 163 in file "MCAL_LAYER/Timer0/timer0.c"
  8445 ;; Parameters:    Size  Location     Type
  8446 ;;		None
  8447 ;; Auto vars:     Size  Location     Type
  8448 ;;		None
  8449 ;; Return value:  Size  Location     Type
  8450 ;;                  1    wreg      void 
  8451 ;; Registers used:
  8452 ;;		wreg, status,2
  8453 ;; Tracked objects:
  8454 ;;		On entry : 0/0
  8455 ;;		On exit  : 0/0
  8456 ;;		Unchanged: 0/0
  8457 ;; Data sizes:     COMRAM   BANK0   BANK1   BANK2   BANK3   BANK4   BANK5   BANK6   BANK7   BANK8   BANK9  BANK10  BANK1
      +1  BANK12  BANK13  BANK14  BANK15
  8458 ;;      Params:         0       0       0       0       0       0       0       0       0       0       0       0       
      +0       0       0       0       0
  8459 ;;      Locals:         0       0       0       0       0       0       0       0       0       0       0       0       
      +0       0       0       0       0
  8460 ;;      Temps:          0       0       0       0       0       0       0       0       0       0       0       0       
      +0       0       0       0       0
  8461 ;;      Totals:         0       0       0       0       0       0       0       0       0       0       0       0       
      +0       0       0       0       0
  8462 ;;Total ram usage:        0 bytes
  8463 ;; Hardware stack levels used: 1
  8464 ;; This function calls:
  8465 ;;		Nothing
  8466 ;; This function is called by:
  8467 ;;		_InterruptManger
  8468 ;; This function uses a non-reentrant model
  8469 ;;
  8470                           
  8471                           	psect	text38
  8472   004B3A                     __ptext38:
  8473                           	callstack 0
  8474   004B3A                     _Timer0_ISR:
  8475                           	callstack 23
  8476   004B3A                     
  8477                           ;MCAL_LAYER/Timer0/timer0.c: 165:     (INTCONbits.TMR0IF =0);
  8478   004B3A  94F2               	bcf	242,2,c	;volatile
  8479   004B3C                     
  8480                           ;MCAL_LAYER/Timer0/timer0.c: 166:      TMR0H=(tmr0_preload) >> 8;
  8481   004B3C  5058               	movf	(_tmr0_preload+1)^0,w,c
  8482   004B3E  6ED7               	movwf	215,c	;volatile
  8483   004B40                     
  8484                           ;MCAL_LAYER/Timer0/timer0.c: 167:      TMR0L=(uint_8)(tmr0_preload);
  8485   004B40  C057  FFD6         	movff	_tmr0_preload,4054	;volatile
  8486   004B44  0012               	return		;funcret
  8487   004B46                     __end_of_Timer0_ISR:
  8488                           	callstack 0
  8489                           
  8490 ;; *************** function _TMR3_ISR *****************
  8491 ;; Defined at:
  8492 ;;		line 132 in file "MCAL_LAYER/Timer3/TMR3.c"
  8493 ;; Parameters:    Size  Location     Type
  8494 ;;		None
  8495 ;; Auto vars:     Size  Location     Type
  8496 ;;		None
  8497 ;; Return value:  Size  Location     Type
  8498 ;;                  1    wreg      void 
  8499 ;; Registers used:
  8500 ;;		wreg, status,2
  8501 ;; Tracked objects:
  8502 ;;		On entry : 0/0
  8503 ;;		On exit  : 0/0
  8504 ;;		Unchanged: 0/0
  8505 ;; Data sizes:     COMRAM   BANK0   BANK1   BANK2   BANK3   BANK4   BANK5   BANK6   BANK7   BANK8   BANK9  BANK10  BANK1
      +1  BANK12  BANK13  BANK14  BANK15
  8506 ;;      Params:         0       0       0       0       0       0       0       0       0       0       0       0       
      +0       0       0       0       0
  8507 ;;      Locals:         0       0       0       0       0       0       0       0       0       0       0       0       
      +0       0       0       0       0
  8508 ;;      Temps:          0       0       0       0       0       0       0       0       0       0       0       0       
      +0       0       0       0       0
  8509 ;;      Totals:         0       0       0       0       0       0       0       0       0       0       0       0       
      +0       0       0       0       0
  8510 ;;Total ram usage:        0 bytes
  8511 ;; Hardware stack levels used: 1
  8512 ;; This function calls:
  8513 ;;		Nothing
  8514 ;; This function is called by:
  8515 ;;		_InterruptManger
  8516 ;; This function uses a non-reentrant model
  8517 ;;
  8518                           
  8519                           	psect	text39
  8520   004B46                     __ptext39:
  8521                           	callstack 0
  8522   004B46                     _TMR3_ISR:
  8523                           	callstack 23
  8524   004B46                     
  8525                           ;MCAL_LAYER/Timer3/TMR3.c: 134:     (PIR2bits.TMR3IF=0);
  8526   004B46  92A1               	bcf	161,1,c	;volatile
  8527   004B48                     
  8528                           ;MCAL_LAYER/Timer3/TMR3.c: 135:      TMR3H=(TMR3_preload) >> 8;
  8529   004B48  5050               	movf	(_TMR3_preload+1)^0,w,c
  8530   004B4A  6EB3               	movwf	179,c	;volatile
  8531   004B4C                     
  8532                           ;MCAL_LAYER/Timer3/TMR3.c: 136:      TMR3L=(uint_8)(TMR3_preload);
  8533   004B4C  C04F  FFB2         	movff	_TMR3_preload,4018	;volatile
  8534   004B50  0012               	return		;funcret
  8535   004B52                     __end_of_TMR3_ISR:
  8536                           	callstack 0
  8537                           
  8538 ;; *************** function _TMR2_ISR *****************
  8539 ;; Defined at:
  8540 ;;		line 113 in file "MCAL_LAYER/Timer2/TMR2.c"
  8541 ;; Parameters:    Size  Location     Type
  8542 ;;		None
  8543 ;; Auto vars:     Size  Location     Type
  8544 ;;		None
  8545 ;; Return value:  Size  Location     Type
  8546 ;;                  1    wreg      void 
  8547 ;; Registers used:
  8548 ;;		None
  8549 ;; Tracked objects:
  8550 ;;		On entry : 0/0
  8551 ;;		On exit  : 0/0
  8552 ;;		Unchanged: 0/0
  8553 ;; Data sizes:     COMRAM   BANK0   BANK1   BANK2   BANK3   BANK4   BANK5   BANK6   BANK7   BANK8   BANK9  BANK10  BANK1
      +1  BANK12  BANK13  BANK14  BANK15
  8554 ;;      Params:         0       0       0       0       0       0       0       0       0       0       0       0       
      +0       0       0       0       0
  8555 ;;      Locals:         0       0       0       0       0       0       0       0       0       0       0       0       
      +0       0       0       0       0
  8556 ;;      Temps:          0       0       0       0       0       0       0       0       0       0       0       0       
      +0       0       0       0       0
  8557 ;;      Totals:         0       0       0       0       0       0       0       0       0       0       0       0       
      +0       0       0       0       0
  8558 ;;Total ram usage:        0 bytes
  8559 ;; Hardware stack levels used: 1
  8560 ;; This function calls:
  8561 ;;		Nothing
  8562 ;; This function is called by:
  8563 ;;		_InterruptManger
  8564 ;; This function uses a non-reentrant model
  8565 ;;
  8566                           
  8567                           	psect	text40
  8568   004B5E                     __ptext40:
  8569                           	callstack 0
  8570   004B5E                     _TMR2_ISR:
  8571                           	callstack 23
  8572   004B5E                     
  8573                           ;MCAL_LAYER/Timer2/TMR2.c: 115:     (PIR1bits.TMR2IF=0);
  8574   004B5E  929E               	bcf	158,1,c	;volatile
  8575                           
  8576                           ;MCAL_LAYER/Timer2/TMR2.c: 116:     TMR2=TMR2_preload;
  8577   004B60  C0EE  FFCC         	movff	_TMR2_preload,4044	;volatile
  8578   004B64  0012               	return		;funcret
  8579   004B66                     __end_of_TMR2_ISR:
  8580                           	callstack 0
  8581                           
  8582 ;; *************** function _TMR1_ISR *****************
  8583 ;; Defined at:
  8584 ;;		line 147 in file "MCAL_LAYER/Timer1/TMR1.c"
  8585 ;; Parameters:    Size  Location     Type
  8586 ;;		None
  8587 ;; Auto vars:     Size  Location     Type
  8588 ;;		None
  8589 ;; Return value:  Size  Location     Type
  8590 ;;                  1    wreg      void 
  8591 ;; Registers used:
  8592 ;;		wreg, status,2
  8593 ;; Tracked objects:
  8594 ;;		On entry : 0/0
  8595 ;;		On exit  : 0/0
  8596 ;;		Unchanged: 0/0
  8597 ;; Data sizes:     COMRAM   BANK0   BANK1   BANK2   BANK3   BANK4   BANK5   BANK6   BANK7   BANK8   BANK9  BANK10  BANK1
      +1  BANK12  BANK13  BANK14  BANK15
  8598 ;;      Params:         0       0       0       0       0       0       0       0       0       0       0       0       
      +0       0       0       0       0
  8599 ;;      Locals:         0       0       0       0       0       0       0       0       0       0       0       0       
      +0       0       0       0       0
  8600 ;;      Temps:          0       0       0       0       0       0       0       0       0       0       0       0       
      +0       0       0       0       0
  8601 ;;      Totals:         0       0       0       0       0       0       0       0       0       0       0       0       
      +0       0       0       0       0
  8602 ;;Total ram usage:        0 bytes
  8603 ;; Hardware stack levels used: 1
  8604 ;; This function calls:
  8605 ;;		Nothing
  8606 ;; This function is called by:
  8607 ;;		_InterruptManger
  8608 ;; This function uses a non-reentrant model
  8609 ;;
  8610                           
  8611                           	psect	text41
  8612   004B52                     __ptext41:
  8613                           	callstack 0
  8614   004B52                     _TMR1_ISR:
  8615                           	callstack 23
  8616   004B52                     
  8617                           ;MCAL_LAYER/Timer1/TMR1.c: 149:     (PIR1bits.TMR1IF=0);
  8618   004B52  909E               	bcf	158,0,c	;volatile
  8619   004B54                     
  8620                           ;MCAL_LAYER/Timer1/TMR1.c: 150:      TMR1H=(TMR1_preload) >> 8;
  8621   004B54  5054               	movf	(_TMR1_preload+1)^0,w,c
  8622   004B56  6ECF               	movwf	207,c	;volatile
  8623   004B58                     
  8624                           ;MCAL_LAYER/Timer1/TMR1.c: 151:      TMR1L=(uint_8)(TMR1_preload);
  8625   004B58  C053  FFCE         	movff	_TMR1_preload,4046	;volatile
  8626   004B5C  0012               	return		;funcret
  8627   004B5E                     __end_of_TMR1_ISR:
  8628                           	callstack 0
  8629                           
  8630 ;; *************** function _INT2_ISR *****************
  8631 ;; Defined at:
  8632 ;;		line 93 in file "MCAL_LAYER/interrupt/mcal_external_interrupt.c"
  8633 ;; Parameters:    Size  Location     Type
  8634 ;;		None
  8635 ;; Auto vars:     Size  Location     Type
  8636 ;;		None
  8637 ;; Return value:  Size  Location     Type
  8638 ;;                  1    wreg      void 
  8639 ;; Registers used:
  8640 ;;		None
  8641 ;; Tracked objects:
  8642 ;;		On entry : 0/0
  8643 ;;		On exit  : 0/0
  8644 ;;		Unchanged: 0/0
  8645 ;; Data sizes:     COMRAM   BANK0   BANK1   BANK2   BANK3   BANK4   BANK5   BANK6   BANK7   BANK8   BANK9  BANK10  BANK1
      +1  BANK12  BANK13  BANK14  BANK15
  8646 ;;      Params:         0       0       0       0       0       0       0       0       0       0       0       0       
      +0       0       0       0       0
  8647 ;;      Locals:         0       0       0       0       0       0       0       0       0       0       0       0       
      +0       0       0       0       0
  8648 ;;      Temps:          0       0       0       0       0       0       0       0       0       0       0       0       
      +0       0       0       0       0
  8649 ;;      Totals:         0       0       0       0       0       0       0       0       0       0       0       0       
      +0       0       0       0       0
  8650 ;;Total ram usage:        0 bytes
  8651 ;; Hardware stack levels used: 1
  8652 ;; This function calls:
  8653 ;;		Nothing
  8654 ;; This function is called by:
  8655 ;;		_InterruptManger
  8656 ;; This function uses a non-reentrant model
  8657 ;;
  8658                           
  8659                           	psect	text42
  8660   004B66                     __ptext42:
  8661                           	callstack 0
  8662   004B66                     _INT2_ISR:
  8663                           	callstack 23
  8664   004B66                     
  8665                           ;MCAL_LAYER/interrupt/mcal_external_interrupt.c: 96:     (INTCON3bits.INT2IF=0);
  8666   004B66  92F0               	bcf	240,1,c	;volatile
  8667   004B68  0012               	return		;funcret
  8668   004B6A                     __end_of_INT2_ISR:
  8669                           	callstack 0
  8670                           
  8671 ;; *************** function _INT1_ISR *****************
  8672 ;; Defined at:
  8673 ;;		line 79 in file "MCAL_LAYER/interrupt/mcal_external_interrupt.c"
  8674 ;; Parameters:    Size  Location     Type
  8675 ;;		None
  8676 ;; Auto vars:     Size  Location     Type
  8677 ;;		None
  8678 ;; Return value:  Size  Location     Type
  8679 ;;                  1    wreg      void 
  8680 ;; Registers used:
  8681 ;;		None
  8682 ;; Tracked objects:
  8683 ;;		On entry : 0/0
  8684 ;;		On exit  : 0/0
  8685 ;;		Unchanged: 0/0
  8686 ;; Data sizes:     COMRAM   BANK0   BANK1   BANK2   BANK3   BANK4   BANK5   BANK6   BANK7   BANK8   BANK9  BANK10  BANK1
      +1  BANK12  BANK13  BANK14  BANK15
  8687 ;;      Params:         0       0       0       0       0       0       0       0       0       0       0       0       
      +0       0       0       0       0
  8688 ;;      Locals:         0       0       0       0       0       0       0       0       0       0       0       0       
      +0       0       0       0       0
  8689 ;;      Temps:          0       0       0       0       0       0       0       0       0       0       0       0       
      +0       0       0       0       0
  8690 ;;      Totals:         0       0       0       0       0       0       0       0       0       0       0       0       
      +0       0       0       0       0
  8691 ;;Total ram usage:        0 bytes
  8692 ;; Hardware stack levels used: 1
  8693 ;; This function calls:
  8694 ;;		Nothing
  8695 ;; This function is called by:
  8696 ;;		_InterruptManger
  8697 ;; This function uses a non-reentrant model
  8698 ;;
  8699                           
  8700                           	psect	text43
  8701   004B6A                     __ptext43:
  8702                           	callstack 0
  8703   004B6A                     _INT1_ISR:
  8704                           	callstack 23
  8705   004B6A                     
  8706                           ;MCAL_LAYER/interrupt/mcal_external_interrupt.c: 82:     (INTCON3bits.INT1IF=0);
  8707   004B6A  90F0               	bcf	240,0,c	;volatile
  8708   004B6C  0012               	return		;funcret
  8709   004B6E                     __end_of_INT1_ISR:
  8710                           	callstack 0
  8711                           
  8712 ;; *************** function _INT0_ISR *****************
  8713 ;; Defined at:
  8714 ;;		line 65 in file "MCAL_LAYER/interrupt/mcal_external_interrupt.c"
  8715 ;; Parameters:    Size  Location     Type
  8716 ;;		None
  8717 ;; Auto vars:     Size  Location     Type
  8718 ;;		None
  8719 ;; Return value:  Size  Location     Type
  8720 ;;                  1    wreg      void 
  8721 ;; Registers used:
  8722 ;;		None
  8723 ;; Tracked objects:
  8724 ;;		On entry : 0/0
  8725 ;;		On exit  : 0/0
  8726 ;;		Unchanged: 0/0
  8727 ;; Data sizes:     COMRAM   BANK0   BANK1   BANK2   BANK3   BANK4   BANK5   BANK6   BANK7   BANK8   BANK9  BANK10  BANK1
      +1  BANK12  BANK13  BANK14  BANK15
  8728 ;;      Params:         0       0       0       0       0       0       0       0       0       0       0       0       
      +0       0       0       0       0
  8729 ;;      Locals:         0       0       0       0       0       0       0       0       0       0       0       0       
      +0       0       0       0       0
  8730 ;;      Temps:          0       0       0       0       0       0       0       0       0       0       0       0       
      +0       0       0       0       0
  8731 ;;      Totals:         0       0       0       0       0       0       0       0       0       0       0       0       
      +0       0       0       0       0
  8732 ;;Total ram usage:        0 bytes
  8733 ;; Hardware stack levels used: 1
  8734 ;; This function calls:
  8735 ;;		Nothing
  8736 ;; This function is called by:
  8737 ;;		_InterruptManger
  8738 ;; This function uses a non-reentrant model
  8739 ;;
  8740                           
  8741                           	psect	text44
  8742   004B6E                     __ptext44:
  8743                           	callstack 0
  8744   004B6E                     _INT0_ISR:
  8745                           	callstack 23
  8746   004B6E                     
  8747                           ;MCAL_LAYER/interrupt/mcal_external_interrupt.c: 68:     (INTCONbits.INT0IF=0);
  8748   004B6E  92F2               	bcf	242,1,c	;volatile
  8749   004B70  0012               	return		;funcret
  8750   004B72                     __end_of_INT0_ISR:
  8751                           	callstack 0
  8752                           
  8753 ;; *************** function _CCP2_ISR *****************
  8754 ;; Defined at:
  8755 ;;		line 431 in file "MCAL_LAYER/CCP/CCP.c"
  8756 ;; Parameters:    Size  Location     Type
  8757 ;;		None
  8758 ;; Auto vars:     Size  Location     Type
  8759 ;;		None
  8760 ;; Return value:  Size  Location     Type
  8761 ;;                  1    wreg      void 
  8762 ;; Registers used:
  8763 ;;		None
  8764 ;; Tracked objects:
  8765 ;;		On entry : 0/0
  8766 ;;		On exit  : 0/0
  8767 ;;		Unchanged: 0/0
  8768 ;; Data sizes:     COMRAM   BANK0   BANK1   BANK2   BANK3   BANK4   BANK5   BANK6   BANK7   BANK8   BANK9  BANK10  BANK1
      +1  BANK12  BANK13  BANK14  BANK15
  8769 ;;      Params:         0       0       0       0       0       0       0       0       0       0       0       0       
      +0       0       0       0       0
  8770 ;;      Locals:         0       0       0       0       0       0       0       0       0       0       0       0       
      +0       0       0       0       0
  8771 ;;      Temps:          0       0       0       0       0       0       0       0       0       0       0       0       
      +0       0       0       0       0
  8772 ;;      Totals:         0       0       0       0       0       0       0       0       0       0       0       0       
      +0       0       0       0       0
  8773 ;;Total ram usage:        0 bytes
  8774 ;; Hardware stack levels used: 1
  8775 ;; This function calls:
  8776 ;;		Nothing
  8777 ;; This function is called by:
  8778 ;;		_InterruptManger
  8779 ;; This function uses a non-reentrant model
  8780 ;;
  8781                           
  8782                           	psect	text45
  8783   004B72                     __ptext45:
  8784                           	callstack 0
  8785   004B72                     _CCP2_ISR:
  8786                           	callstack 23
  8787   004B72                     
  8788                           ;MCAL_LAYER/CCP/CCP.c: 432:     (PIR2bits.CCP2IF=0);
  8789   004B72  90A1               	bcf	161,0,c	;volatile
  8790   004B74  0012               	return		;funcret
  8791   004B76                     __end_of_CCP2_ISR:
  8792                           	callstack 0
  8793                           
  8794 ;; *************** function _CCP1_ISR *****************
  8795 ;; Defined at:
  8796 ;;		line 422 in file "MCAL_LAYER/CCP/CCP.c"
  8797 ;; Parameters:    Size  Location     Type
  8798 ;;		None
  8799 ;; Auto vars:     Size  Location     Type
  8800 ;;		None
  8801 ;; Return value:  Size  Location     Type
  8802 ;;                  1    wreg      void 
  8803 ;; Registers used:
  8804 ;;		None
  8805 ;; Tracked objects:
  8806 ;;		On entry : 0/0
  8807 ;;		On exit  : 0/0
  8808 ;;		Unchanged: 0/0
  8809 ;; Data sizes:     COMRAM   BANK0   BANK1   BANK2   BANK3   BANK4   BANK5   BANK6   BANK7   BANK8   BANK9  BANK10  BANK1
      +1  BANK12  BANK13  BANK14  BANK15
  8810 ;;      Params:         0       0       0       0       0       0       0       0       0       0       0       0       
      +0       0       0       0       0
  8811 ;;      Locals:         0       0       0       0       0       0       0       0       0       0       0       0       
      +0       0       0       0       0
  8812 ;;      Temps:          0       0       0       0       0       0       0       0       0       0       0       0       
      +0       0       0       0       0
  8813 ;;      Totals:         0       0       0       0       0       0       0       0       0       0       0       0       
      +0       0       0       0       0
  8814 ;;Total ram usage:        0 bytes
  8815 ;; Hardware stack levels used: 1
  8816 ;; This function calls:
  8817 ;;		Nothing
  8818 ;; This function is called by:
  8819 ;;		_InterruptManger
  8820 ;; This function uses a non-reentrant model
  8821 ;;
  8822                           
  8823                           	psect	text46
  8824   004B76                     __ptext46:
  8825                           	callstack 0
  8826   004B76                     _CCP1_ISR:
  8827                           	callstack 23
  8828   004B76                     
  8829                           ;MCAL_LAYER/CCP/CCP.c: 423:       (PIR1bits.CCP1IF=0);
  8830   004B76  949E               	bcf	158,2,c	;volatile
  8831   004B78  0012               	return		;funcret
  8832   004B7A                     __end_of_CCP1_ISR:
  8833                           	callstack 0
  8834                           
  8835 ;; *************** function _ADC_ISR *****************
  8836 ;; Defined at:
  8837 ;;		line 264 in file "MCAL_LAYER/ADC/adc.c"
  8838 ;; Parameters:    Size  Location     Type
  8839 ;;		None
  8840 ;; Auto vars:     Size  Location     Type
  8841 ;;		None
  8842 ;; Return value:  Size  Location     Type
  8843 ;;                  1    wreg      void 
  8844 ;; Registers used:
  8845 ;;		wreg, fsr0l, fsr0h, fsr1l, fsr1h, fsr2l, fsr2h, status,2, status,0, pcl, pclath, pclatu, tosl, tblptrl, tblptrh, tbl
      +ptru, prodl, prodh, cstack
  8846 ;; Tracked objects:
  8847 ;;		On entry : 0/0
  8848 ;;		On exit  : 0/0
  8849 ;;		Unchanged: 0/0
  8850 ;; Data sizes:     COMRAM   BANK0   BANK1   BANK2   BANK3   BANK4   BANK5   BANK6   BANK7   BANK8   BANK9  BANK10  BANK1
      +1  BANK12  BANK13  BANK14  BANK15
  8851 ;;      Params:         0       0       0       0       0       0       0       0       0       0       0       0       
      +0       0       0       0       0
  8852 ;;      Locals:         0       0       0       0       0       0       0       0       0       0       0       0       
      +0       0       0       0       0
  8853 ;;      Temps:          0       0       0       0       0       0       0       0       0       0       0       0       
      +0       0       0       0       0
  8854 ;;      Totals:         0       0       0       0       0       0       0       0       0       0       0       0       
      +0       0       0       0       0
  8855 ;;Total ram usage:        0 bytes
  8856 ;; Hardware stack levels used: 1
  8857 ;; Hardware stack levels required when called: 7
  8858 ;; This function calls:
  8859 ;;		NULL
  8860 ;;		_Write_temp_LCD
  8861 ;; This function is called by:
  8862 ;;		_InterruptManger
  8863 ;; This function uses a non-reentrant model
  8864 ;;
  8865                           
  8866                           	psect	text47
  8867   004AC6                     __ptext47:
  8868                           	callstack 0
  8869   004AC6                     _ADC_ISR:
  8870                           	callstack 16
  8871   004AC6                     
  8872                           ;MCAL_LAYER/ADC/adc.c: 266:     (PIR1bits.ADIF=0);
  8873   004AC6  9C9E               	bcf	158,6,c	;volatile
  8874   004AC8                     
  8875                           ;MCAL_LAYER/ADC/adc.c: 268:     if(ADC_InterruptHandler){
  8876   004AC8  5069               	movf	_ADC_InterruptHandler^0,w,c
  8877   004ACA  106A               	iorwf	(_ADC_InterruptHandler+1)^0,w,c
  8878   004ACC  B4D8               	btfsc	status,2,c
  8879   004ACE  EF6B  F025         	goto	i2u898_41
  8880   004AD2  EF6D  F025         	goto	i2u898_40
  8881   004AD6                     i2u898_41:
  8882   004AD6  EF79  F025         	goto	i2l317
  8883   004ADA                     i2u898_40:
  8884   004ADA                     
  8885                           ;MCAL_LAYER/ADC/adc.c: 269:         ADC_InterruptHandler();
  8886   004ADA  D802               	call	i2u899_48
  8887   004ADC  EF79  F025         	goto	i2u899_49
  8888   004AE0                     i2u899_48:
  8889   004AE0  0005               	push	
  8890   004AE2  6EFA               	movwf	pclath,c
  8891   004AE4  5069               	movf	_ADC_InterruptHandler^0,w,c
  8892   004AE6  6EFD               	movwf	tosl,c
  8893   004AE8  506A               	movf	(_ADC_InterruptHandler+1)^0,w,c
  8894   004AEA  6EFE               	movwf	tosh,c
  8895   004AEC  6AFF               	clrf	tosu,c
  8896   004AEE  50FA               	movf	pclath,w,c
  8897   004AF0  0012               	return		;indir
  8898   004AF2                     i2u899_49:
  8899   004AF2                     i2l317:
  8900   004AF2  0012               	return		;funcret
  8901   004AF4                     __end_of_ADC_ISR:
  8902                           	callstack 0
  8903                           
  8904 ;; *************** function _Write_temp_LCD *****************
  8905 ;; Defined at:
  8906 ;;		line 33 in file "functions.c"
  8907 ;; Parameters:    Size  Location     Type
  8908 ;;		None
  8909 ;; Auto vars:     Size  Location     Type
  8910 ;;		None
  8911 ;; Return value:  Size  Location     Type
  8912 ;;                  1    wreg      void 
  8913 ;; Registers used:
  8914 ;;		wreg, fsr0l, fsr0h, fsr1l, fsr1h, fsr2l, fsr2h, status,2, status,0, tblptrl, tblptrh, tblptru, prodl, prodh, cstack
  8915 ;; Tracked objects:
  8916 ;;		On entry : 0/0
  8917 ;;		On exit  : 0/0
  8918 ;;		Unchanged: 0/0
  8919 ;; Data sizes:     COMRAM   BANK0   BANK1   BANK2   BANK3   BANK4   BANK5   BANK6   BANK7   BANK8   BANK9  BANK10  BANK1
      +1  BANK12  BANK13  BANK14  BANK15
  8920 ;;      Params:         0       0       0       0       0       0       0       0       0       0       0       0       
      +0       0       0       0       0
  8921 ;;      Locals:         0       0       0       0       0       0       0       0       0       0       0       0       
      +0       0       0       0       0
  8922 ;;      Temps:          0       0       0       0       0       0       0       0       0       0       0       0       
      +0       0       0       0       0
  8923 ;;      Totals:         0       0       0       0       0       0       0       0       0       0       0       0       
      +0       0       0       0       0
  8924 ;;Total ram usage:        0 bytes
  8925 ;; Hardware stack levels used: 1
  8926 ;; Hardware stack levels required when called: 6
  8927 ;; This function calls:
  8928 ;;		_convert_byte_to_string
  8929 ;;		i2___fldiv
  8930 ;;		i2___flmul
  8931 ;;		i2___fltol
  8932 ;;		i2___xxtofl
  8933 ;;		i2_lcd_4bit_send_string_pos
  8934 ;; This function is called by:
  8935 ;;		_ADC_ISR
  8936 ;; This function uses a non-reentrant model
  8937 ;;
  8938                           
  8939                           	psect	text48
  8940   003B32                     __ptext48:
  8941                           	callstack 0
  8942   003B32                     _Write_temp_LCD:
  8943                           	callstack 16
  8944   003B32                     
  8945                           ;functions.c: 34:     temp=(adc_read*4.88)/10;
  8946   003B32  0E00               	movlw	0
  8947   003B34  6E2C               	movwf	i2___fldiv@a^0,c
  8948   003B36  0E00               	movlw	0
  8949   003B38  6E2D               	movwf	(i2___fldiv@a+1)^0,c
  8950   003B3A  0E20               	movlw	32
  8951   003B3C  6E2E               	movwf	(i2___fldiv@a+2)^0,c
  8952   003B3E  0E41               	movlw	65
  8953   003B40  6E2F               	movwf	(i2___fldiv@a+3)^0,c
  8954   003B42  0EF6               	movlw	246
  8955   003B44  6E13               	movwf	i2___flmul@a^0,c
  8956   003B46  0E28               	movlw	40
  8957   003B48  6E14               	movwf	(i2___flmul@a+1)^0,c
  8958   003B4A  0E9C               	movlw	156
  8959   003B4C  6E15               	movwf	(i2___flmul@a+2)^0,c
  8960   003B4E  0E40               	movlw	64
  8961   003B50  6E16               	movwf	(i2___flmul@a+3)^0,c
  8962   003B52  C070  F001         	movff	_adc_read,i2___xxtofl@val
  8963   003B56  C071  F002         	movff	_adc_read+1,i2___xxtofl@val+1
  8964   003B5A  0E00               	movlw	0
  8965   003B5C  BE02               	btfsc	(i2___xxtofl@val+1)^0,7,c
  8966   003B5E  0EFF               	movlw	-1
  8967   003B60  6E03               	movwf	(i2___xxtofl@val+2)^0,c
  8968   003B62  6E04               	movwf	(i2___xxtofl@val+3)^0,c
  8969   003B64  0E01               	movlw	1
  8970   003B66  ECD3  F014         	call	i2___xxtofl
  8971   003B6A  C001  F00F         	movff	?i2___xxtofl,i2___flmul@b
  8972   003B6E  C002  F010         	movff	?i2___xxtofl+1,i2___flmul@b+1
  8973   003B72  C003  F011         	movff	?i2___xxtofl+2,i2___flmul@b+2
  8974   003B76  C004  F012         	movff	?i2___xxtofl+3,i2___flmul@b+3
  8975   003B7A  EC85  F00C         	call	i2___flmul	;wreg free
  8976   003B7E  C00F  F028         	movff	?i2___flmul,i2___fldiv@b
  8977   003B82  C010  F029         	movff	?i2___flmul+1,i2___fldiv@b+1
  8978   003B86  C011  F02A         	movff	?i2___flmul+2,i2___fldiv@b+2
  8979   003B8A  C012  F02B         	movff	?i2___flmul+3,i2___fldiv@b+3
  8980   003B8E  EC68  F010         	call	i2___fldiv	;wreg free
  8981   003B92  C028  F041         	movff	?i2___fldiv,i2___fltol@f1
  8982   003B96  C029  F042         	movff	?i2___fldiv+1,i2___fltol@f1+1
  8983   003B9A  C02A  F043         	movff	?i2___fldiv+2,i2___fltol@f1+2
  8984   003B9E  C02B  F044         	movff	?i2___fldiv+3,i2___fltol@f1+3
  8985   003BA2  EC30  F01C         	call	i2___fltol	;wreg free
  8986   003BA6  C041  F04D         	movff	?i2___fltol,_temp
  8987   003BAA  C042  F04E         	movff	?i2___fltol+1,_temp+1
  8988   003BAE                     
  8989                           ;functions.c: 35:     convert_byte_to_string(temp,temp_display);
  8990   003BAE  0E64               	movlw	low _temp_display
  8991   003BB0  6E2C               	movwf	convert_byte_to_string@str^0,c
  8992   003BB2  0E01               	movlw	high _temp_display
  8993   003BB4  6E2D               	movwf	(convert_byte_to_string@str+1)^0,c
  8994   003BB6  504D               	movf	_temp^0,w,c
  8995   003BB8  ECF5  F023         	call	_convert_byte_to_string
  8996   003BBC                     
  8997                           ;functions.c: 36:     lcd_4bit_send_string_pos(&lcd,1,1,"Temperature =");
  8998   003BBC  0E3E               	movlw	low _lcd
  8999   003BBE  6E16               	movwf	i2lcd_4bit_send_string_pos@lcd^0,c
  9000   003BC0  0E01               	movlw	high _lcd
  9001   003BC2  6E17               	movwf	(i2lcd_4bit_send_string_pos@lcd+1)^0,c
  9002   003BC4  0E01               	movlw	1
  9003   003BC6  6E18               	movwf	i2lcd_4bit_send_string_pos@row^0,c
  9004   003BC8  0E01               	movlw	1
  9005   003BCA  6E19               	movwf	i2lcd_4bit_send_string_pos@column^0,c
  9006   003BCC  0E01               	movlw	low STR_5
  9007   003BCE  6E1A               	movwf	i2lcd_4bit_send_string_pos@str^0,c
  9008   003BD0  501A               	movf	i2lcd_4bit_send_string_pos@str^0,w,c
  9009   003BD2  A4D8               	btfss	status,2,c
  9010   003BD4  0E10               	movlw	high __smallconst
  9011   003BD6  6E1B               	movwf	(i2lcd_4bit_send_string_pos@str+1)^0,c
  9012   003BD8  EC82  F024         	call	i2_lcd_4bit_send_string_pos	;wreg free
  9013   003BDC                     
  9014                           ;functions.c: 37:     lcd_4bit_send_string_pos(&lcd,1,15,temp_display);
  9015   003BDC  0E3E               	movlw	low _lcd
  9016   003BDE  6E16               	movwf	i2lcd_4bit_send_string_pos@lcd^0,c
  9017   003BE0  0E01               	movlw	high _lcd
  9018   003BE2  6E17               	movwf	(i2lcd_4bit_send_string_pos@lcd+1)^0,c
  9019   003BE4  0E01               	movlw	1
  9020   003BE6  6E18               	movwf	i2lcd_4bit_send_string_pos@row^0,c
  9021   003BE8  0E0F               	movlw	15
  9022   003BEA  6E19               	movwf	i2lcd_4bit_send_string_pos@column^0,c
  9023   003BEC  0E64               	movlw	low _temp_display
  9024   003BEE  6E1A               	movwf	i2lcd_4bit_send_string_pos@str^0,c
  9025   003BF0  0E01               	movlw	high _temp_display
  9026   003BF2  6E1B               	movwf	(i2lcd_4bit_send_string_pos@str+1)^0,c
  9027   003BF4  EC82  F024         	call	i2_lcd_4bit_send_string_pos	;wreg free
  9028   003BF8  0012               	return		;funcret
  9029   003BFA                     __end_of_Write_temp_LCD:
  9030                           	callstack 0
  9031                           
  9032 ;; *************** function i2_lcd_4bit_send_string_pos *****************
  9033 ;; Defined at:
  9034 ;;		line 122 in file "ECU_LAYER/LCD/ecu_lcd.c"
  9035 ;; Parameters:    Size  Location     Type
  9036 ;;  lcd             2   21[COMRAM] PTR const struct .
  9037 ;;		 -> lcd(6), 
  9038 ;;  row             1   23[COMRAM] unsigned char 
  9039 ;;  column          1   24[COMRAM] unsigned char 
  9040 ;;  str             2   25[COMRAM] PTR unsigned char 
  9041 ;;		 -> STR_5(14), temp_display(8), STR_4(8), 
  9042 ;; Auto vars:     Size  Location     Type
  9043 ;;  ret             1    0        unsigned char 
  9044 ;; Return value:  Size  Location     Type
  9045 ;;                  1    wreg      unsigned char 
  9046 ;; Registers used:
  9047 ;;		wreg, fsr0l, fsr0h, fsr2l, fsr2h, status,2, status,0, tblptrl, tblptrh, tblptru, prodl, prodh, cstack
  9048 ;; Tracked objects:
  9049 ;;		On entry : 0/0
  9050 ;;		On exit  : 0/0
  9051 ;;		Unchanged: 0/0
  9052 ;; Data sizes:     COMRAM   BANK0   BANK1   BANK2   BANK3   BANK4   BANK5   BANK6   BANK7   BANK8   BANK9  BANK10  BANK1
      +1  BANK12  BANK13  BANK14  BANK15
  9053 ;;      Params:         6       0       0       0       0       0       0       0       0       0       0       0       
      +0       0       0       0       0
  9054 ;;      Locals:         0       0       0       0       0       0       0       0       0       0       0       0       
      +0       0       0       0       0
  9055 ;;      Temps:          0       0       0       0       0       0       0       0       0       0       0       0       
      +0       0       0       0       0
  9056 ;;      Totals:         6       0       0       0       0       0       0       0       0       0       0       0       
      +0       0       0       0       0
  9057 ;;Total ram usage:        6 bytes
  9058 ;; Hardware stack levels used: 1
  9059 ;; Hardware stack levels required when called: 4
  9060 ;; This function calls:
  9061 ;;		i2_lcd_4bit_send_string
  9062 ;;		i2_set_cursor_4bit
  9063 ;; This function is called by:
  9064 ;;		_Write_temp_LCD
  9065 ;; This function uses a non-reentrant model
  9066 ;;
  9067                           
  9068                           	psect	text49
  9069   004904                     __ptext49:
  9070                           	callstack 0
  9071   004904                     i2_lcd_4bit_send_string_pos:
  9072                           	callstack 17
  9073   004904                     
  9074                           ;ECU_LAYER/LCD/ecu_lcd.c: 126:     if (((void*)0) == lcd ){
  9075   004904  5016               	movf	i2lcd_4bit_send_string_pos@lcd^0,w,c
  9076   004906  1017               	iorwf	(i2lcd_4bit_send_string_pos@lcd+1)^0,w,c
  9077   004908  A4D8               	btfss	status,2,c
  9078   00490A  EF89  F024         	goto	i2u863_41
  9079   00490E  EF8B  F024         	goto	i2u863_40
  9080   004912                     i2u863_41:
  9081   004912  EF8D  F024         	goto	i2l8431
  9082   004916                     i2u863_40:
  9083   004916                     
  9084                           ;ECU_LAYER/LCD/ecu_lcd.c: 128:     }
  9085   004916  EFA1  F024         	goto	i2l85
  9086   00491A                     i2l8431:
  9087                           
  9088                           ;ECU_LAYER/LCD/ecu_lcd.c: 130:         set_cursor_4bit(lcd,row,column);
  9089   00491A  C016  F010         	movff	i2lcd_4bit_send_string_pos@lcd,i2set_cursor_4bit@lcd
  9090   00491E  C017  F011         	movff	i2lcd_4bit_send_string_pos@lcd+1,i2set_cursor_4bit@lcd+1
  9091   004922  C018  F012         	movff	i2lcd_4bit_send_string_pos@row,i2set_cursor_4bit@row
  9092   004926  C019  F013         	movff	i2lcd_4bit_send_string_pos@column,i2set_cursor_4bit@column
  9093   00492A  ECFF  F01F         	call	i2_set_cursor_4bit	;wreg free
  9094   00492E                     
  9095                           ;ECU_LAYER/LCD/ecu_lcd.c: 131:         lcd_4bit_send_string(lcd,str);
  9096   00492E  C016  F010         	movff	i2lcd_4bit_send_string_pos@lcd,i2lcd_4bit_send_string@lcd
  9097   004932  C017  F011         	movff	i2lcd_4bit_send_string_pos@lcd+1,i2lcd_4bit_send_string@lcd+1
  9098   004936  C01A  F012         	movff	i2lcd_4bit_send_string_pos@str,i2lcd_4bit_send_string@str
  9099   00493A  C01B  F013         	movff	i2lcd_4bit_send_string_pos@str+1,i2lcd_4bit_send_string@str+1
  9100   00493E  ECD6  F020         	call	i2_lcd_4bit_send_string	;wreg free
  9101   004942                     i2l85:
  9102   004942  0012               	return		;funcret
  9103   004944                     __end_ofi2_lcd_4bit_send_string_pos:
  9104                           	callstack 0
  9105                           
  9106 ;; *************** function i2_set_cursor_4bit *****************
  9107 ;; Defined at:
  9108 ;;		line 430 in file "ECU_LAYER/LCD/ecu_lcd.c"
  9109 ;; Parameters:    Size  Location     Type
  9110 ;;  lcd             2   15[COMRAM] PTR const struct .
  9111 ;;		 -> lcd(6), 
  9112 ;;  row             1   17[COMRAM] unsigned char 
  9113 ;;  column          1   18[COMRAM] unsigned char 
  9114 ;; Auto vars:     Size  Location     Type
  9115 ;;		None
  9116 ;; Return value:  Size  Location     Type
  9117 ;;                  1    wreg      void 
  9118 ;; Registers used:
  9119 ;;		wreg, fsr2l, fsr2h, status,2, status,0, prodl, prodh, cstack
  9120 ;; Tracked objects:
  9121 ;;		On entry : 0/0
  9122 ;;		On exit  : 0/0
  9123 ;;		Unchanged: 0/0
  9124 ;; Data sizes:     COMRAM   BANK0   BANK1   BANK2   BANK3   BANK4   BANK5   BANK6   BANK7   BANK8   BANK9  BANK10  BANK1
      +1  BANK12  BANK13  BANK14  BANK15
  9125 ;;      Params:         4       0       0       0       0       0       0       0       0       0       0       0       
      +0       0       0       0       0
  9126 ;;      Locals:         0       0       0       0       0       0       0       0       0       0       0       0       
      +0       0       0       0       0
  9127 ;;      Temps:          2       0       0       0       0       0       0       0       0       0       0       0       
      +0       0       0       0       0
  9128 ;;      Totals:         6       0       0       0       0       0       0       0       0       0       0       0       
      +0       0       0       0       0
  9129 ;;Total ram usage:        6 bytes
  9130 ;; Hardware stack levels used: 1
  9131 ;; Hardware stack levels required when called: 3
  9132 ;; This function calls:
  9133 ;;		i2_lcd_4bit_send_command
  9134 ;; This function is called by:
  9135 ;;		i2_lcd_4bit_send_string_pos
  9136 ;; This function uses a non-reentrant model
  9137 ;;
  9138                           
  9139                           	psect	text50
  9140   003FFE                     __ptext50:
  9141                           	callstack 0
  9142   003FFE                     i2_set_cursor_4bit:
  9143                           	callstack 17
  9144   003FFE                     
  9145                           ;ECU_LAYER/LCD/ecu_lcd.c: 431:     column--;
  9146   003FFE  0613               	decf	i2set_cursor_4bit@column^0,f,c
  9147                           
  9148                           ;ECU_LAYER/LCD/ecu_lcd.c: 432:     switch (row){
  9149   004000  EF2E  F020         	goto	i2l8223
  9150   004004                     i2l8215:
  9151   004004  C010  F00D         	movff	i2set_cursor_4bit@lcd,i2lcd_4bit_send_command@lcd
  9152   004008  C011  F00E         	movff	i2set_cursor_4bit@lcd+1,i2lcd_4bit_send_command@lcd+1
  9153   00400C  5013               	movf	i2set_cursor_4bit@column^0,w,c
  9154   00400E  0F80               	addlw	128
  9155   004010  6E0F               	movwf	i2lcd_4bit_send_command@command^0,c
  9156   004012  ECDE  F022         	call	i2_lcd_4bit_send_command	;wreg free
  9157   004016  EF4B  F020         	goto	i2l182
  9158   00401A                     i2l8217:
  9159   00401A  C010  F00D         	movff	i2set_cursor_4bit@lcd,i2lcd_4bit_send_command@lcd
  9160   00401E  C011  F00E         	movff	i2set_cursor_4bit@lcd+1,i2lcd_4bit_send_command@lcd+1
  9161   004022  5013               	movf	i2set_cursor_4bit@column^0,w,c
  9162   004024  0FC0               	addlw	192
  9163   004026  6E0F               	movwf	i2lcd_4bit_send_command@command^0,c
  9164   004028  ECDE  F022         	call	i2_lcd_4bit_send_command	;wreg free
  9165   00402C  EF4B  F020         	goto	i2l182
  9166   004030                     i2l8219:
  9167   004030  C010  F00D         	movff	i2set_cursor_4bit@lcd,i2lcd_4bit_send_command@lcd
  9168   004034  C011  F00E         	movff	i2set_cursor_4bit@lcd+1,i2lcd_4bit_send_command@lcd+1
  9169   004038  5013               	movf	i2set_cursor_4bit@column^0,w,c
  9170   00403A  0F94               	addlw	148
  9171   00403C  6E0F               	movwf	i2lcd_4bit_send_command@command^0,c
  9172   00403E  ECDE  F022         	call	i2_lcd_4bit_send_command	;wreg free
  9173   004042  EF4B  F020         	goto	i2l182
  9174   004046                     i2l8221:
  9175   004046  C010  F00D         	movff	i2set_cursor_4bit@lcd,i2lcd_4bit_send_command@lcd
  9176   00404A  C011  F00E         	movff	i2set_cursor_4bit@lcd+1,i2lcd_4bit_send_command@lcd+1
  9177   00404E  5013               	movf	i2set_cursor_4bit@column^0,w,c
  9178   004050  0FD4               	addlw	212
  9179   004052  6E0F               	movwf	i2lcd_4bit_send_command@command^0,c
  9180   004054  ECDE  F022         	call	i2_lcd_4bit_send_command	;wreg free
  9181   004058  EF4B  F020         	goto	i2l182
  9182   00405C                     i2l8223:
  9183   00405C  5012               	movf	i2set_cursor_4bit@row^0,w,c
  9184   00405E  6E14               	movwf	??i2_set_cursor_4bit^0,c
  9185   004060  6A15               	clrf	(??i2_set_cursor_4bit+1)^0,c
  9186                           
  9187                           ; Switch on 2 bytes has been partitioned into a top level switch of size 1, and 1 sub-sw
      +                          itches
  9188                           ; Switch size 1, requested type "simple"
  9189                           ; Number of cases is 1, Range of values is 0 to 0
  9190                           ; switch strategies available:
  9191                           ; Name         Instructions Cycles
  9192                           ; simple_byte            4     3 (average)
  9193                           ;	Chosen strategy is simple_byte
  9194   004062  5015               	movf	(??i2_set_cursor_4bit+1)^0,w,c
  9195   004064  0A00               	xorlw	0	; case 0
  9196   004066  B4D8               	btfsc	status,2,c
  9197   004068  EF38  F020         	goto	i2l9485
  9198   00406C  EF4B  F020         	goto	i2l182
  9199   004070                     i2l9485:
  9200                           
  9201                           ; Switch size 1, requested type "simple"
  9202                           ; Number of cases is 4, Range of values is 1 to 4
  9203                           ; switch strategies available:
  9204                           ; Name         Instructions Cycles
  9205                           ; simple_byte           13     7 (average)
  9206                           ;	Chosen strategy is simple_byte
  9207   004070  5014               	movf	??i2_set_cursor_4bit^0,w,c
  9208   004072  0A01               	xorlw	1	; case 1
  9209   004074  B4D8               	btfsc	status,2,c
  9210   004076  EF02  F020         	goto	i2l8215
  9211   00407A  0A03               	xorlw	3	; case 2
  9212   00407C  B4D8               	btfsc	status,2,c
  9213   00407E  EF0D  F020         	goto	i2l8217
  9214   004082  0A01               	xorlw	1	; case 3
  9215   004084  B4D8               	btfsc	status,2,c
  9216   004086  EF18  F020         	goto	i2l8219
  9217   00408A  0A07               	xorlw	7	; case 4
  9218   00408C  B4D8               	btfsc	status,2,c
  9219   00408E  EF23  F020         	goto	i2l8221
  9220   004092  EF4B  F020         	goto	i2l182
  9221   004096                     i2l182:
  9222   004096  0012               	return		;funcret
  9223   004098                     __end_ofi2_set_cursor_4bit:
  9224                           	callstack 0
  9225                           
  9226 ;; *************** function i2_lcd_4bit_send_command *****************
  9227 ;; Defined at:
  9228 ;;		line 52 in file "ECU_LAYER/LCD/ecu_lcd.c"
  9229 ;; Parameters:    Size  Location     Type
  9230 ;;  lcd             2   12[COMRAM] PTR const struct .
  9231 ;;		 -> lcd(6), 
  9232 ;;  command         1   14[COMRAM] unsigned char 
  9233 ;; Auto vars:     Size  Location     Type
  9234 ;;  ret             1    0        unsigned char 
  9235 ;; Return value:  Size  Location     Type
  9236 ;;                  1    wreg      unsigned char 
  9237 ;; Registers used:
  9238 ;;		wreg, fsr2l, fsr2h, status,2, status,0, prodl, prodh, cstack
  9239 ;; Tracked objects:
  9240 ;;		On entry : 0/0
  9241 ;;		On exit  : 0/0
  9242 ;;		Unchanged: 0/0
  9243 ;; Data sizes:     COMRAM   BANK0   BANK1   BANK2   BANK3   BANK4   BANK5   BANK6   BANK7   BANK8   BANK9  BANK10  BANK1
      +1  BANK12  BANK13  BANK14  BANK15
  9244 ;;      Params:         3       0       0       0       0       0       0       0       0       0       0       0       
      +0       0       0       0       0
  9245 ;;      Locals:         0       0       0       0       0       0       0       0       0       0       0       0       
      +0       0       0       0       0
  9246 ;;      Temps:          0       0       0       0       0       0       0       0       0       0       0       0       
      +0       0       0       0       0
  9247 ;;      Totals:         3       0       0       0       0       0       0       0       0       0       0       0       
      +0       0       0       0       0
  9248 ;;Total ram usage:        3 bytes
  9249 ;; Hardware stack levels used: 1
  9250 ;; Hardware stack levels required when called: 2
  9251 ;; This function calls:
  9252 ;;		i2_gpio_pin_Write_logic
  9253 ;;		i2_send_4bit
  9254 ;;		i2_send_4bit_enable_signal
  9255 ;; This function is called by:
  9256 ;;		i2_set_cursor_4bit
  9257 ;; This function uses a non-reentrant model
  9258 ;;
  9259                           
  9260                           	psect	text51
  9261   0045BC                     __ptext51:
  9262                           	callstack 0
  9263   0045BC                     i2_lcd_4bit_send_command:
  9264                           	callstack 17
  9265   0045BC                     
  9266                           ;ECU_LAYER/LCD/ecu_lcd.c: 57:     if (((void*)0) == lcd ){
  9267   0045BC  500D               	movf	i2lcd_4bit_send_command@lcd^0,w,c
  9268   0045BE  100E               	iorwf	(i2lcd_4bit_send_command@lcd+1)^0,w,c
  9269   0045C0  A4D8               	btfss	status,2,c
  9270   0045C2  EFE5  F022         	goto	i2u731_41
  9271   0045C6  EFE7  F022         	goto	i2u731_40
  9272   0045CA                     i2u731_41:
  9273   0045CA  EFE9  F022         	goto	i2l7577
  9274   0045CE                     i2u731_40:
  9275   0045CE                     
  9276                           ;ECU_LAYER/LCD/ecu_lcd.c: 59:     }
  9277   0045CE  EF0E  F023         	goto	i2l62
  9278   0045D2                     i2l7577:
  9279                           
  9280                           ;ECU_LAYER/LCD/ecu_lcd.c: 61:         gpio_pin_Write_logic(&(lcd->lcd_rs),LOW);
  9281   0045D2  C00D  F001         	movff	i2lcd_4bit_send_command@lcd,i2gpio_pin_Write_logic@_pin_config
  9282   0045D6  C00E  F002         	movff	i2lcd_4bit_send_command@lcd+1,i2gpio_pin_Write_logic@_pin_config+1
  9283   0045DA  0E00               	movlw	0
  9284   0045DC  6E03               	movwf	i2gpio_pin_Write_logic@logic^0,c
  9285   0045DE  EC19  F01B         	call	i2_gpio_pin_Write_logic	;wreg free
  9286                           
  9287                           ;ECU_LAYER/LCD/ecu_lcd.c: 62:         send_4bit(lcd,command>>4);
  9288   0045E2  C00D  F00A         	movff	i2lcd_4bit_send_command@lcd,i2send_4bit@lcd
  9289   0045E6  C00E  F00B         	movff	i2lcd_4bit_send_command@lcd+1,i2send_4bit@lcd+1
  9290   0045EA  380F               	swapf	i2lcd_4bit_send_command@command^0,w,c
  9291   0045EC  0B0F               	andlw	15
  9292   0045EE  6E0C               	movwf	i2send_4bit@_data_command^0,c
  9293   0045F0  EC7B  F022         	call	i2_send_4bit	;wreg free
  9294                           
  9295                           ;ECU_LAYER/LCD/ecu_lcd.c: 63:         send_4bit_enable_signal(lcd);
  9296   0045F4  C00D  F00A         	movff	i2lcd_4bit_send_command@lcd,i2send_4bit_enable_signal@lcd
  9297   0045F8  C00E  F00B         	movff	i2lcd_4bit_send_command@lcd+1,i2send_4bit_enable_signal@lcd+1
  9298   0045FC  EC4A  F025         	call	i2_send_4bit_enable_signal	;wreg free
  9299                           
  9300                           ;ECU_LAYER/LCD/ecu_lcd.c: 64:         send_4bit(lcd,command);
  9301   004600  C00D  F00A         	movff	i2lcd_4bit_send_command@lcd,i2send_4bit@lcd
  9302   004604  C00E  F00B         	movff	i2lcd_4bit_send_command@lcd+1,i2send_4bit@lcd+1
  9303   004608  C00F  F00C         	movff	i2lcd_4bit_send_command@command,i2send_4bit@_data_command
  9304   00460C  EC7B  F022         	call	i2_send_4bit	;wreg free
  9305                           
  9306                           ;ECU_LAYER/LCD/ecu_lcd.c: 65:         send_4bit_enable_signal(lcd);
  9307   004610  C00D  F00A         	movff	i2lcd_4bit_send_command@lcd,i2send_4bit_enable_signal@lcd
  9308   004614  C00E  F00B         	movff	i2lcd_4bit_send_command@lcd+1,i2send_4bit_enable_signal@lcd+1
  9309   004618  EC4A  F025         	call	i2_send_4bit_enable_signal	;wreg free
  9310   00461C                     i2l62:
  9311   00461C  0012               	return		;funcret
  9312   00461E                     __end_ofi2_lcd_4bit_send_command:
  9313                           	callstack 0
  9314                           
  9315 ;; *************** function i2_lcd_4bit_send_string *****************
  9316 ;; Defined at:
  9317 ;;		line 105 in file "ECU_LAYER/LCD/ecu_lcd.c"
  9318 ;; Parameters:    Size  Location     Type
  9319 ;;  lcd             2   15[COMRAM] PTR const struct .
  9320 ;;		 -> lcd(6), 
  9321 ;;  str             2   17[COMRAM] PTR unsigned char 
  9322 ;;		 -> STR_5(14), temp_display(8), STR_4(8), 
  9323 ;; Auto vars:     Size  Location     Type
  9324 ;;  ret             1    0        unsigned char 
  9325 ;; Return value:  Size  Location     Type
  9326 ;;                  1    wreg      unsigned char 
  9327 ;; Registers used:
  9328 ;;		wreg, fsr0l, fsr0h, fsr2l, fsr2h, status,2, status,0, tblptrl, tblptrh, tblptru, prodl, prodh, cstack
  9329 ;; Tracked objects:
  9330 ;;		On entry : 0/0
  9331 ;;		On exit  : 0/0
  9332 ;;		Unchanged: 0/0
  9333 ;; Data sizes:     COMRAM   BANK0   BANK1   BANK2   BANK3   BANK4   BANK5   BANK6   BANK7   BANK8   BANK9  BANK10  BANK1
      +1  BANK12  BANK13  BANK14  BANK15
  9334 ;;      Params:         4       0       0       0       0       0       0       0       0       0       0       0       
      +0       0       0       0       0
  9335 ;;      Locals:         0       0       0       0       0       0       0       0       0       0       0       0       
      +0       0       0       0       0
  9336 ;;      Temps:          0       0       0       0       0       0       0       0       0       0       0       0       
      +0       0       0       0       0
  9337 ;;      Totals:         4       0       0       0       0       0       0       0       0       0       0       0       
      +0       0       0       0       0
  9338 ;;Total ram usage:        4 bytes
  9339 ;; Hardware stack levels used: 1
  9340 ;; Hardware stack levels required when called: 3
  9341 ;; This function calls:
  9342 ;;		i2_lcd_4bit_send_data
  9343 ;; This function is called by:
  9344 ;;		i2_lcd_4bit_send_string_pos
  9345 ;; This function uses a non-reentrant model
  9346 ;;
  9347                           
  9348                           	psect	text52
  9349   0041AC                     __ptext52:
  9350                           	callstack 0
  9351   0041AC                     i2_lcd_4bit_send_string:
  9352                           	callstack 17
  9353   0041AC                     
  9354                           ;ECU_LAYER/LCD/ecu_lcd.c: 109:     if (((void*)0) == lcd ){
  9355   0041AC  5010               	movf	i2lcd_4bit_send_string@lcd^0,w,c
  9356   0041AE  1011               	iorwf	(i2lcd_4bit_send_string@lcd+1)^0,w,c
  9357   0041B0  A4D8               	btfss	status,2,c
  9358   0041B2  EFDD  F020         	goto	i2u840_41
  9359   0041B6  EFDF  F020         	goto	i2u840_40
  9360   0041BA                     i2u840_41:
  9361   0041BA  EFFB  F020         	goto	i2l8211
  9362   0041BE                     i2u840_40:
  9363   0041BE                     
  9364                           ;ECU_LAYER/LCD/ecu_lcd.c: 111:     }
  9365   0041BE  EF14  F021         	goto	i2l80
  9366   0041C2                     i2l8207:
  9367                           
  9368                           ;ECU_LAYER/LCD/ecu_lcd.c: 114:             lcd_4bit_send_data(lcd,*str++);
  9369   0041C2  C010  F00D         	movff	i2lcd_4bit_send_string@lcd,i2lcd_4bit_send_data@lcd
  9370   0041C6  C011  F00E         	movff	i2lcd_4bit_send_string@lcd+1,i2lcd_4bit_send_data@lcd+1
  9371   0041CA  C012  FFF6         	movff	i2lcd_4bit_send_string@str,tblptrl
  9372   0041CE  C013  FFF7         	movff	i2lcd_4bit_send_string@str+1,tblptrh
  9373   0041D2  0E00               	movlw	low (__smallconst shr (0+16))
  9374   0041D4  6EF8               	movwf	tblptru,c
  9375   0041D6  0E0F               	movlw	(high __ramtop+-1)
  9376   0041D8  64F7               	cpfsgt	tblptrh,c
  9377   0041DA  D003               	bra	i2u841_47
  9378   0041DC  0008               	tblrd		*
  9379   0041DE  50F5               	movf	tablat,w,c
  9380   0041E0  D005               	bra	i2u841_40
  9381   0041E2                     i2u841_47:
  9382   0041E2  CFF6 FFE9          	movff	tblptrl,fsr0l
  9383   0041E6  CFF7 FFEA          	movff	tblptrh,fsr0h
  9384   0041EA  50EF               	movf	indf0,w,c
  9385   0041EC                     i2u841_40:
  9386   0041EC  6E0F               	movwf	i2lcd_4bit_send_data@data^0,c
  9387   0041EE  EC0F  F023         	call	i2_lcd_4bit_send_data	;wreg free
  9388   0041F2  4A12               	infsnz	i2lcd_4bit_send_string@str^0,f,c
  9389   0041F4  2A13               	incf	(i2lcd_4bit_send_string@str+1)^0,f,c
  9390   0041F6                     i2l8211:
  9391                           
  9392                           ;ECU_LAYER/LCD/ecu_lcd.c: 113:         while(*str){
  9393   0041F6  C012  FFF6         	movff	i2lcd_4bit_send_string@str,tblptrl
  9394   0041FA  C013  FFF7         	movff	i2lcd_4bit_send_string@str+1,tblptrh
  9395   0041FE  0E00               	movlw	low (__smallconst shr (0+16))
  9396   004200  6EF8               	movwf	tblptru,c
  9397   004202  0E0F               	movlw	(high __ramtop+-1)
  9398   004204  64F7               	cpfsgt	tblptrh,c
  9399   004206  D003               	bra	i2u842_47
  9400   004208  0008               	tblrd		*
  9401   00420A  50F5               	movf	tablat,w,c
  9402   00420C  D005               	bra	i2u842_40
  9403   00420E                     i2u842_47:
  9404   00420E  CFF6 FFE9          	movff	tblptrl,fsr0l
  9405   004212  CFF7 FFEA          	movff	tblptrh,fsr0h
  9406   004216  50EF               	movf	indf0,w,c
  9407   004218                     i2u842_40:
  9408   004218  0900               	iorlw	0
  9409   00421A  A4D8               	btfss	status,2,c
  9410   00421C  EF12  F021         	goto	i2u843_41
  9411   004220  EF14  F021         	goto	i2u843_40
  9412   004224                     i2u843_41:
  9413   004224  EFE1  F020         	goto	i2l8207
  9414   004228                     i2u843_40:
  9415   004228                     i2l80:
  9416   004228  0012               	return		;funcret
  9417   00422A                     __end_ofi2_lcd_4bit_send_string:
  9418                           	callstack 0
  9419                           
  9420 ;; *************** function i2_lcd_4bit_send_data *****************
  9421 ;; Defined at:
  9422 ;;		line 72 in file "ECU_LAYER/LCD/ecu_lcd.c"
  9423 ;; Parameters:    Size  Location     Type
  9424 ;;  lcd             2   12[COMRAM] PTR const struct .
  9425 ;;		 -> lcd(6), 
  9426 ;;  data            1   14[COMRAM] unsigned char 
  9427 ;; Auto vars:     Size  Location     Type
  9428 ;;  ret             1    0        unsigned char 
  9429 ;; Return value:  Size  Location     Type
  9430 ;;                  1    wreg      unsigned char 
  9431 ;; Registers used:
  9432 ;;		wreg, fsr2l, fsr2h, status,2, status,0, prodl, prodh, cstack
  9433 ;; Tracked objects:
  9434 ;;		On entry : 0/0
  9435 ;;		On exit  : 0/0
  9436 ;;		Unchanged: 0/0
  9437 ;; Data sizes:     COMRAM   BANK0   BANK1   BANK2   BANK3   BANK4   BANK5   BANK6   BANK7   BANK8   BANK9  BANK10  BANK1
      +1  BANK12  BANK13  BANK14  BANK15
  9438 ;;      Params:         3       0       0       0       0       0       0       0       0       0       0       0       
      +0       0       0       0       0
  9439 ;;      Locals:         0       0       0       0       0       0       0       0       0       0       0       0       
      +0       0       0       0       0
  9440 ;;      Temps:          0       0       0       0       0       0       0       0       0       0       0       0       
      +0       0       0       0       0
  9441 ;;      Totals:         3       0       0       0       0       0       0       0       0       0       0       0       
      +0       0       0       0       0
  9442 ;;Total ram usage:        3 bytes
  9443 ;; Hardware stack levels used: 1
  9444 ;; Hardware stack levels required when called: 2
  9445 ;; This function calls:
  9446 ;;		i2_gpio_pin_Write_logic
  9447 ;;		i2_send_4bit
  9448 ;;		i2_send_4bit_enable_signal
  9449 ;; This function is called by:
  9450 ;;		i2_lcd_4bit_send_string
  9451 ;; This function uses a non-reentrant model
  9452 ;;
  9453                           
  9454                           	psect	text53
  9455   00461E                     __ptext53:
  9456                           	callstack 0
  9457   00461E                     i2_lcd_4bit_send_data:
  9458                           	callstack 17
  9459   00461E                     
  9460                           ;ECU_LAYER/LCD/ecu_lcd.c: 76:     if (((void*)0) == lcd ){
  9461   00461E  500D               	movf	i2lcd_4bit_send_data@lcd^0,w,c
  9462   004620  100E               	iorwf	(i2lcd_4bit_send_data@lcd+1)^0,w,c
  9463   004622  A4D8               	btfss	status,2,c
  9464   004624  EF16  F023         	goto	i2u732_41
  9465   004628  EF18  F023         	goto	i2u732_40
  9466   00462C                     i2u732_41:
  9467   00462C  EF1A  F023         	goto	i2l7587
  9468   004630                     i2u732_40:
  9469   004630                     
  9470                           ;ECU_LAYER/LCD/ecu_lcd.c: 78:     }
  9471   004630  EF3F  F023         	goto	i2l67
  9472   004634                     i2l7587:
  9473                           
  9474                           ;ECU_LAYER/LCD/ecu_lcd.c: 80:       gpio_pin_Write_logic(&(lcd->lcd_rs),HIGH);
  9475   004634  C00D  F001         	movff	i2lcd_4bit_send_data@lcd,i2gpio_pin_Write_logic@_pin_config
  9476   004638  C00E  F002         	movff	i2lcd_4bit_send_data@lcd+1,i2gpio_pin_Write_logic@_pin_config+1
  9477   00463C  0E01               	movlw	1
  9478   00463E  6E03               	movwf	i2gpio_pin_Write_logic@logic^0,c
  9479   004640  EC19  F01B         	call	i2_gpio_pin_Write_logic	;wreg free
  9480                           
  9481                           ;ECU_LAYER/LCD/ecu_lcd.c: 81:         send_4bit(lcd,data>>4);
  9482   004644  C00D  F00A         	movff	i2lcd_4bit_send_data@lcd,i2send_4bit@lcd
  9483   004648  C00E  F00B         	movff	i2lcd_4bit_send_data@lcd+1,i2send_4bit@lcd+1
  9484   00464C  380F               	swapf	i2lcd_4bit_send_data@data^0,w,c
  9485   00464E  0B0F               	andlw	15
  9486   004650  6E0C               	movwf	i2send_4bit@_data_command^0,c
  9487   004652  EC7B  F022         	call	i2_send_4bit	;wreg free
  9488                           
  9489                           ;ECU_LAYER/LCD/ecu_lcd.c: 82:         send_4bit_enable_signal(lcd);
  9490   004656  C00D  F00A         	movff	i2lcd_4bit_send_data@lcd,i2send_4bit_enable_signal@lcd
  9491   00465A  C00E  F00B         	movff	i2lcd_4bit_send_data@lcd+1,i2send_4bit_enable_signal@lcd+1
  9492   00465E  EC4A  F025         	call	i2_send_4bit_enable_signal	;wreg free
  9493                           
  9494                           ;ECU_LAYER/LCD/ecu_lcd.c: 83:         send_4bit(lcd,data);
  9495   004662  C00D  F00A         	movff	i2lcd_4bit_send_data@lcd,i2send_4bit@lcd
  9496   004666  C00E  F00B         	movff	i2lcd_4bit_send_data@lcd+1,i2send_4bit@lcd+1
  9497   00466A  C00F  F00C         	movff	i2lcd_4bit_send_data@data,i2send_4bit@_data_command
  9498   00466E  EC7B  F022         	call	i2_send_4bit	;wreg free
  9499                           
  9500                           ;ECU_LAYER/LCD/ecu_lcd.c: 84:         send_4bit_enable_signal(lcd);
  9501   004672  C00D  F00A         	movff	i2lcd_4bit_send_data@lcd,i2send_4bit_enable_signal@lcd
  9502   004676  C00E  F00B         	movff	i2lcd_4bit_send_data@lcd+1,i2send_4bit_enable_signal@lcd+1
  9503   00467A  EC4A  F025         	call	i2_send_4bit_enable_signal	;wreg free
  9504   00467E                     i2l67:
  9505   00467E  0012               	return		;funcret
  9506   004680                     __end_ofi2_lcd_4bit_send_data:
  9507                           	callstack 0
  9508                           
  9509 ;; *************** function i2_send_4bit_enable_signal *****************
  9510 ;; Defined at:
  9511 ;;		line 400 in file "ECU_LAYER/LCD/ecu_lcd.c"
  9512 ;; Parameters:    Size  Location     Type
  9513 ;;  lcd             2    9[COMRAM] PTR const struct .
  9514 ;;		 -> lcd(6), 
  9515 ;; Auto vars:     Size  Location     Type
  9516 ;;		None
  9517 ;; Return value:  Size  Location     Type
  9518 ;;                  1    wreg      void 
  9519 ;; Registers used:
  9520 ;;		wreg, fsr2l, fsr2h, status,2, status,0, prodl, prodh, cstack
  9521 ;; Tracked objects:
  9522 ;;		On entry : 0/0
  9523 ;;		On exit  : 0/0
  9524 ;;		Unchanged: 0/0
  9525 ;; Data sizes:     COMRAM   BANK0   BANK1   BANK2   BANK3   BANK4   BANK5   BANK6   BANK7   BANK8   BANK9  BANK10  BANK1
      +1  BANK12  BANK13  BANK14  BANK15
  9526 ;;      Params:         2       0       0       0       0       0       0       0       0       0       0       0       
      +0       0       0       0       0
  9527 ;;      Locals:         0       0       0       0       0       0       0       0       0       0       0       0       
      +0       0       0       0       0
  9528 ;;      Temps:          0       0       0       0       0       0       0       0       0       0       0       0       
      +0       0       0       0       0
  9529 ;;      Totals:         2       0       0       0       0       0       0       0       0       0       0       0       
      +0       0       0       0       0
  9530 ;;Total ram usage:        2 bytes
  9531 ;; Hardware stack levels used: 1
  9532 ;; Hardware stack levels required when called: 1
  9533 ;; This function calls:
  9534 ;;		i2_gpio_pin_Write_logic
  9535 ;; This function is called by:
  9536 ;;		i2_lcd_4bit_send_command
  9537 ;;		i2_lcd_4bit_send_data
  9538 ;; This function uses a non-reentrant model
  9539 ;;
  9540                           
  9541                           	psect	text54
  9542   004A94                     __ptext54:
  9543                           	callstack 0
  9544   004A94                     i2_send_4bit_enable_signal:
  9545                           	callstack 17
  9546   004A94                     
  9547                           ;ECU_LAYER/LCD/ecu_lcd.c: 402:     gpio_pin_Write_logic(&(lcd->lcd_en),HIGH);
  9548   004A94  0E01               	movlw	1
  9549   004A96  240A               	addwf	i2send_4bit_enable_signal@lcd^0,w,c
  9550   004A98  6E01               	movwf	i2gpio_pin_Write_logic@_pin_config^0,c
  9551   004A9A  0E00               	movlw	0
  9552   004A9C  200B               	addwfc	(i2send_4bit_enable_signal@lcd+1)^0,w,c
  9553   004A9E  6E02               	movwf	(i2gpio_pin_Write_logic@_pin_config+1)^0,c
  9554   004AA0  0E01               	movlw	1
  9555   004AA2  6E03               	movwf	i2gpio_pin_Write_logic@logic^0,c
  9556   004AA4  EC19  F01B         	call	i2_gpio_pin_Write_logic	;wreg free
  9557   004AA8                     
  9558                           ;ECU_LAYER/LCD/ecu_lcd.c: 403:     _delay((unsigned long)((5)*(8000000UL/4000000.0)));
  9559   004AA8  0E03               	movlw	3
  9560   004AAA                     i2u951_47:
  9561   004AAA  2EE8               	decfsz	wreg,f,c
  9562   004AAC  D7FE               	bra	i2u951_47
  9563   004AAE  0000               	nop	
  9564   004AB0                     
  9565                           ;ECU_LAYER/LCD/ecu_lcd.c: 404:     gpio_pin_Write_logic(&(lcd->lcd_en),LOW);
  9566   004AB0  0E01               	movlw	1
  9567   004AB2  240A               	addwf	i2send_4bit_enable_signal@lcd^0,w,c
  9568   004AB4  6E01               	movwf	i2gpio_pin_Write_logic@_pin_config^0,c
  9569   004AB6  0E00               	movlw	0
  9570   004AB8  200B               	addwfc	(i2send_4bit_enable_signal@lcd+1)^0,w,c
  9571   004ABA  6E02               	movwf	(i2gpio_pin_Write_logic@_pin_config+1)^0,c
  9572   004ABC  0E00               	movlw	0
  9573   004ABE  6E03               	movwf	i2gpio_pin_Write_logic@logic^0,c
  9574   004AC0  EC19  F01B         	call	i2_gpio_pin_Write_logic	;wreg free
  9575   004AC4  0012               	return		;funcret
  9576   004AC6                     __end_ofi2_send_4bit_enable_signal:
  9577                           	callstack 0
  9578                           
  9579 ;; *************** function i2_send_4bit *****************
  9580 ;; Defined at:
  9581 ;;		line 390 in file "ECU_LAYER/LCD/ecu_lcd.c"
  9582 ;; Parameters:    Size  Location     Type
  9583 ;;  lcd             2    9[COMRAM] PTR const struct .
  9584 ;;		 -> lcd(6), 
  9585 ;;  _data_comman    1   11[COMRAM] unsigned char 
  9586 ;; Auto vars:     Size  Location     Type
  9587 ;;		None
  9588 ;; Return value:  Size  Location     Type
  9589 ;;                  1    wreg      void 
  9590 ;; Registers used:
  9591 ;;		wreg, fsr2l, fsr2h, status,2, status,0, prodl, prodh, cstack
  9592 ;; Tracked objects:
  9593 ;;		On entry : 0/0
  9594 ;;		On exit  : 0/0
  9595 ;;		Unchanged: 0/0
  9596 ;; Data sizes:     COMRAM   BANK0   BANK1   BANK2   BANK3   BANK4   BANK5   BANK6   BANK7   BANK8   BANK9  BANK10  BANK1
      +1  BANK12  BANK13  BANK14  BANK15
  9597 ;;      Params:         3       0       0       0       0       0       0       0       0       0       0       0       
      +0       0       0       0       0
  9598 ;;      Locals:         0       0       0       0       0       0       0       0       0       0       0       0       
      +0       0       0       0       0
  9599 ;;      Temps:          0       0       0       0       0       0       0       0       0       0       0       0       
      +0       0       0       0       0
  9600 ;;      Totals:         3       0       0       0       0       0       0       0       0       0       0       0       
      +0       0       0       0       0
  9601 ;;Total ram usage:        3 bytes
  9602 ;; Hardware stack levels used: 1
  9603 ;; Hardware stack levels required when called: 1
  9604 ;; This function calls:
  9605 ;;		i2_gpio_pin_Write_logic
  9606 ;; This function is called by:
  9607 ;;		i2_lcd_4bit_send_command
  9608 ;;		i2_lcd_4bit_send_data
  9609 ;; This function uses a non-reentrant model
  9610 ;;
  9611                           
  9612                           	psect	text55
  9613   0044F6                     __ptext55:
  9614                           	callstack 0
  9615   0044F6                     i2_send_4bit:
  9616                           	callstack 17
  9617   0044F6                     
  9618                           ;ECU_LAYER/LCD/ecu_lcd.c: 391:     gpio_pin_Write_logic(&(lcd->lcd_data[0]),(_data_comma
      +                          nd>>0)&0x01);
  9619   0044F6  0E02               	movlw	2
  9620   0044F8  240A               	addwf	i2send_4bit@lcd^0,w,c
  9621   0044FA  6E01               	movwf	i2gpio_pin_Write_logic@_pin_config^0,c
  9622   0044FC  0E00               	movlw	0
  9623   0044FE  200B               	addwfc	(i2send_4bit@lcd+1)^0,w,c
  9624   004500  6E02               	movwf	(i2gpio_pin_Write_logic@_pin_config+1)^0,c
  9625   004502  500C               	movf	i2send_4bit@_data_command^0,w,c
  9626   004504  0B01               	andlw	1
  9627   004506  6E03               	movwf	i2gpio_pin_Write_logic@logic^0,c
  9628   004508  EC19  F01B         	call	i2_gpio_pin_Write_logic	;wreg free
  9629                           
  9630                           ;ECU_LAYER/LCD/ecu_lcd.c: 392:     gpio_pin_Write_logic(&(lcd->lcd_data[1]),(_data_comma
      +                          nd>>1)&0x01);
  9631   00450C  0E03               	movlw	3
  9632   00450E  240A               	addwf	i2send_4bit@lcd^0,w,c
  9633   004510  6E01               	movwf	i2gpio_pin_Write_logic@_pin_config^0,c
  9634   004512  0E00               	movlw	0
  9635   004514  200B               	addwfc	(i2send_4bit@lcd+1)^0,w,c
  9636   004516  6E02               	movwf	(i2gpio_pin_Write_logic@_pin_config+1)^0,c
  9637   004518  90D8               	bcf	status,0,c
  9638   00451A  300C               	rrcf	i2send_4bit@_data_command^0,w,c
  9639   00451C  0B01               	andlw	1
  9640   00451E  6E03               	movwf	i2gpio_pin_Write_logic@logic^0,c
  9641   004520  EC19  F01B         	call	i2_gpio_pin_Write_logic	;wreg free
  9642                           
  9643                           ;ECU_LAYER/LCD/ecu_lcd.c: 393:     gpio_pin_Write_logic(&(lcd->lcd_data[2]),(_data_comma
      +                          nd>>2)&0x01);
  9644   004524  0E04               	movlw	4
  9645   004526  240A               	addwf	i2send_4bit@lcd^0,w,c
  9646   004528  6E01               	movwf	i2gpio_pin_Write_logic@_pin_config^0,c
  9647   00452A  0E00               	movlw	0
  9648   00452C  200B               	addwfc	(i2send_4bit@lcd+1)^0,w,c
  9649   00452E  6E02               	movwf	(i2gpio_pin_Write_logic@_pin_config+1)^0,c
  9650   004530  400C               	rrncf	i2send_4bit@_data_command^0,w,c
  9651   004532  42E8               	rrncf	wreg,f,c
  9652   004534  0B3F               	andlw	63
  9653   004536  0B01               	andlw	1
  9654   004538  6E03               	movwf	i2gpio_pin_Write_logic@logic^0,c
  9655   00453A  EC19  F01B         	call	i2_gpio_pin_Write_logic	;wreg free
  9656                           
  9657                           ;ECU_LAYER/LCD/ecu_lcd.c: 394:     gpio_pin_Write_logic(&(lcd->lcd_data[3]),(_data_comma
      +                          nd>>3)&0x01);
  9658   00453E  0E05               	movlw	5
  9659   004540  240A               	addwf	i2send_4bit@lcd^0,w,c
  9660   004542  6E01               	movwf	i2gpio_pin_Write_logic@_pin_config^0,c
  9661   004544  0E00               	movlw	0
  9662   004546  200B               	addwfc	(i2send_4bit@lcd+1)^0,w,c
  9663   004548  6E02               	movwf	(i2gpio_pin_Write_logic@_pin_config+1)^0,c
  9664   00454A  380C               	swapf	i2send_4bit@_data_command^0,w,c
  9665   00454C  46E8               	rlncf	wreg,f,c
  9666   00454E  0B1F               	andlw	31
  9667   004550  0B01               	andlw	1
  9668   004552  6E03               	movwf	i2gpio_pin_Write_logic@logic^0,c
  9669   004554  EC19  F01B         	call	i2_gpio_pin_Write_logic	;wreg free
  9670   004558  0012               	return		;funcret
  9671   00455A                     __end_ofi2_send_4bit:
  9672                           	callstack 0
  9673                           
  9674 ;; *************** function i2_gpio_pin_Write_logic *****************
  9675 ;; Defined at:
  9676 ;;		line 32 in file "MCAL_LAYER/GPIO/hal_gpio.c"
  9677 ;; Parameters:    Size  Location     Type
  9678 ;;  _pin_config     2    0[COMRAM] PTR const struct .
  9679 ;;		 -> lcd$lcd_data(4), lcd(6), led_turn_off@pin_obj(1), led_turn_on@pin_obj(1), 
  9680 ;;  logic           1    2[COMRAM] enum E2980
  9681 ;; Auto vars:     Size  Location     Type
  9682 ;;  ret             1    0        unsigned char 
  9683 ;; Return value:  Size  Location     Type
  9684 ;;                  1    wreg      unsigned char 
  9685 ;; Registers used:
  9686 ;;		wreg, fsr2l, fsr2h, status,2, status,0, prodl, prodh
  9687 ;; Tracked objects:
  9688 ;;		On entry : 0/0
  9689 ;;		On exit  : 0/0
  9690 ;;		Unchanged: 0/0
  9691 ;; Data sizes:     COMRAM   BANK0   BANK1   BANK2   BANK3   BANK4   BANK5   BANK6   BANK7   BANK8   BANK9  BANK10  BANK1
      +1  BANK12  BANK13  BANK14  BANK15
  9692 ;;      Params:         3       0       0       0       0       0       0       0       0       0       0       0       
      +0       0       0       0       0
  9693 ;;      Locals:         0       0       0       0       0       0       0       0       0       0       0       0       
      +0       0       0       0       0
  9694 ;;      Temps:          6       0       0       0       0       0       0       0       0       0       0       0       
      +0       0       0       0       0
  9695 ;;      Totals:         9       0       0       0       0       0       0       0       0       0       0       0       
      +0       0       0       0       0
  9696 ;;Total ram usage:        9 bytes
  9697 ;; Hardware stack levels used: 1
  9698 ;; This function calls:
  9699 ;;		Nothing
  9700 ;; This function is called by:
  9701 ;;		i2_lcd_4bit_send_command
  9702 ;;		i2_lcd_4bit_send_data
  9703 ;;		i2_send_4bit
  9704 ;;		i2_send_4bit_enable_signal
  9705 ;; This function uses a non-reentrant model
  9706 ;;
  9707                           
  9708                           	psect	text56
  9709   003632                     __ptext56:
  9710                           	callstack 0
  9711   003632                     i2_gpio_pin_Write_logic:
  9712                           	callstack 17
  9713   003632                     
  9714                           ;MCAL_LAYER/GPIO/hal_gpio.c: 35:     if (((void*)0) == _pin_config || _pin_config->pin >
      +                           (8 -1)){
  9715   003632  5001               	movf	i2gpio_pin_Write_logic@_pin_config^0,w,c
  9716   003634  1002               	iorwf	(i2gpio_pin_Write_logic@_pin_config+1)^0,w,c
  9717   003636  B4D8               	btfsc	status,2,c
  9718   003638  EF20  F01B         	goto	i2u723_41
  9719   00363C  EF22  F01B         	goto	i2u723_40
  9720   003640                     i2u723_41:
  9721   003640  EF33  F01B         	goto	i2l7519
  9722   003644                     i2u723_40:
  9723   003644  C001  FFD9         	movff	i2gpio_pin_Write_logic@_pin_config,fsr2l
  9724   003648  C002  FFDA         	movff	i2gpio_pin_Write_logic@_pin_config+1,fsr2h
  9725   00364C  30DF               	rrcf	223,w,c
  9726   00364E  32E8               	rrcf	wreg,f,c
  9727   003650  32E8               	rrcf	wreg,f,c
  9728   003652  0B07               	andlw	7
  9729   003654  6E04               	movwf	??i2_gpio_pin_Write_logic^0,c
  9730   003656  0E07               	movlw	7
  9731   003658  6404               	cpfsgt	??i2_gpio_pin_Write_logic^0,c
  9732   00365A  EF31  F01B         	goto	i2u724_41
  9733   00365E  EF33  F01B         	goto	i2u724_40
  9734   003662                     i2u724_41:
  9735   003662  EF94  F01B         	goto	i2l7527
  9736   003666                     i2u724_40:
  9737   003666                     i2l7519:
  9738                           
  9739                           ;MCAL_LAYER/GPIO/hal_gpio.c: 37:     }
  9740   003666  EFA9  F01B         	goto	i2l554
  9741   00366A                     i2l7521:
  9742                           
  9743                           ;MCAL_LAYER/GPIO/hal_gpio.c: 44:               (*lat_registers[_pin_config->port] &= ~((
      +                          uint_8)1<<_pin_config->pin));
  9744   00366A  C001  FFD9         	movff	i2gpio_pin_Write_logic@_pin_config,fsr2l
  9745   00366E  C002  FFDA         	movff	i2gpio_pin_Write_logic@_pin_config+1,fsr2h
  9746   003672  30DF               	rrcf	223,w,c
  9747   003674  32E8               	rrcf	wreg,f,c
  9748   003676  32E8               	rrcf	wreg,f,c
  9749   003678  0B07               	andlw	7
  9750   00367A  6E04               	movwf	??i2_gpio_pin_Write_logic^0,c
  9751   00367C  0E01               	movlw	1
  9752   00367E  6E05               	movwf	(??i2_gpio_pin_Write_logic+1)^0,c
  9753   003680  2A04               	incf	??i2_gpio_pin_Write_logic^0,f,c
  9754   003682  EF45  F01B         	goto	i2u725_44
  9755   003686                     i2u725_45:
  9756   003686  90D8               	bcf	status,0,c
  9757   003688  3605               	rlcf	(??i2_gpio_pin_Write_logic+1)^0,f,c
  9758   00368A                     i2u725_44:
  9759   00368A  2E04               	decfsz	??i2_gpio_pin_Write_logic^0,f,c
  9760   00368C  EF43  F01B         	goto	i2u725_45
  9761   003690  5005               	movf	(??i2_gpio_pin_Write_logic+1)^0,w,c
  9762   003692  0AFF               	xorlw	255
  9763   003694  6E06               	movwf	(??i2_gpio_pin_Write_logic+2)^0,c
  9764   003696  C001  FFD9         	movff	i2gpio_pin_Write_logic@_pin_config,fsr2l
  9765   00369A  C002  FFDA         	movff	i2gpio_pin_Write_logic@_pin_config+1,fsr2h
  9766   00369E  50DF               	movf	223,w,c
  9767   0036A0  0B07               	andlw	7
  9768   0036A2  6E07               	movwf	(??i2_gpio_pin_Write_logic+3)^0,c
  9769   0036A4  5007               	movf	(??i2_gpio_pin_Write_logic+3)^0,w,c
  9770   0036A6  0D02               	mullw	2
  9771   0036A8  0E0A               	movlw	low _lat_registers
  9772   0036AA  24F3               	addwf	243,w,c
  9773   0036AC  6ED9               	movwf	fsr2l,c
  9774   0036AE  0E01               	movlw	high _lat_registers
  9775   0036B0  20F4               	addwfc	prodh,w,c
  9776   0036B2  6EDA               	movwf	fsr2h,c
  9777   0036B4  CFDE F008          	movff	postinc2,??i2_gpio_pin_Write_logic+4
  9778   0036B8  CFDD F009          	movff	postdec2,??i2_gpio_pin_Write_logic+5
  9779   0036BC  C008  FFD9         	movff	??i2_gpio_pin_Write_logic+4,fsr2l
  9780   0036C0  C009  FFDA         	movff	??i2_gpio_pin_Write_logic+5,fsr2h
  9781   0036C4  5006               	movf	(??i2_gpio_pin_Write_logic+2)^0,w,c
  9782   0036C6  16DF               	andwf	indf2,f,c
  9783                           
  9784                           ;MCAL_LAYER/GPIO/hal_gpio.c: 46:               break;
  9785   0036C8  EFA9  F01B         	goto	i2l554
  9786   0036CC                     i2l7523:
  9787                           
  9788                           ;MCAL_LAYER/GPIO/hal_gpio.c: 50:             (*lat_registers[_pin_config->port] |= ((uin
      +                          t_8)1<<_pin_config->pin));
  9789   0036CC  C001  FFD9         	movff	i2gpio_pin_Write_logic@_pin_config,fsr2l
  9790   0036D0  C002  FFDA         	movff	i2gpio_pin_Write_logic@_pin_config+1,fsr2h
  9791   0036D4  30DF               	rrcf	223,w,c
  9792   0036D6  32E8               	rrcf	wreg,f,c
  9793   0036D8  32E8               	rrcf	wreg,f,c
  9794   0036DA  0B07               	andlw	7
  9795   0036DC  6E04               	movwf	??i2_gpio_pin_Write_logic^0,c
  9796   0036DE  0E01               	movlw	1
  9797   0036E0  6E05               	movwf	(??i2_gpio_pin_Write_logic+1)^0,c
  9798   0036E2  2A04               	incf	??i2_gpio_pin_Write_logic^0,f,c
  9799   0036E4  EF76  F01B         	goto	i2u726_44
  9800   0036E8                     i2u726_45:
  9801   0036E8  90D8               	bcf	status,0,c
  9802   0036EA  3605               	rlcf	(??i2_gpio_pin_Write_logic+1)^0,f,c
  9803   0036EC                     i2u726_44:
  9804   0036EC  2E04               	decfsz	??i2_gpio_pin_Write_logic^0,f,c
  9805   0036EE  EF74  F01B         	goto	i2u726_45
  9806   0036F2  C001  FFD9         	movff	i2gpio_pin_Write_logic@_pin_config,fsr2l
  9807   0036F6  C002  FFDA         	movff	i2gpio_pin_Write_logic@_pin_config+1,fsr2h
  9808   0036FA  50DF               	movf	223,w,c
  9809   0036FC  0B07               	andlw	7
  9810   0036FE  6E06               	movwf	(??i2_gpio_pin_Write_logic+2)^0,c
  9811   003700  5006               	movf	(??i2_gpio_pin_Write_logic+2)^0,w,c
  9812   003702  0D02               	mullw	2
  9813   003704  0E0A               	movlw	low _lat_registers
  9814   003706  24F3               	addwf	243,w,c
  9815   003708  6ED9               	movwf	fsr2l,c
  9816   00370A  0E01               	movlw	high _lat_registers
  9817   00370C  20F4               	addwfc	prodh,w,c
  9818   00370E  6EDA               	movwf	fsr2h,c
  9819   003710  CFDE F007          	movff	postinc2,??i2_gpio_pin_Write_logic+3
  9820   003714  CFDD F008          	movff	postdec2,??i2_gpio_pin_Write_logic+4
  9821   003718  C007  FFD9         	movff	??i2_gpio_pin_Write_logic+3,fsr2l
  9822   00371C  C008  FFDA         	movff	??i2_gpio_pin_Write_logic+4,fsr2h
  9823   003720  5005               	movf	(??i2_gpio_pin_Write_logic+1)^0,w,c
  9824   003722  12DF               	iorwf	indf2,f,c
  9825                           
  9826                           ;MCAL_LAYER/GPIO/hal_gpio.c: 52:               break;
  9827   003724  EFA9  F01B         	goto	i2l554
  9828   003728                     i2l7527:
  9829   003728  5003               	movf	i2gpio_pin_Write_logic@logic^0,w,c
  9830   00372A  6E04               	movwf	??i2_gpio_pin_Write_logic^0,c
  9831   00372C  6A05               	clrf	(??i2_gpio_pin_Write_logic+1)^0,c
  9832                           
  9833                           ; Switch on 2 bytes has been partitioned into a top level switch of size 1, and 1 sub-sw
      +                          itches
  9834                           ; Switch size 1, requested type "simple"
  9835                           ; Number of cases is 1, Range of values is 0 to 0
  9836                           ; switch strategies available:
  9837                           ; Name         Instructions Cycles
  9838                           ; simple_byte            4     3 (average)
  9839                           ;	Chosen strategy is simple_byte
  9840   00372E  5005               	movf	(??i2_gpio_pin_Write_logic+1)^0,w,c
  9841   003730  0A00               	xorlw	0	; case 0
  9842   003732  B4D8               	btfsc	status,2,c
  9843   003734  EF9E  F01B         	goto	i2l9487
  9844   003738  EF33  F01B         	goto	i2l7519
  9845   00373C                     i2l9487:
  9846                           
  9847                           ; Switch size 1, requested type "simple"
  9848                           ; Number of cases is 2, Range of values is 0 to 1
  9849                           ; switch strategies available:
  9850                           ; Name         Instructions Cycles
  9851                           ; simple_byte            7     4 (average)
  9852                           ;	Chosen strategy is simple_byte
  9853   00373C  5004               	movf	??i2_gpio_pin_Write_logic^0,w,c
  9854   00373E  0A00               	xorlw	0	; case 0
  9855   003740  B4D8               	btfsc	status,2,c
  9856   003742  EF35  F01B         	goto	i2l7521
  9857   003746  0A01               	xorlw	1	; case 1
  9858   003748  B4D8               	btfsc	status,2,c
  9859   00374A  EF66  F01B         	goto	i2l7523
  9860   00374E  EF33  F01B         	goto	i2l7519
  9861   003752                     i2l554:
  9862   003752  0012               	return		;funcret
  9863   003754                     __end_ofi2_gpio_pin_Write_logic:
  9864                           	callstack 0
  9865                           
  9866 ;; *************** function i2___xxtofl *****************
  9867 ;; Defined at:
  9868 ;;		line 10 in file "D:\Program Files\Microchip\xc8\v2.45\pic\sources\c99\common\xxtofl.c"
  9869 ;; Parameters:    Size  Location     Type
  9870 ;;  sign            1    wreg     unsigned char 
  9871 ;;  val             4    0[COMRAM] long 
  9872 ;; Auto vars:     Size  Location     Type
  9873 ;;  sign            1    8[COMRAM] unsigned char 
  9874 ;;  arg             4   10[COMRAM] unsigned long 
  9875 ;;  exp             1    9[COMRAM] unsigned char 
  9876 ;; Return value:  Size  Location     Type
  9877 ;;                  4    0[COMRAM] unsigned char 
  9878 ;; Registers used:
  9879 ;;		wreg, status,2, status,0
  9880 ;; Tracked objects:
  9881 ;;		On entry : 0/0
  9882 ;;		On exit  : 0/0
  9883 ;;		Unchanged: 0/0
  9884 ;; Data sizes:     COMRAM   BANK0   BANK1   BANK2   BANK3   BANK4   BANK5   BANK6   BANK7   BANK8   BANK9  BANK10  BANK1
      +1  BANK12  BANK13  BANK14  BANK15
  9885 ;;      Params:         4       0       0       0       0       0       0       0       0       0       0       0       
      +0       0       0       0       0
  9886 ;;      Locals:         6       0       0       0       0       0       0       0       0       0       0       0       
      +0       0       0       0       0
  9887 ;;      Temps:          4       0       0       0       0       0       0       0       0       0       0       0       
      +0       0       0       0       0
  9888 ;;      Totals:        14       0       0       0       0       0       0       0       0       0       0       0       
      +0       0       0       0       0
  9889 ;;Total ram usage:       14 bytes
  9890 ;; Hardware stack levels used: 1
  9891 ;; This function calls:
  9892 ;;		Nothing
  9893 ;; This function is called by:
  9894 ;;		_Write_temp_LCD
  9895 ;; This function uses a non-reentrant model
  9896 ;;
  9897                           
  9898                           	psect	text57
  9899   0029A6                     __ptext57:
  9900                           	callstack 0
  9901   0029A6                     i2___xxtofl:
  9902                           	callstack 21
  9903                           
  9904                           ;incstack = 0
  9905                           ;i2___xxtofl@sign stored from wreg
  9906   0029A6  6E09               	movwf	i2___xxtofl@sign^0,c
  9907   0029A8  5009               	movf	i2___xxtofl@sign^0,w,c
  9908   0029AA  B4D8               	btfsc	status,2,c
  9909   0029AC  EFDA  F014         	goto	i2u614_41
  9910   0029B0  EFDC  F014         	goto	i2u614_40
  9911   0029B4                     i2u614_41:
  9912   0029B4  EFFE  F014         	goto	i2l1768
  9913   0029B8                     i2u614_40:
  9914   0029B8  BE04               	btfsc	(i2___xxtofl@val+3)^0,7,c
  9915   0029BA  EFE3  F014         	goto	i2u615_40
  9916   0029BE  EFE1  F014         	goto	i2u615_41
  9917   0029C2                     i2u615_41:
  9918   0029C2  EFFE  F014         	goto	i2l1768
  9919   0029C6                     i2u615_40:
  9920   0029C6  C001  F005         	movff	i2___xxtofl@val,??i2___xxtofl
  9921   0029CA  C002  F006         	movff	i2___xxtofl@val+1,??i2___xxtofl+1
  9922   0029CE  C003  F007         	movff	i2___xxtofl@val+2,??i2___xxtofl+2
  9923   0029D2  C004  F008         	movff	i2___xxtofl@val+3,??i2___xxtofl+3
  9924   0029D6  1E05               	comf	??i2___xxtofl^0,f,c
  9925   0029D8  1E06               	comf	(??i2___xxtofl+1)^0,f,c
  9926   0029DA  1E07               	comf	(??i2___xxtofl+2)^0,f,c
  9927   0029DC  1E08               	comf	(??i2___xxtofl+3)^0,f,c
  9928   0029DE  2A05               	incf	??i2___xxtofl^0,f,c
  9929   0029E0  0E00               	movlw	0
  9930   0029E2  2206               	addwfc	(??i2___xxtofl+1)^0,f,c
  9931   0029E4  2207               	addwfc	(??i2___xxtofl+2)^0,f,c
  9932   0029E6  2208               	addwfc	(??i2___xxtofl+3)^0,f,c
  9933   0029E8  C005  F00B         	movff	??i2___xxtofl,i2___xxtofl@arg
  9934   0029EC  C006  F00C         	movff	??i2___xxtofl+1,i2___xxtofl@arg+1
  9935   0029F0  C007  F00D         	movff	??i2___xxtofl+2,i2___xxtofl@arg+2
  9936   0029F4  C008  F00E         	movff	??i2___xxtofl+3,i2___xxtofl@arg+3
  9937   0029F8  EF06  F015         	goto	i2l6343
  9938   0029FC                     i2l1768:
  9939   0029FC  C001  F00B         	movff	i2___xxtofl@val,i2___xxtofl@arg
  9940   002A00  C002  F00C         	movff	i2___xxtofl@val+1,i2___xxtofl@arg+1
  9941   002A04  C003  F00D         	movff	i2___xxtofl@val+2,i2___xxtofl@arg+2
  9942   002A08  C004  F00E         	movff	i2___xxtofl@val+3,i2___xxtofl@arg+3
  9943   002A0C                     i2l6343:
  9944   002A0C  5001               	movf	i2___xxtofl@val^0,w,c
  9945   002A0E  1002               	iorwf	(i2___xxtofl@val+1)^0,w,c
  9946   002A10  1003               	iorwf	(i2___xxtofl@val+2)^0,w,c
  9947   002A12  1004               	iorwf	(i2___xxtofl@val+3)^0,w,c
  9948   002A14  A4D8               	btfss	status,2,c
  9949   002A16  EF0F  F015         	goto	i2u616_41
  9950   002A1A  EF11  F015         	goto	i2u616_40
  9951   002A1E                     i2u616_41:
  9952   002A1E  EF1B  F015         	goto	i2l6349
  9953   002A22                     i2u616_40:
  9954   002A22  0E00               	movlw	0
  9955   002A24  6E01               	movwf	?i2___xxtofl^0,c
  9956   002A26  0E00               	movlw	0
  9957   002A28  6E02               	movwf	(?i2___xxtofl+1)^0,c
  9958   002A2A  0E00               	movlw	0
  9959   002A2C  6E03               	movwf	(?i2___xxtofl+2)^0,c
  9960   002A2E  0E00               	movlw	0
  9961   002A30  6E04               	movwf	(?i2___xxtofl+3)^0,c
  9962   002A32  EFAC  F015         	goto	i2l1771
  9963   002A36                     i2l6349:
  9964   002A36  0E96               	movlw	150
  9965   002A38  6E0A               	movwf	i2___xxtofl@exp^0,c
  9966   002A3A  EF25  F015         	goto	i2l6353
  9967   002A3E                     i2l6351:
  9968   002A3E  2A0A               	incf	i2___xxtofl@exp^0,f,c
  9969   002A40  90D8               	bcf	status,0,c
  9970   002A42  320E               	rrcf	(i2___xxtofl@arg+3)^0,f,c
  9971   002A44  320D               	rrcf	(i2___xxtofl@arg+2)^0,f,c
  9972   002A46  320C               	rrcf	(i2___xxtofl@arg+1)^0,f,c
  9973   002A48  320B               	rrcf	i2___xxtofl@arg^0,f,c
  9974   002A4A                     i2l6353:
  9975   002A4A  0E00               	movlw	0
  9976   002A4C  140B               	andwf	i2___xxtofl@arg^0,w,c
  9977   002A4E  6E05               	movwf	??i2___xxtofl^0,c
  9978   002A50  0E00               	movlw	0
  9979   002A52  140C               	andwf	(i2___xxtofl@arg+1)^0,w,c
  9980   002A54  6E06               	movwf	(??i2___xxtofl+1)^0,c
  9981   002A56  0E00               	movlw	0
  9982   002A58  140D               	andwf	(i2___xxtofl@arg+2)^0,w,c
  9983   002A5A  6E07               	movwf	(??i2___xxtofl+2)^0,c
  9984   002A5C  0EFE               	movlw	254
  9985   002A5E  140E               	andwf	(i2___xxtofl@arg+3)^0,w,c
  9986   002A60  6E08               	movwf	(??i2___xxtofl+3)^0,c
  9987   002A62  5005               	movf	??i2___xxtofl^0,w,c
  9988   002A64  1006               	iorwf	(??i2___xxtofl+1)^0,w,c
  9989   002A66  1007               	iorwf	(??i2___xxtofl+2)^0,w,c
  9990   002A68  1008               	iorwf	(??i2___xxtofl+3)^0,w,c
  9991   002A6A  A4D8               	btfss	status,2,c
  9992   002A6C  EF3A  F015         	goto	i2u617_41
  9993   002A70  EF3C  F015         	goto	i2u617_40
  9994   002A74                     i2u617_41:
  9995   002A74  EF1F  F015         	goto	i2l6351
  9996   002A78                     i2u617_40:
  9997   002A78  EF4A  F015         	goto	i2l1775
  9998   002A7C                     i2l6355:
  9999   002A7C  2A0A               	incf	i2___xxtofl@exp^0,f,c
 10000   002A7E  0E01               	movlw	1
 10001   002A80  260B               	addwf	i2___xxtofl@arg^0,f,c
 10002   002A82  0E00               	movlw	0
 10003   002A84  220C               	addwfc	(i2___xxtofl@arg+1)^0,f,c
 10004   002A86  220D               	addwfc	(i2___xxtofl@arg+2)^0,f,c
 10005   002A88  220E               	addwfc	(i2___xxtofl@arg+3)^0,f,c
 10006   002A8A  90D8               	bcf	status,0,c
 10007   002A8C  320E               	rrcf	(i2___xxtofl@arg+3)^0,f,c
 10008   002A8E  320D               	rrcf	(i2___xxtofl@arg+2)^0,f,c
 10009   002A90  320C               	rrcf	(i2___xxtofl@arg+1)^0,f,c
 10010   002A92  320B               	rrcf	i2___xxtofl@arg^0,f,c
 10011   002A94                     i2l1775:
 10012   002A94  0E00               	movlw	0
 10013   002A96  140B               	andwf	i2___xxtofl@arg^0,w,c
 10014   002A98  6E05               	movwf	??i2___xxtofl^0,c
 10015   002A9A  0E00               	movlw	0
 10016   002A9C  140C               	andwf	(i2___xxtofl@arg+1)^0,w,c
 10017   002A9E  6E06               	movwf	(??i2___xxtofl+1)^0,c
 10018   002AA0  0E00               	movlw	0
 10019   002AA2  140D               	andwf	(i2___xxtofl@arg+2)^0,w,c
 10020   002AA4  6E07               	movwf	(??i2___xxtofl+2)^0,c
 10021   002AA6  0EFF               	movlw	255
 10022   002AA8  140E               	andwf	(i2___xxtofl@arg+3)^0,w,c
 10023   002AAA  6E08               	movwf	(??i2___xxtofl+3)^0,c
 10024   002AAC  5005               	movf	??i2___xxtofl^0,w,c
 10025   002AAE  1006               	iorwf	(??i2___xxtofl+1)^0,w,c
 10026   002AB0  1007               	iorwf	(??i2___xxtofl+2)^0,w,c
 10027   002AB2  1008               	iorwf	(??i2___xxtofl+3)^0,w,c
 10028   002AB4  A4D8               	btfss	status,2,c
 10029   002AB6  EF5F  F015         	goto	i2u618_41
 10030   002ABA  EF61  F015         	goto	i2u618_40
 10031   002ABE                     i2u618_41:
 10032   002ABE  EF3E  F015         	goto	i2l6355
 10033   002AC2                     i2u618_40:
 10034   002AC2  EF69  F015         	goto	i2l6363
 10035   002AC6                     i2l6361:
 10036   002AC6  060A               	decf	i2___xxtofl@exp^0,f,c
 10037   002AC8  90D8               	bcf	status,0,c
 10038   002ACA  360B               	rlcf	i2___xxtofl@arg^0,f,c
 10039   002ACC  360C               	rlcf	(i2___xxtofl@arg+1)^0,f,c
 10040   002ACE  360D               	rlcf	(i2___xxtofl@arg+2)^0,f,c
 10041   002AD0  360E               	rlcf	(i2___xxtofl@arg+3)^0,f,c
 10042   002AD2                     i2l6363:
 10043   002AD2  BE0D               	btfsc	(i2___xxtofl@arg+2)^0,7,c
 10044   002AD4  EF6E  F015         	goto	i2u619_41
 10045   002AD8  EF70  F015         	goto	i2u619_40
 10046   002ADC                     i2u619_41:
 10047   002ADC  EF78  F015         	goto	i2l1782
 10048   002AE0                     i2u619_40:
 10049   002AE0  0E02               	movlw	2
 10050   002AE2  600A               	cpfslt	i2___xxtofl@exp^0,c
 10051   002AE4  EF76  F015         	goto	i2u620_41
 10052   002AE8  EF78  F015         	goto	i2u620_40
 10053   002AEC                     i2u620_41:
 10054   002AEC  EF63  F015         	goto	i2l6361
 10055   002AF0                     i2u620_40:
 10056   002AF0                     i2l1782:
 10057   002AF0  B00A               	btfsc	i2___xxtofl@exp^0,0,c
 10058   002AF2  EF7D  F015         	goto	i2u621_41
 10059   002AF6  EF7F  F015         	goto	i2u621_40
 10060   002AFA                     i2u621_41:
 10061   002AFA  EF80  F015         	goto	i2l6369
 10062   002AFE                     i2u621_40:
 10063   002AFE  9E0D               	bcf	(i2___xxtofl@arg+2)^0,7,c
 10064   002B00                     i2l6369:
 10065   002B00  90D8               	bcf	status,0,c
 10066   002B02  320A               	rrcf	i2___xxtofl@exp^0,f,c
 10067   002B04  C00A  F005         	movff	i2___xxtofl@exp,??i2___xxtofl
 10068   002B08  6A06               	clrf	(??i2___xxtofl+1)^0,c
 10069   002B0A  6A07               	clrf	(??i2___xxtofl+2)^0,c
 10070   002B0C  6A08               	clrf	(??i2___xxtofl+3)^0,c
 10071   002B0E  C005  F008         	movff	??i2___xxtofl,??i2___xxtofl+3
 10072   002B12  6A07               	clrf	(??i2___xxtofl+2)^0,c
 10073   002B14  6A06               	clrf	(??i2___xxtofl+1)^0,c
 10074   002B16  6A05               	clrf	??i2___xxtofl^0,c
 10075   002B18  5005               	movf	??i2___xxtofl^0,w,c
 10076   002B1A  120B               	iorwf	i2___xxtofl@arg^0,f,c
 10077   002B1C  5006               	movf	(??i2___xxtofl+1)^0,w,c
 10078   002B1E  120C               	iorwf	(i2___xxtofl@arg+1)^0,f,c
 10079   002B20  5007               	movf	(??i2___xxtofl+2)^0,w,c
 10080   002B22  120D               	iorwf	(i2___xxtofl@arg+2)^0,f,c
 10081   002B24  5008               	movf	(??i2___xxtofl+3)^0,w,c
 10082   002B26  120E               	iorwf	(i2___xxtofl@arg+3)^0,f,c
 10083   002B28  5009               	movf	i2___xxtofl@sign^0,w,c
 10084   002B2A  B4D8               	btfsc	status,2,c
 10085   002B2C  EF9A  F015         	goto	i2u622_41
 10086   002B30  EF9C  F015         	goto	i2u622_40
 10087   002B34                     i2u622_41:
 10088   002B34  EFA4  F015         	goto	i2l6379
 10089   002B38                     i2u622_40:
 10090   002B38  BE04               	btfsc	(i2___xxtofl@val+3)^0,7,c
 10091   002B3A  EFA3  F015         	goto	i2u623_40
 10092   002B3E  EFA1  F015         	goto	i2u623_41
 10093   002B42                     i2u623_41:
 10094   002B42  EFA4  F015         	goto	i2l6379
 10095   002B46                     i2u623_40:
 10096   002B46  8E0E               	bsf	(i2___xxtofl@arg+3)^0,7,c
 10097   002B48                     i2l6379:
 10098   002B48  C00B  F001         	movff	i2___xxtofl@arg,?i2___xxtofl
 10099   002B4C  C00C  F002         	movff	i2___xxtofl@arg+1,?i2___xxtofl+1
 10100   002B50  C00D  F003         	movff	i2___xxtofl@arg+2,?i2___xxtofl+2
 10101   002B54  C00E  F004         	movff	i2___xxtofl@arg+3,?i2___xxtofl+3
 10102   002B58                     i2l1771:
 10103   002B58  0012               	return		;funcret
 10104   002B5A                     __end_ofi2___xxtofl:
 10105                           	callstack 0
 10106                           
 10107 ;; *************** function i2___fltol *****************
 10108 ;; Defined at:
 10109 ;;		line 43 in file "D:\Program Files\Microchip\xc8\v2.45\pic\sources\c99\common\fltol.c"
 10110 ;; Parameters:    Size  Location     Type
 10111 ;;  f1              4   64[COMRAM] unsigned char 
 10112 ;; Auto vars:     Size  Location     Type
 10113 ;;  exp1            1   73[COMRAM] unsigned char 
 10114 ;;  sign1           1   72[COMRAM] unsigned char 
 10115 ;; Return value:  Size  Location     Type
 10116 ;;                  4   64[COMRAM] long 
 10117 ;; Registers used:
 10118 ;;		wreg, status,2, status,0
 10119 ;; Tracked objects:
 10120 ;;		On entry : 0/0
 10121 ;;		On exit  : 0/0
 10122 ;;		Unchanged: 0/0
 10123 ;; Data sizes:     COMRAM   BANK0   BANK1   BANK2   BANK3   BANK4   BANK5   BANK6   BANK7   BANK8   BANK9  BANK10  BANK1
      +1  BANK12  BANK13  BANK14  BANK15
 10124 ;;      Params:         4       0       0       0       0       0       0       0       0       0       0       0       
      +0       0       0       0       0
 10125 ;;      Locals:         2       0       0       0       0       0       0       0       0       0       0       0       
      +0       0       0       0       0
 10126 ;;      Temps:          4       0       0       0       0       0       0       0       0       0       0       0       
      +0       0       0       0       0
 10127 ;;      Totals:        10       0       0       0       0       0       0       0       0       0       0       0       
      +0       0       0       0       0
 10128 ;;Total ram usage:       10 bytes
 10129 ;; Hardware stack levels used: 1
 10130 ;; This function calls:
 10131 ;;		Nothing
 10132 ;; This function is called by:
 10133 ;;		_Write_temp_LCD
 10134 ;; This function uses a non-reentrant model
 10135 ;;
 10136                           
 10137                           	psect	text58
 10138   003860                     __ptext58:
 10139                           	callstack 0
 10140   003860                     i2___fltol:
 10141                           	callstack 21
 10142   003860  3443               	rlcf	(i2___fltol@f1+2)^0,w,c
 10143   003862  3444               	rlcf	(i2___fltol@f1+3)^0,w,c
 10144   003864  6E4A               	movwf	i2___fltol@exp1^0,c
 10145   003866  504A               	movf	i2___fltol@exp1^0,w,c
 10146   003868  A4D8               	btfss	status,2,c
 10147   00386A  EF39  F01C         	goto	i2u565_41
 10148   00386E  EF3B  F01C         	goto	i2u565_40
 10149   003872                     i2u565_41:
 10150   003872  EF45  F01C         	goto	i2l6031
 10151   003876                     i2u565_40:
 10152   003876                     i2l6027:
 10153   003876  0E00               	movlw	0
 10154   003878  6E41               	movwf	?i2___fltol^0,c
 10155   00387A  0E00               	movlw	0
 10156   00387C  6E42               	movwf	(?i2___fltol+1)^0,c
 10157   00387E  0E00               	movlw	0
 10158   003880  6E43               	movwf	(?i2___fltol+2)^0,c
 10159   003882  0E00               	movlw	0
 10160   003884  6E44               	movwf	(?i2___fltol+3)^0,c
 10161   003886  EFB2  F01C         	goto	i2l1410
 10162   00388A                     i2l6031:
 10163   00388A  C041  F045         	movff	i2___fltol@f1,??i2___fltol
 10164   00388E  C042  F046         	movff	i2___fltol@f1+1,??i2___fltol+1
 10165   003892  C043  F047         	movff	i2___fltol@f1+2,??i2___fltol+2
 10166   003896  C044  F048         	movff	i2___fltol@f1+3,??i2___fltol+3
 10167   00389A  0E20               	movlw	32
 10168   00389C  EF55  F01C         	goto	i2u566_40
 10169   0038A0                     i2u566_45:
 10170   0038A0  90D8               	bcf	status,0,c
 10171   0038A2  3248               	rrcf	(??i2___fltol+3)^0,f,c
 10172   0038A4  3247               	rrcf	(??i2___fltol+2)^0,f,c
 10173   0038A6  3246               	rrcf	(??i2___fltol+1)^0,f,c
 10174   0038A8  3245               	rrcf	??i2___fltol^0,f,c
 10175   0038AA                     i2u566_40:
 10176   0038AA  2EE8               	decfsz	wreg,f,c
 10177   0038AC  EF50  F01C         	goto	i2u566_45
 10178   0038B0  5045               	movf	??i2___fltol^0,w,c
 10179   0038B2  6E49               	movwf	i2___fltol@sign1^0,c
 10180   0038B4  8E43               	bsf	(i2___fltol@f1+2)^0,7,c
 10181   0038B6  0EFF               	movlw	255
 10182   0038B8  1641               	andwf	i2___fltol@f1^0,f,c
 10183   0038BA  0EFF               	movlw	255
 10184   0038BC  1642               	andwf	(i2___fltol@f1+1)^0,f,c
 10185   0038BE  0EFF               	movlw	255
 10186   0038C0  1643               	andwf	(i2___fltol@f1+2)^0,f,c
 10187   0038C2  0E00               	movlw	0
 10188   0038C4  1644               	andwf	(i2___fltol@f1+3)^0,f,c
 10189   0038C6  0E96               	movlw	150
 10190   0038C8  5E4A               	subwf	i2___fltol@exp1^0,f,c
 10191   0038CA  BE4A               	btfsc	i2___fltol@exp1^0,7,c
 10192   0038CC  EF6C  F01C         	goto	i2u567_40
 10193   0038D0  EF6A  F01C         	goto	i2u567_41
 10194   0038D4                     i2u567_41:
 10195   0038D4  EF82  F01C         	goto	i2l6051
 10196   0038D8                     i2u567_40:
 10197   0038D8  504A               	movf	i2___fltol@exp1^0,w,c
 10198   0038DA  0A80               	xorlw	128
 10199   0038DC  0F97               	addlw	151
 10200   0038DE  B0D8               	btfsc	status,0,c
 10201   0038E0  EF74  F01C         	goto	i2u568_41
 10202   0038E4  EF76  F01C         	goto	i2u568_40
 10203   0038E8                     i2u568_41:
 10204   0038E8  EF78  F01C         	goto	i2l6047
 10205   0038EC                     i2u568_40:
 10206   0038EC  EF3B  F01C         	goto	i2l6027
 10207   0038F0                     i2l6047:
 10208   0038F0  90D8               	bcf	status,0,c
 10209   0038F2  3244               	rrcf	(i2___fltol@f1+3)^0,f,c
 10210   0038F4  3243               	rrcf	(i2___fltol@f1+2)^0,f,c
 10211   0038F6  3242               	rrcf	(i2___fltol@f1+1)^0,f,c
 10212   0038F8  3241               	rrcf	i2___fltol@f1^0,f,c
 10213   0038FA  3E4A               	incfsz	i2___fltol@exp1^0,f,c
 10214   0038FC  EF78  F01C         	goto	i2l6047
 10215   003900  EF9A  F01C         	goto	i2l6061
 10216   003904                     i2l6051:
 10217   003904  0E1F               	movlw	31
 10218   003906  644A               	cpfsgt	i2___fltol@exp1^0,c
 10219   003908  EF88  F01C         	goto	i2u569_41
 10220   00390C  EF8A  F01C         	goto	i2u569_40
 10221   003910                     i2u569_41:
 10222   003910  EF92  F01C         	goto	i2l6059
 10223   003914                     i2u569_40:
 10224   003914  EF3B  F01C         	goto	i2l6027
 10225   003918                     i2l6057:
 10226   003918  90D8               	bcf	status,0,c
 10227   00391A  3641               	rlcf	i2___fltol@f1^0,f,c
 10228   00391C  3642               	rlcf	(i2___fltol@f1+1)^0,f,c
 10229   00391E  3643               	rlcf	(i2___fltol@f1+2)^0,f,c
 10230   003920  3644               	rlcf	(i2___fltol@f1+3)^0,f,c
 10231   003922  064A               	decf	i2___fltol@exp1^0,f,c
 10232   003924                     i2l6059:
 10233   003924  504A               	movf	i2___fltol@exp1^0,w,c
 10234   003926  A4D8               	btfss	status,2,c
 10235   003928  EF98  F01C         	goto	i2u570_41
 10236   00392C  EF9A  F01C         	goto	i2u570_40
 10237   003930                     i2u570_41:
 10238   003930  EF8C  F01C         	goto	i2l6057
 10239   003934                     i2u570_40:
 10240   003934                     i2l6061:
 10241   003934  5049               	movf	i2___fltol@sign1^0,w,c
 10242   003936  B4D8               	btfsc	status,2,c
 10243   003938  EFA0  F01C         	goto	i2u571_41
 10244   00393C  EFA2  F01C         	goto	i2u571_40
 10245   003940                     i2u571_41:
 10246   003940  EFAA  F01C         	goto	i2l6065
 10247   003944                     i2u571_40:
 10248   003944  1E44               	comf	(i2___fltol@f1+3)^0,f,c
 10249   003946  1E43               	comf	(i2___fltol@f1+2)^0,f,c
 10250   003948  1E42               	comf	(i2___fltol@f1+1)^0,f,c
 10251   00394A  6C41               	negf	i2___fltol@f1^0,c
 10252   00394C  0E00               	movlw	0
 10253   00394E  2242               	addwfc	(i2___fltol@f1+1)^0,f,c
 10254   003950  2243               	addwfc	(i2___fltol@f1+2)^0,f,c
 10255   003952  2244               	addwfc	(i2___fltol@f1+3)^0,f,c
 10256   003954                     i2l6065:
 10257   003954  C041  F041         	movff	i2___fltol@f1,?i2___fltol
 10258   003958  C042  F042         	movff	i2___fltol@f1+1,?i2___fltol+1
 10259   00395C  C043  F043         	movff	i2___fltol@f1+2,?i2___fltol+2
 10260   003960  C044  F044         	movff	i2___fltol@f1+3,?i2___fltol+3
 10261   003964                     i2l1410:
 10262   003964  0012               	return		;funcret
 10263   003966                     __end_ofi2___fltol:
 10264                           	callstack 0
 10265                           
 10266 ;; *************** function i2___flmul *****************
 10267 ;; Defined at:
 10268 ;;		line 8 in file "D:\Program Files\Microchip\xc8\v2.45\pic\sources\c99\common\sprcmul.c"
 10269 ;; Parameters:    Size  Location     Type
 10270 ;;  b               4   14[COMRAM] long 
 10271 ;;  a               4   18[COMRAM] long 
 10272 ;; Auto vars:     Size  Location     Type
 10273 ;;  prod            4   33[COMRAM] struct .
 10274 ;;  grs             4   27[COMRAM] unsigned long 
 10275 ;;  temp            2   37[COMRAM] struct .
 10276 ;;  bexp            1   32[COMRAM] unsigned char 
 10277 ;;  aexp            1   31[COMRAM] unsigned char 
 10278 ;;  sign            1   26[COMRAM] unsigned char 
 10279 ;; Return value:  Size  Location     Type
 10280 ;;                  4   14[COMRAM] unsigned char 
 10281 ;; Registers used:
 10282 ;;		wreg, status,2, status,0, prodl, prodh
 10283 ;; Tracked objects:
 10284 ;;		On entry : 0/0
 10285 ;;		On exit  : 0/0
 10286 ;;		Unchanged: 0/0
 10287 ;; Data sizes:     COMRAM   BANK0   BANK1   BANK2   BANK3   BANK4   BANK5   BANK6   BANK7   BANK8   BANK9  BANK10  BANK1
      +1  BANK12  BANK13  BANK14  BANK15
 10288 ;;      Params:         8       0       0       0       0       0       0       0       0       0       0       0       
      +0       0       0       0       0
 10289 ;;      Locals:        13       0       0       0       0       0       0       0       0       0       0       0       
      +0       0       0       0       0
 10290 ;;      Temps:          4       0       0       0       0       0       0       0       0       0       0       0       
      +0       0       0       0       0
 10291 ;;      Totals:        25       0       0       0       0       0       0       0       0       0       0       0       
      +0       0       0       0       0
 10292 ;;Total ram usage:       25 bytes
 10293 ;; Hardware stack levels used: 1
 10294 ;; This function calls:
 10295 ;;		Nothing
 10296 ;; This function is called by:
 10297 ;;		_Write_temp_LCD
 10298 ;; This function uses a non-reentrant model
 10299 ;;
 10300                           
 10301                           	psect	text59
 10302   00190A                     __ptext59:
 10303                           	callstack 0
 10304   00190A                     i2___flmul:
 10305                           	callstack 21
 10306   00190A  5012               	movf	(i2___flmul@b+3)^0,w,c
 10307   00190C  0B80               	andlw	128
 10308   00190E  6E1B               	movwf	i2___flmul@sign^0,c
 10309   001910  5012               	movf	(i2___flmul@b+3)^0,w,c
 10310   001912  2412               	addwf	(i2___flmul@b+3)^0,w,c
 10311   001914  6E21               	movwf	i2___flmul@bexp^0,c
 10312   001916  AE11               	btfss	(i2___flmul@b+2)^0,7,c
 10313   001918  EF90  F00C         	goto	i2u595_41
 10314   00191C  EF92  F00C         	goto	i2u595_40
 10315   001920                     i2u595_41:
 10316   001920  EF93  F00C         	goto	i2l6213
 10317   001924                     i2u595_40:
 10318   001924  8021               	bsf	i2___flmul@bexp^0,0,c
 10319   001926                     i2l6213:
 10320   001926  5021               	movf	i2___flmul@bexp^0,w,c
 10321   001928  B4D8               	btfsc	status,2,c
 10322   00192A  EF99  F00C         	goto	i2u596_41
 10323   00192E  EF9B  F00C         	goto	i2u596_40
 10324   001932                     i2u596_41:
 10325   001932  EFAE  F00C         	goto	i2l6221
 10326   001936                     i2u596_40:
 10327   001936  2821               	incf	i2___flmul@bexp^0,w,c
 10328   001938  A4D8               	btfss	status,2,c
 10329   00193A  EFA1  F00C         	goto	i2u597_41
 10330   00193E  EFA3  F00C         	goto	i2u597_40
 10331   001942                     i2u597_41:
 10332   001942  EFAB  F00C         	goto	i2l6219
 10333   001946                     i2u597_40:
 10334   001946  0E00               	movlw	0
 10335   001948  6E0F               	movwf	i2___flmul@b^0,c
 10336   00194A  0E00               	movlw	0
 10337   00194C  6E10               	movwf	(i2___flmul@b+1)^0,c
 10338   00194E  0E00               	movlw	0
 10339   001950  6E11               	movwf	(i2___flmul@b+2)^0,c
 10340   001952  0E00               	movlw	0
 10341   001954  6E12               	movwf	(i2___flmul@b+3)^0,c
 10342   001956                     i2l6219:
 10343   001956  8E11               	bsf	(i2___flmul@b+2)^0,7,c
 10344   001958  EFB6  F00C         	goto	i2l6223
 10345   00195C                     i2l6221:
 10346   00195C  0E00               	movlw	0
 10347   00195E  6E0F               	movwf	i2___flmul@b^0,c
 10348   001960  0E00               	movlw	0
 10349   001962  6E10               	movwf	(i2___flmul@b+1)^0,c
 10350   001964  0E00               	movlw	0
 10351   001966  6E11               	movwf	(i2___flmul@b+2)^0,c
 10352   001968  0E00               	movlw	0
 10353   00196A  6E12               	movwf	(i2___flmul@b+3)^0,c
 10354   00196C                     i2l6223:
 10355   00196C  5016               	movf	(i2___flmul@a+3)^0,w,c
 10356   00196E  0B80               	andlw	128
 10357   001970  1A1B               	xorwf	i2___flmul@sign^0,f,c
 10358   001972  5016               	movf	(i2___flmul@a+3)^0,w,c
 10359   001974  2416               	addwf	(i2___flmul@a+3)^0,w,c
 10360   001976  6E20               	movwf	i2___flmul@aexp^0,c
 10361   001978  AE15               	btfss	(i2___flmul@a+2)^0,7,c
 10362   00197A  EFC1  F00C         	goto	i2u598_41
 10363   00197E  EFC3  F00C         	goto	i2u598_40
 10364   001982                     i2u598_41:
 10365   001982  EFC4  F00C         	goto	i2l6231
 10366   001986                     i2u598_40:
 10367   001986  8020               	bsf	i2___flmul@aexp^0,0,c
 10368   001988                     i2l6231:
 10369   001988  5020               	movf	i2___flmul@aexp^0,w,c
 10370   00198A  B4D8               	btfsc	status,2,c
 10371   00198C  EFCA  F00C         	goto	i2u599_41
 10372   001990  EFCC  F00C         	goto	i2u599_40
 10373   001994                     i2u599_41:
 10374   001994  EFDF  F00C         	goto	i2l6239
 10375   001998                     i2u599_40:
 10376   001998  2820               	incf	i2___flmul@aexp^0,w,c
 10377   00199A  A4D8               	btfss	status,2,c
 10378   00199C  EFD2  F00C         	goto	i2u600_41
 10379   0019A0  EFD4  F00C         	goto	i2u600_40
 10380   0019A4                     i2u600_41:
 10381   0019A4  EFDC  F00C         	goto	i2l6237
 10382   0019A8                     i2u600_40:
 10383   0019A8  0E00               	movlw	0
 10384   0019AA  6E13               	movwf	i2___flmul@a^0,c
 10385   0019AC  0E00               	movlw	0
 10386   0019AE  6E14               	movwf	(i2___flmul@a+1)^0,c
 10387   0019B0  0E00               	movlw	0
 10388   0019B2  6E15               	movwf	(i2___flmul@a+2)^0,c
 10389   0019B4  0E00               	movlw	0
 10390   0019B6  6E16               	movwf	(i2___flmul@a+3)^0,c
 10391   0019B8                     i2l6237:
 10392   0019B8  8E15               	bsf	(i2___flmul@a+2)^0,7,c
 10393   0019BA  EFE7  F00C         	goto	i2l1727
 10394   0019BE                     i2l6239:
 10395   0019BE  0E00               	movlw	0
 10396   0019C0  6E13               	movwf	i2___flmul@a^0,c
 10397   0019C2  0E00               	movlw	0
 10398   0019C4  6E14               	movwf	(i2___flmul@a+1)^0,c
 10399   0019C6  0E00               	movlw	0
 10400   0019C8  6E15               	movwf	(i2___flmul@a+2)^0,c
 10401   0019CA  0E00               	movlw	0
 10402   0019CC  6E16               	movwf	(i2___flmul@a+3)^0,c
 10403   0019CE                     i2l1727:
 10404   0019CE  5020               	movf	i2___flmul@aexp^0,w,c
 10405   0019D0  B4D8               	btfsc	status,2,c
 10406   0019D2  EFED  F00C         	goto	i2u601_41
 10407   0019D6  EFEF  F00C         	goto	i2u601_40
 10408   0019DA                     i2u601_41:
 10409   0019DA  EFF7  F00C         	goto	i2l6243
 10410   0019DE                     i2u601_40:
 10411   0019DE  5021               	movf	i2___flmul@bexp^0,w,c
 10412   0019E0  A4D8               	btfss	status,2,c
 10413   0019E2  EFF5  F00C         	goto	i2u602_41
 10414   0019E6  EFF7  F00C         	goto	i2u602_40
 10415   0019EA                     i2u602_41:
 10416   0019EA  EF01  F00D         	goto	i2l6247
 10417   0019EE                     i2u602_40:
 10418   0019EE                     i2l6243:
 10419   0019EE  0E00               	movlw	0
 10420   0019F0  6E0F               	movwf	?i2___flmul^0,c
 10421   0019F2  0E00               	movlw	0
 10422   0019F4  6E10               	movwf	(?i2___flmul+1)^0,c
 10423   0019F6  0E00               	movlw	0
 10424   0019F8  6E11               	movwf	(?i2___flmul+2)^0,c
 10425   0019FA  0E00               	movlw	0
 10426   0019FC  6E12               	movwf	(?i2___flmul+3)^0,c
 10427   0019FE  EF99  F00E         	goto	i2l1731
 10428   001A02                     i2l6247:
 10429   001A02  5015               	movf	(i2___flmul@a+2)^0,w,c
 10430   001A04  020F               	mulwf	i2___flmul@b^0,c
 10431   001A06  CFF3 F026          	movff	prodl,i2___flmul@temp
 10432   001A0A  CFF4 F027          	movff	prodh,i2___flmul@temp+1
 10433   001A0E  5026               	movf	i2___flmul@temp^0,w,c
 10434   001A10  6E1C               	movwf	i2___flmul@grs^0,c
 10435   001A12  6A1D               	clrf	(i2___flmul@grs+1)^0,c
 10436   001A14  6A1E               	clrf	(i2___flmul@grs+2)^0,c
 10437   001A16  6A1F               	clrf	(i2___flmul@grs+3)^0,c
 10438   001A18  5027               	movf	(i2___flmul@temp+1)^0,w,c
 10439   001A1A  6E22               	movwf	i2___flmul@prod^0,c
 10440   001A1C  6A23               	clrf	(i2___flmul@prod+1)^0,c
 10441   001A1E  6A24               	clrf	(i2___flmul@prod+2)^0,c
 10442   001A20  6A25               	clrf	(i2___flmul@prod+3)^0,c
 10443   001A22  5014               	movf	(i2___flmul@a+1)^0,w,c
 10444   001A24  0210               	mulwf	(i2___flmul@b+1)^0,c
 10445   001A26  CFF3 F026          	movff	prodl,i2___flmul@temp
 10446   001A2A  CFF4 F027          	movff	prodh,i2___flmul@temp+1
 10447   001A2E  5026               	movf	i2___flmul@temp^0,w,c
 10448   001A30  261C               	addwf	i2___flmul@grs^0,f,c
 10449   001A32  0E00               	movlw	0
 10450   001A34  221D               	addwfc	(i2___flmul@grs+1)^0,f,c
 10451   001A36  221E               	addwfc	(i2___flmul@grs+2)^0,f,c
 10452   001A38  221F               	addwfc	(i2___flmul@grs+3)^0,f,c
 10453   001A3A  5027               	movf	(i2___flmul@temp+1)^0,w,c
 10454   001A3C  2622               	addwf	i2___flmul@prod^0,f,c
 10455   001A3E  0E00               	movlw	0
 10456   001A40  2223               	addwfc	(i2___flmul@prod+1)^0,f,c
 10457   001A42  2224               	addwfc	(i2___flmul@prod+2)^0,f,c
 10458   001A44  2225               	addwfc	(i2___flmul@prod+3)^0,f,c
 10459   001A46  5013               	movf	i2___flmul@a^0,w,c
 10460   001A48  0211               	mulwf	(i2___flmul@b+2)^0,c
 10461   001A4A  CFF3 F026          	movff	prodl,i2___flmul@temp
 10462   001A4E  CFF4 F027          	movff	prodh,i2___flmul@temp+1
 10463   001A52  5026               	movf	i2___flmul@temp^0,w,c
 10464   001A54  261C               	addwf	i2___flmul@grs^0,f,c
 10465   001A56  0E00               	movlw	0
 10466   001A58  221D               	addwfc	(i2___flmul@grs+1)^0,f,c
 10467   001A5A  221E               	addwfc	(i2___flmul@grs+2)^0,f,c
 10468   001A5C  221F               	addwfc	(i2___flmul@grs+3)^0,f,c
 10469   001A5E  5027               	movf	(i2___flmul@temp+1)^0,w,c
 10470   001A60  2622               	addwf	i2___flmul@prod^0,f,c
 10471   001A62  0E00               	movlw	0
 10472   001A64  2223               	addwfc	(i2___flmul@prod+1)^0,f,c
 10473   001A66  2224               	addwfc	(i2___flmul@prod+2)^0,f,c
 10474   001A68  2225               	addwfc	(i2___flmul@prod+3)^0,f,c
 10475   001A6A  C01E  F01F         	movff	i2___flmul@grs+2,i2___flmul@grs+3
 10476   001A6E  C01D  F01E         	movff	i2___flmul@grs+1,i2___flmul@grs+2
 10477   001A72  C01C  F01D         	movff	i2___flmul@grs,i2___flmul@grs+1
 10478   001A76  6A1C               	clrf	i2___flmul@grs^0,c
 10479   001A78  5013               	movf	i2___flmul@a^0,w,c
 10480   001A7A  0210               	mulwf	(i2___flmul@b+1)^0,c
 10481   001A7C  CFF3 F026          	movff	prodl,i2___flmul@temp
 10482   001A80  CFF4 F027          	movff	prodh,i2___flmul@temp+1
 10483   001A84  5026               	movf	i2___flmul@temp^0,w,c
 10484   001A86  261C               	addwf	i2___flmul@grs^0,f,c
 10485   001A88  5027               	movf	(i2___flmul@temp+1)^0,w,c
 10486   001A8A  221D               	addwfc	(i2___flmul@grs+1)^0,f,c
 10487   001A8C  0E00               	movlw	0
 10488   001A8E  221E               	addwfc	(i2___flmul@grs+2)^0,f,c
 10489   001A90  0E00               	movlw	0
 10490   001A92  221F               	addwfc	(i2___flmul@grs+3)^0,f,c
 10491   001A94  5014               	movf	(i2___flmul@a+1)^0,w,c
 10492   001A96  020F               	mulwf	i2___flmul@b^0,c
 10493   001A98  CFF3 F026          	movff	prodl,i2___flmul@temp
 10494   001A9C  CFF4 F027          	movff	prodh,i2___flmul@temp+1
 10495   001AA0  5026               	movf	i2___flmul@temp^0,w,c
 10496   001AA2  261C               	addwf	i2___flmul@grs^0,f,c
 10497   001AA4  5027               	movf	(i2___flmul@temp+1)^0,w,c
 10498   001AA6  221D               	addwfc	(i2___flmul@grs+1)^0,f,c
 10499   001AA8  0E00               	movlw	0
 10500   001AAA  221E               	addwfc	(i2___flmul@grs+2)^0,f,c
 10501   001AAC  0E00               	movlw	0
 10502   001AAE  221F               	addwfc	(i2___flmul@grs+3)^0,f,c
 10503   001AB0  C01E  F01F         	movff	i2___flmul@grs+2,i2___flmul@grs+3
 10504   001AB4  C01D  F01E         	movff	i2___flmul@grs+1,i2___flmul@grs+2
 10505   001AB8  C01C  F01D         	movff	i2___flmul@grs,i2___flmul@grs+1
 10506   001ABC  6A1C               	clrf	i2___flmul@grs^0,c
 10507   001ABE  5013               	movf	i2___flmul@a^0,w,c
 10508   001AC0  020F               	mulwf	i2___flmul@b^0,c
 10509   001AC2  CFF3 F026          	movff	prodl,i2___flmul@temp
 10510   001AC6  CFF4 F027          	movff	prodh,i2___flmul@temp+1
 10511   001ACA  5026               	movf	i2___flmul@temp^0,w,c
 10512   001ACC  261C               	addwf	i2___flmul@grs^0,f,c
 10513   001ACE  5027               	movf	(i2___flmul@temp+1)^0,w,c
 10514   001AD0  221D               	addwfc	(i2___flmul@grs+1)^0,f,c
 10515   001AD2  0E00               	movlw	0
 10516   001AD4  221E               	addwfc	(i2___flmul@grs+2)^0,f,c
 10517   001AD6  0E00               	movlw	0
 10518   001AD8  221F               	addwfc	(i2___flmul@grs+3)^0,f,c
 10519   001ADA  5015               	movf	(i2___flmul@a+2)^0,w,c
 10520   001ADC  0210               	mulwf	(i2___flmul@b+1)^0,c
 10521   001ADE  CFF3 F026          	movff	prodl,i2___flmul@temp
 10522   001AE2  CFF4 F027          	movff	prodh,i2___flmul@temp+1
 10523   001AE6  5026               	movf	i2___flmul@temp^0,w,c
 10524   001AE8  2622               	addwf	i2___flmul@prod^0,f,c
 10525   001AEA  5027               	movf	(i2___flmul@temp+1)^0,w,c
 10526   001AEC  2223               	addwfc	(i2___flmul@prod+1)^0,f,c
 10527   001AEE  0E00               	movlw	0
 10528   001AF0  2224               	addwfc	(i2___flmul@prod+2)^0,f,c
 10529   001AF2  0E00               	movlw	0
 10530   001AF4  2225               	addwfc	(i2___flmul@prod+3)^0,f,c
 10531   001AF6  5014               	movf	(i2___flmul@a+1)^0,w,c
 10532   001AF8  0211               	mulwf	(i2___flmul@b+2)^0,c
 10533   001AFA  CFF3 F026          	movff	prodl,i2___flmul@temp
 10534   001AFE  CFF4 F027          	movff	prodh,i2___flmul@temp+1
 10535   001B02  5026               	movf	i2___flmul@temp^0,w,c
 10536   001B04  2622               	addwf	i2___flmul@prod^0,f,c
 10537   001B06  5027               	movf	(i2___flmul@temp+1)^0,w,c
 10538   001B08  2223               	addwfc	(i2___flmul@prod+1)^0,f,c
 10539   001B0A  0E00               	movlw	0
 10540   001B0C  2224               	addwfc	(i2___flmul@prod+2)^0,f,c
 10541   001B0E  0E00               	movlw	0
 10542   001B10  2225               	addwfc	(i2___flmul@prod+3)^0,f,c
 10543   001B12  5015               	movf	(i2___flmul@a+2)^0,w,c
 10544   001B14  0211               	mulwf	(i2___flmul@b+2)^0,c
 10545   001B16  CFF3 F026          	movff	prodl,i2___flmul@temp
 10546   001B1A  CFF4 F027          	movff	prodh,i2___flmul@temp+1
 10547   001B1E  5026               	movf	i2___flmul@temp^0,w,c
 10548   001B20  6E17               	movwf	??i2___flmul^0,c
 10549   001B22  5027               	movf	(i2___flmul@temp+1)^0,w,c
 10550   001B24  6E18               	movwf	(??i2___flmul+1)^0,c
 10551   001B26  6A19               	clrf	(??i2___flmul+2)^0,c
 10552   001B28  6A1A               	clrf	(??i2___flmul+3)^0,c
 10553   001B2A  C019  F01A         	movff	??i2___flmul+2,??i2___flmul+3
 10554   001B2E  C018  F019         	movff	??i2___flmul+1,??i2___flmul+2
 10555   001B32  C017  F018         	movff	??i2___flmul,??i2___flmul+1
 10556   001B36  6A17               	clrf	??i2___flmul^0,c
 10557   001B38  5017               	movf	??i2___flmul^0,w,c
 10558   001B3A  2622               	addwf	i2___flmul@prod^0,f,c
 10559   001B3C  5018               	movf	(??i2___flmul+1)^0,w,c
 10560   001B3E  2223               	addwfc	(i2___flmul@prod+1)^0,f,c
 10561   001B40  5019               	movf	(??i2___flmul+2)^0,w,c
 10562   001B42  2224               	addwfc	(i2___flmul@prod+2)^0,f,c
 10563   001B44  501A               	movf	(??i2___flmul+3)^0,w,c
 10564   001B46  2225               	addwfc	(i2___flmul@prod+3)^0,f,c
 10565   001B48  C01C  F017         	movff	i2___flmul@grs,??i2___flmul
 10566   001B4C  C01D  F018         	movff	i2___flmul@grs+1,??i2___flmul+1
 10567   001B50  C01E  F019         	movff	i2___flmul@grs+2,??i2___flmul+2
 10568   001B54  C01F  F01A         	movff	i2___flmul@grs+3,??i2___flmul+3
 10569   001B58  0E19               	movlw	25
 10570   001B5A  EFB4  F00D         	goto	i2u603_40
 10571   001B5E                     i2u603_45:
 10572   001B5E  90D8               	bcf	status,0,c
 10573   001B60  321A               	rrcf	(??i2___flmul+3)^0,f,c
 10574   001B62  3219               	rrcf	(??i2___flmul+2)^0,f,c
 10575   001B64  3218               	rrcf	(??i2___flmul+1)^0,f,c
 10576   001B66  3217               	rrcf	??i2___flmul^0,f,c
 10577   001B68                     i2u603_40:
 10578   001B68  2EE8               	decfsz	wreg,f,c
 10579   001B6A  EFAF  F00D         	goto	i2u603_45
 10580   001B6E  5017               	movf	??i2___flmul^0,w,c
 10581   001B70  2622               	addwf	i2___flmul@prod^0,f,c
 10582   001B72  5018               	movf	(??i2___flmul+1)^0,w,c
 10583   001B74  2223               	addwfc	(i2___flmul@prod+1)^0,f,c
 10584   001B76  5019               	movf	(??i2___flmul+2)^0,w,c
 10585   001B78  2224               	addwfc	(i2___flmul@prod+2)^0,f,c
 10586   001B7A  501A               	movf	(??i2___flmul+3)^0,w,c
 10587   001B7C  2225               	addwfc	(i2___flmul@prod+3)^0,f,c
 10588   001B7E  C01E  F01F         	movff	i2___flmul@grs+2,i2___flmul@grs+3
 10589   001B82  C01D  F01E         	movff	i2___flmul@grs+1,i2___flmul@grs+2
 10590   001B86  C01C  F01D         	movff	i2___flmul@grs,i2___flmul@grs+1
 10591   001B8A  6A1C               	clrf	i2___flmul@grs^0,c
 10592   001B8C  5020               	movf	i2___flmul@aexp^0,w,c
 10593   001B8E  C021  F017         	movff	i2___flmul@bexp,??i2___flmul
 10594   001B92  6A18               	clrf	(??i2___flmul+1)^0,c
 10595   001B94  2617               	addwf	??i2___flmul^0,f,c
 10596   001B96  0E00               	movlw	0
 10597   001B98  2218               	addwfc	(??i2___flmul+1)^0,f,c
 10598   001B9A  0E82               	movlw	130
 10599   001B9C  2417               	addwf	??i2___flmul^0,w,c
 10600   001B9E  6E26               	movwf	i2___flmul@temp^0,c
 10601   001BA0  0EFF               	movlw	255
 10602   001BA2  2018               	addwfc	(??i2___flmul+1)^0,w,c
 10603   001BA4  6E27               	movwf	(i2___flmul@temp+1)^0,c
 10604   001BA6  EFEA  F00D         	goto	i2l6295
 10605   001BAA                     i2l6289:
 10606   001BAA  90D8               	bcf	status,0,c
 10607   001BAC  3622               	rlcf	i2___flmul@prod^0,f,c
 10608   001BAE  3623               	rlcf	(i2___flmul@prod+1)^0,f,c
 10609   001BB0  3624               	rlcf	(i2___flmul@prod+2)^0,f,c
 10610   001BB2  3625               	rlcf	(i2___flmul@prod+3)^0,f,c
 10611   001BB4  AE1F               	btfss	(i2___flmul@grs+3)^0,7,c
 10612   001BB6  EFDF  F00D         	goto	i2u604_41
 10613   001BBA  EFE1  F00D         	goto	i2u604_40
 10614   001BBE                     i2u604_41:
 10615   001BBE  EFE2  F00D         	goto	i2l1734
 10616   001BC2                     i2u604_40:
 10617   001BC2  8022               	bsf	i2___flmul@prod^0,0,c
 10618   001BC4                     i2l1734:
 10619   001BC4  90D8               	bcf	status,0,c
 10620   001BC6  361C               	rlcf	i2___flmul@grs^0,f,c
 10621   001BC8  361D               	rlcf	(i2___flmul@grs+1)^0,f,c
 10622   001BCA  361E               	rlcf	(i2___flmul@grs+2)^0,f,c
 10623   001BCC  361F               	rlcf	(i2___flmul@grs+3)^0,f,c
 10624   001BCE  0626               	decf	i2___flmul@temp^0,f,c
 10625   001BD0  A0D8               	btfss	status,0,c
 10626   001BD2  0627               	decf	(i2___flmul@temp+1)^0,f,c
 10627   001BD4                     i2l6295:
 10628   001BD4  AE24               	btfss	(i2___flmul@prod+2)^0,7,c
 10629   001BD6  EFEF  F00D         	goto	i2u605_41
 10630   001BDA  EFF1  F00D         	goto	i2u605_40
 10631   001BDE                     i2u605_41:
 10632   001BDE  EFD5  F00D         	goto	i2l6289
 10633   001BE2                     i2u605_40:
 10634   001BE2  0E00               	movlw	0
 10635   001BE4  6E20               	movwf	i2___flmul@aexp^0,c
 10636   001BE6  AE1F               	btfss	(i2___flmul@grs+3)^0,7,c
 10637   001BE8  EFF8  F00D         	goto	i2u606_41
 10638   001BEC  EFFA  F00D         	goto	i2u606_40
 10639   001BF0                     i2u606_41:
 10640   001BF0  EF1E  F00E         	goto	i2l1736
 10641   001BF4                     i2u606_40:
 10642   001BF4  0EFF               	movlw	255
 10643   001BF6  141C               	andwf	i2___flmul@grs^0,w,c
 10644   001BF8  6E17               	movwf	??i2___flmul^0,c
 10645   001BFA  0EFF               	movlw	255
 10646   001BFC  141D               	andwf	(i2___flmul@grs+1)^0,w,c
 10647   001BFE  6E18               	movwf	(??i2___flmul+1)^0,c
 10648   001C00  0EFF               	movlw	255
 10649   001C02  141E               	andwf	(i2___flmul@grs+2)^0,w,c
 10650   001C04  6E19               	movwf	(??i2___flmul+2)^0,c
 10651   001C06  0E7F               	movlw	127
 10652   001C08  141F               	andwf	(i2___flmul@grs+3)^0,w,c
 10653   001C0A  6E1A               	movwf	(??i2___flmul+3)^0,c
 10654   001C0C  5017               	movf	??i2___flmul^0,w,c
 10655   001C0E  1018               	iorwf	(??i2___flmul+1)^0,w,c
 10656   001C10  1019               	iorwf	(??i2___flmul+2)^0,w,c
 10657   001C12  101A               	iorwf	(??i2___flmul+3)^0,w,c
 10658   001C14  B4D8               	btfsc	status,2,c
 10659   001C16  EF0F  F00E         	goto	i2u607_41
 10660   001C1A  EF11  F00E         	goto	i2u607_40
 10661   001C1E                     i2u607_41:
 10662   001C1E  EF15  F00E         	goto	i2l1737
 10663   001C22                     i2u607_40:
 10664   001C22                     i2l6303:
 10665   001C22  0E01               	movlw	1
 10666   001C24  6E20               	movwf	i2___flmul@aexp^0,c
 10667   001C26  EF1E  F00E         	goto	i2l1736
 10668   001C2A                     i2l1737:
 10669   001C2A  A022               	btfss	i2___flmul@prod^0,0,c
 10670   001C2C  EF1A  F00E         	goto	i2u608_41
 10671   001C30  EF1C  F00E         	goto	i2u608_40
 10672   001C34                     i2u608_41:
 10673   001C34  EF1E  F00E         	goto	i2l1736
 10674   001C38                     i2u608_40:
 10675   001C38  EF11  F00E         	goto	i2l6303
 10676   001C3C                     i2l1736:
 10677   001C3C  5020               	movf	i2___flmul@aexp^0,w,c
 10678   001C3E  B4D8               	btfsc	status,2,c
 10679   001C40  EF24  F00E         	goto	i2u609_41
 10680   001C44  EF26  F00E         	goto	i2u609_40
 10681   001C48                     i2u609_41:
 10682   001C48  EF4A  F00E         	goto	i2l6315
 10683   001C4C                     i2u609_40:
 10684   001C4C  0E01               	movlw	1
 10685   001C4E  2622               	addwf	i2___flmul@prod^0,f,c
 10686   001C50  0E00               	movlw	0
 10687   001C52  2223               	addwfc	(i2___flmul@prod+1)^0,f,c
 10688   001C54  2224               	addwfc	(i2___flmul@prod+2)^0,f,c
 10689   001C56  2225               	addwfc	(i2___flmul@prod+3)^0,f,c
 10690   001C58  A025               	btfss	(i2___flmul@prod+3)^0,0,c
 10691   001C5A  EF31  F00E         	goto	i2u610_41
 10692   001C5E  EF33  F00E         	goto	i2u610_40
 10693   001C62                     i2u610_41:
 10694   001C62  EF4A  F00E         	goto	i2l6315
 10695   001C66                     i2u610_40:
 10696   001C66  C022  F017         	movff	i2___flmul@prod,??i2___flmul
 10697   001C6A  C023  F018         	movff	i2___flmul@prod+1,??i2___flmul+1
 10698   001C6E  C024  F019         	movff	i2___flmul@prod+2,??i2___flmul+2
 10699   001C72  C025  F01A         	movff	i2___flmul@prod+3,??i2___flmul+3
 10700   001C76  341A               	rlcf	(??i2___flmul+3)^0,w,c
 10701   001C78  321A               	rrcf	(??i2___flmul+3)^0,f,c
 10702   001C7A  3219               	rrcf	(??i2___flmul+2)^0,f,c
 10703   001C7C  3218               	rrcf	(??i2___flmul+1)^0,f,c
 10704   001C7E  3217               	rrcf	??i2___flmul^0,f,c
 10705   001C80  C017  F022         	movff	??i2___flmul,i2___flmul@prod
 10706   001C84  C018  F023         	movff	??i2___flmul+1,i2___flmul@prod+1
 10707   001C88  C019  F024         	movff	??i2___flmul+2,i2___flmul@prod+2
 10708   001C8C  C01A  F025         	movff	??i2___flmul+3,i2___flmul@prod+3
 10709   001C90  4A26               	infsnz	i2___flmul@temp^0,f,c
 10710   001C92  2A27               	incf	(i2___flmul@temp+1)^0,f,c
 10711   001C94                     i2l6315:
 10712   001C94  BE27               	btfsc	(i2___flmul@temp+1)^0,7,c
 10713   001C96  EF55  F00E         	goto	i2u611_41
 10714   001C9A  5027               	movf	(i2___flmul@temp+1)^0,w,c
 10715   001C9C  E108               	bnz	i2u611_40
 10716   001C9E  2826               	incf	i2___flmul@temp^0,w,c
 10717   001CA0  A0D8               	btfss	status,0,c
 10718   001CA2  EF55  F00E         	goto	i2u611_41
 10719   001CA6  EF57  F00E         	goto	i2u611_40
 10720   001CAA                     i2u611_41:
 10721   001CAA  EF61  F00E         	goto	i2l6319
 10722   001CAE                     i2u611_40:
 10723   001CAE  0E00               	movlw	0
 10724   001CB0  6E22               	movwf	i2___flmul@prod^0,c
 10725   001CB2  0E00               	movlw	0
 10726   001CB4  6E23               	movwf	(i2___flmul@prod+1)^0,c
 10727   001CB6  0E80               	movlw	128
 10728   001CB8  6E24               	movwf	(i2___flmul@prod+2)^0,c
 10729   001CBA  0E7F               	movlw	127
 10730   001CBC  6E25               	movwf	(i2___flmul@prod+3)^0,c
 10731   001CBE  EF8F  F00E         	goto	i2l6331
 10732   001CC2                     i2l6319:
 10733   001CC2  BE27               	btfsc	(i2___flmul@temp+1)^0,7,c
 10734   001CC4  EF6E  F00E         	goto	i2u612_40
 10735   001CC8  5027               	movf	(i2___flmul@temp+1)^0,w,c
 10736   001CCA  E106               	bnz	i2u612_41
 10737   001CCC  0426               	decf	i2___flmul@temp^0,w,c
 10738   001CCE  B0D8               	btfsc	status,0,c
 10739   001CD0  EF6C  F00E         	goto	i2u612_41
 10740   001CD4  EF6E  F00E         	goto	i2u612_40
 10741   001CD8                     i2u612_41:
 10742   001CD8  EF7A  F00E         	goto	i2l1744
 10743   001CDC                     i2u612_40:
 10744   001CDC  0E00               	movlw	0
 10745   001CDE  6E22               	movwf	i2___flmul@prod^0,c
 10746   001CE0  0E00               	movlw	0
 10747   001CE2  6E23               	movwf	(i2___flmul@prod+1)^0,c
 10748   001CE4  0E00               	movlw	0
 10749   001CE6  6E24               	movwf	(i2___flmul@prod+2)^0,c
 10750   001CE8  0E00               	movlw	0
 10751   001CEA  6E25               	movwf	(i2___flmul@prod+3)^0,c
 10752   001CEC  0E00               	movlw	0
 10753   001CEE  6E1B               	movwf	i2___flmul@sign^0,c
 10754   001CF0  EF8F  F00E         	goto	i2l6331
 10755   001CF4                     i2l1744:
 10756   001CF4  C026  F021         	movff	i2___flmul@temp,i2___flmul@bexp
 10757   001CF8  0EFF               	movlw	255
 10758   001CFA  1622               	andwf	i2___flmul@prod^0,f,c
 10759   001CFC  0EFF               	movlw	255
 10760   001CFE  1623               	andwf	(i2___flmul@prod+1)^0,f,c
 10761   001D00  0E7F               	movlw	127
 10762   001D02  1624               	andwf	(i2___flmul@prod+2)^0,f,c
 10763   001D04  0E00               	movlw	0
 10764   001D06  1625               	andwf	(i2___flmul@prod+3)^0,f,c
 10765   001D08  A021               	btfss	i2___flmul@bexp^0,0,c
 10766   001D0A  EF89  F00E         	goto	i2u613_41
 10767   001D0E  EF8B  F00E         	goto	i2u613_40
 10768   001D12                     i2u613_41:
 10769   001D12  EF8C  F00E         	goto	i2l6329
 10770   001D16                     i2u613_40:
 10771   001D16  8E24               	bsf	(i2___flmul@prod+2)^0,7,c
 10772   001D18                     i2l6329:
 10773   001D18  90D8               	bcf	status,0,c
 10774   001D1A  3021               	rrcf	i2___flmul@bexp^0,w,c
 10775   001D1C  6E25               	movwf	(i2___flmul@prod+3)^0,c
 10776   001D1E                     i2l6331:
 10777   001D1E  501B               	movf	i2___flmul@sign^0,w,c
 10778   001D20  1225               	iorwf	(i2___flmul@prod+3)^0,f,c
 10779   001D22  C022  F00F         	movff	i2___flmul@prod,?i2___flmul
 10780   001D26  C023  F010         	movff	i2___flmul@prod+1,?i2___flmul+1
 10781   001D2A  C024  F011         	movff	i2___flmul@prod+2,?i2___flmul+2
 10782   001D2E  C025  F012         	movff	i2___flmul@prod+3,?i2___flmul+3
 10783   001D32                     i2l1731:
 10784   001D32  0012               	return		;funcret
 10785   001D34                     __end_ofi2___flmul:
 10786                           	callstack 0
 10787                           
 10788 ;; *************** function i2___fldiv *****************
 10789 ;; Defined at:
 10790 ;;		line 11 in file "D:\Program Files\Microchip\xc8\v2.45\pic\sources\c99\common\sprcdiv.c"
 10791 ;; Parameters:    Size  Location     Type
 10792 ;;  b               4   39[COMRAM] unsigned char 
 10793 ;;  a               4   43[COMRAM] unsigned char 
 10794 ;; Auto vars:     Size  Location     Type
 10795 ;;  grs             4   58[COMRAM] unsigned long 
 10796 ;;  rem             4   51[COMRAM] unsigned long 
 10797 ;;  new_exp         2   56[COMRAM] short 
 10798 ;;  aexp            1   63[COMRAM] unsigned char 
 10799 ;;  bexp            1   62[COMRAM] unsigned char 
 10800 ;;  sign            1   55[COMRAM] unsigned char 
 10801 ;; Return value:  Size  Location     Type
 10802 ;;                  4   39[COMRAM] unsigned char 
 10803 ;; Registers used:
 10804 ;;		wreg, status,2, status,0
 10805 ;; Tracked objects:
 10806 ;;		On entry : 0/0
 10807 ;;		On exit  : 0/0
 10808 ;;		Unchanged: 0/0
 10809 ;; Data sizes:     COMRAM   BANK0   BANK1   BANK2   BANK3   BANK4   BANK5   BANK6   BANK7   BANK8   BANK9  BANK10  BANK1
      +1  BANK12  BANK13  BANK14  BANK15
 10810 ;;      Params:         8       0       0       0       0       0       0       0       0       0       0       0       
      +0       0       0       0       0
 10811 ;;      Locals:        13       0       0       0       0       0       0       0       0       0       0       0       
      +0       0       0       0       0
 10812 ;;      Temps:          4       0       0       0       0       0       0       0       0       0       0       0       
      +0       0       0       0       0
 10813 ;;      Totals:        25       0       0       0       0       0       0       0       0       0       0       0       
      +0       0       0       0       0
 10814 ;;Total ram usage:       25 bytes
 10815 ;; Hardware stack levels used: 1
 10816 ;; This function calls:
 10817 ;;		Nothing
 10818 ;; This function is called by:
 10819 ;;		_Write_temp_LCD
 10820 ;; This function uses a non-reentrant model
 10821 ;;
 10822                           
 10823                           	psect	text60
 10824   0020D0                     __ptext60:
 10825                           	callstack 0
 10826   0020D0                     i2___fldiv:
 10827                           	callstack 21
 10828   0020D0  502B               	movf	(i2___fldiv@b+3)^0,w,c
 10829   0020D2  0B80               	andlw	128
 10830   0020D4  6E38               	movwf	i2___fldiv@sign^0,c
 10831   0020D6  502B               	movf	(i2___fldiv@b+3)^0,w,c
 10832   0020D8  242B               	addwf	(i2___fldiv@b+3)^0,w,c
 10833   0020DA  6E3F               	movwf	i2___fldiv@bexp^0,c
 10834   0020DC  AE2A               	btfss	(i2___fldiv@b+2)^0,7,c
 10835   0020DE  EF73  F010         	goto	i2u572_41
 10836   0020E2  EF75  F010         	goto	i2u572_40
 10837   0020E6                     i2u572_41:
 10838   0020E6  EF76  F010         	goto	i2l6075
 10839   0020EA                     i2u572_40:
 10840   0020EA  803F               	bsf	i2___fldiv@bexp^0,0,c
 10841   0020EC                     i2l6075:
 10842   0020EC  503F               	movf	i2___fldiv@bexp^0,w,c
 10843   0020EE  B4D8               	btfsc	status,2,c
 10844   0020F0  EF7C  F010         	goto	i2u573_41
 10845   0020F4  EF7E  F010         	goto	i2u573_40
 10846   0020F8                     i2u573_41:
 10847   0020F8  EF93  F010         	goto	i2l6085
 10848   0020FC                     i2u573_40:
 10849   0020FC  283F               	incf	i2___fldiv@bexp^0,w,c
 10850   0020FE  A4D8               	btfss	status,2,c
 10851   002100  EF84  F010         	goto	i2u574_41
 10852   002104  EF86  F010         	goto	i2u574_40
 10853   002108                     i2u574_41:
 10854   002108  EF8E  F010         	goto	i2l6081
 10855   00210C                     i2u574_40:
 10856   00210C  0E00               	movlw	0
 10857   00210E  6E28               	movwf	i2___fldiv@b^0,c
 10858   002110  0E00               	movlw	0
 10859   002112  6E29               	movwf	(i2___fldiv@b+1)^0,c
 10860   002114  0E00               	movlw	0
 10861   002116  6E2A               	movwf	(i2___fldiv@b+2)^0,c
 10862   002118  0E00               	movlw	0
 10863   00211A  6E2B               	movwf	(i2___fldiv@b+3)^0,c
 10864   00211C                     i2l6081:
 10865   00211C  8E2A               	bsf	(i2___fldiv@b+2)^0,7,c
 10866   00211E  0E00               	movlw	0
 10867   002120  6E2B               	movwf	(i2___fldiv@b+3)^0,c
 10868   002122  EF9B  F010         	goto	i2l6087
 10869   002126                     i2l6085:
 10870   002126  0E00               	movlw	0
 10871   002128  6E28               	movwf	i2___fldiv@b^0,c
 10872   00212A  0E00               	movlw	0
 10873   00212C  6E29               	movwf	(i2___fldiv@b+1)^0,c
 10874   00212E  0E00               	movlw	0
 10875   002130  6E2A               	movwf	(i2___fldiv@b+2)^0,c
 10876   002132  0E00               	movlw	0
 10877   002134  6E2B               	movwf	(i2___fldiv@b+3)^0,c
 10878   002136                     i2l6087:
 10879   002136  502F               	movf	(i2___fldiv@a+3)^0,w,c
 10880   002138  0B80               	andlw	128
 10881   00213A  1A38               	xorwf	i2___fldiv@sign^0,f,c
 10882   00213C  502F               	movf	(i2___fldiv@a+3)^0,w,c
 10883   00213E  242F               	addwf	(i2___fldiv@a+3)^0,w,c
 10884   002140  6E40               	movwf	i2___fldiv@aexp^0,c
 10885   002142  AE2E               	btfss	(i2___fldiv@a+2)^0,7,c
 10886   002144  EFA6  F010         	goto	i2u575_41
 10887   002148  EFA8  F010         	goto	i2u575_40
 10888   00214C                     i2u575_41:
 10889   00214C  EFA9  F010         	goto	i2l6095
 10890   002150                     i2u575_40:
 10891   002150  8040               	bsf	i2___fldiv@aexp^0,0,c
 10892   002152                     i2l6095:
 10893   002152  5040               	movf	i2___fldiv@aexp^0,w,c
 10894   002154  B4D8               	btfsc	status,2,c
 10895   002156  EFAF  F010         	goto	i2u576_41
 10896   00215A  EFB1  F010         	goto	i2u576_40
 10897   00215E                     i2u576_41:
 10898   00215E  EFC6  F010         	goto	i2l6105
 10899   002162                     i2u576_40:
 10900   002162  2840               	incf	i2___fldiv@aexp^0,w,c
 10901   002164  A4D8               	btfss	status,2,c
 10902   002166  EFB7  F010         	goto	i2u577_41
 10903   00216A  EFB9  F010         	goto	i2u577_40
 10904   00216E                     i2u577_41:
 10905   00216E  EFC1  F010         	goto	i2l6101
 10906   002172                     i2u577_40:
 10907   002172  0E00               	movlw	0
 10908   002174  6E2C               	movwf	i2___fldiv@a^0,c
 10909   002176  0E00               	movlw	0
 10910   002178  6E2D               	movwf	(i2___fldiv@a+1)^0,c
 10911   00217A  0E00               	movlw	0
 10912   00217C  6E2E               	movwf	(i2___fldiv@a+2)^0,c
 10913   00217E  0E00               	movlw	0
 10914   002180  6E2F               	movwf	(i2___fldiv@a+3)^0,c
 10915   002182                     i2l6101:
 10916   002182  8E2E               	bsf	(i2___fldiv@a+2)^0,7,c
 10917   002184  0E00               	movlw	0
 10918   002186  6E2F               	movwf	(i2___fldiv@a+3)^0,c
 10919   002188  EFCE  F010         	goto	i2l6107
 10920   00218C                     i2l6105:
 10921   00218C  0E00               	movlw	0
 10922   00218E  6E2C               	movwf	i2___fldiv@a^0,c
 10923   002190  0E00               	movlw	0
 10924   002192  6E2D               	movwf	(i2___fldiv@a+1)^0,c
 10925   002194  0E00               	movlw	0
 10926   002196  6E2E               	movwf	(i2___fldiv@a+2)^0,c
 10927   002198  0E00               	movlw	0
 10928   00219A  6E2F               	movwf	(i2___fldiv@a+3)^0,c
 10929   00219C                     i2l6107:
 10930   00219C  502C               	movf	i2___fldiv@a^0,w,c
 10931   00219E  102D               	iorwf	(i2___fldiv@a+1)^0,w,c
 10932   0021A0  102E               	iorwf	(i2___fldiv@a+2)^0,w,c
 10933   0021A2  102F               	iorwf	(i2___fldiv@a+3)^0,w,c
 10934   0021A4  A4D8               	btfss	status,2,c
 10935   0021A6  EFD7  F010         	goto	i2u578_41
 10936   0021AA  EFD9  F010         	goto	i2u578_40
 10937   0021AE                     i2u578_41:
 10938   0021AE  EFF1  F010         	goto	i2l6119
 10939   0021B2                     i2u578_40:
 10940   0021B2  0E00               	movlw	0
 10941   0021B4  6E28               	movwf	i2___fldiv@b^0,c
 10942   0021B6  0E00               	movlw	0
 10943   0021B8  6E29               	movwf	(i2___fldiv@b+1)^0,c
 10944   0021BA  0E00               	movlw	0
 10945   0021BC  6E2A               	movwf	(i2___fldiv@b+2)^0,c
 10946   0021BE  0E00               	movlw	0
 10947   0021C0  6E2B               	movwf	(i2___fldiv@b+3)^0,c
 10948   0021C2  0E80               	movlw	128
 10949   0021C4  122A               	iorwf	(i2___fldiv@b+2)^0,f,c
 10950   0021C6  0E7F               	movlw	127
 10951   0021C8  122B               	iorwf	(i2___fldiv@b+3)^0,f,c
 10952   0021CA                     i2l6113:
 10953   0021CA  5038               	movf	i2___fldiv@sign^0,w,c
 10954   0021CC  122B               	iorwf	(i2___fldiv@b+3)^0,f,c
 10955   0021CE  C028  F028         	movff	i2___fldiv@b,?i2___fldiv
 10956   0021D2  C029  F029         	movff	i2___fldiv@b+1,?i2___fldiv+1
 10957   0021D6  C02A  F02A         	movff	i2___fldiv@b+2,?i2___fldiv+2
 10958   0021DA  C02B  F02B         	movff	i2___fldiv@b+3,?i2___fldiv+3
 10959   0021DE  EF34  F012         	goto	i2l1695
 10960   0021E2                     i2l6119:
 10961   0021E2  503F               	movf	i2___fldiv@bexp^0,w,c
 10962   0021E4  A4D8               	btfss	status,2,c
 10963   0021E6  EFF7  F010         	goto	i2u579_41
 10964   0021EA  EFF9  F010         	goto	i2u579_40
 10965   0021EE                     i2u579_41:
 10966   0021EE  EF03  F011         	goto	i2l6127
 10967   0021F2                     i2u579_40:
 10968   0021F2  0E00               	movlw	0
 10969   0021F4  6E28               	movwf	?i2___fldiv^0,c
 10970   0021F6  0E00               	movlw	0
 10971   0021F8  6E29               	movwf	(?i2___fldiv+1)^0,c
 10972   0021FA  0E00               	movlw	0
 10973   0021FC  6E2A               	movwf	(?i2___fldiv+2)^0,c
 10974   0021FE  0E00               	movlw	0
 10975   002200  6E2B               	movwf	(?i2___fldiv+3)^0,c
 10976   002202  EF34  F012         	goto	i2l1695
 10977   002206                     i2l6127:
 10978   002206  5040               	movf	i2___fldiv@aexp^0,w,c
 10979   002208  C03F  F030         	movff	i2___fldiv@bexp,??i2___fldiv
 10980   00220C  6A31               	clrf	(??i2___fldiv+1)^0,c
 10981   00220E  5E30               	subwf	??i2___fldiv^0,f,c
 10982   002210  0E00               	movlw	0
 10983   002212  5A31               	subwfb	(??i2___fldiv+1)^0,f,c
 10984   002214  0E7F               	movlw	127
 10985   002216  2430               	addwf	??i2___fldiv^0,w,c
 10986   002218  6E39               	movwf	i2___fldiv@new_exp^0,c
 10987   00221A  0E00               	movlw	0
 10988   00221C  2031               	addwfc	(??i2___fldiv+1)^0,w,c
 10989   00221E  6E3A               	movwf	(i2___fldiv@new_exp+1)^0,c
 10990   002220  C028  F034         	movff	i2___fldiv@b,i2___fldiv@rem
 10991   002224  C029  F035         	movff	i2___fldiv@b+1,i2___fldiv@rem+1
 10992   002228  C02A  F036         	movff	i2___fldiv@b+2,i2___fldiv@rem+2
 10993   00222C  C02B  F037         	movff	i2___fldiv@b+3,i2___fldiv@rem+3
 10994   002230  0E00               	movlw	0
 10995   002232  6E28               	movwf	i2___fldiv@b^0,c
 10996   002234  0E00               	movlw	0
 10997   002236  6E29               	movwf	(i2___fldiv@b+1)^0,c
 10998   002238  0E00               	movlw	0
 10999   00223A  6E2A               	movwf	(i2___fldiv@b+2)^0,c
 11000   00223C  0E00               	movlw	0
 11001   00223E  6E2B               	movwf	(i2___fldiv@b+3)^0,c
 11002   002240  0E00               	movlw	0
 11003   002242  6E3B               	movwf	i2___fldiv@grs^0,c
 11004   002244  0E00               	movlw	0
 11005   002246  6E3C               	movwf	(i2___fldiv@grs+1)^0,c
 11006   002248  0E00               	movlw	0
 11007   00224A  6E3D               	movwf	(i2___fldiv@grs+2)^0,c
 11008   00224C  0E00               	movlw	0
 11009   00224E  6E3E               	movwf	(i2___fldiv@grs+3)^0,c
 11010   002250  0E00               	movlw	0
 11011   002252  6E40               	movwf	i2___fldiv@aexp^0,c
 11012   002254  EF64  F011         	goto	i2l1697
 11013   002258                     i2l6137:
 11014   002258  5040               	movf	i2___fldiv@aexp^0,w,c
 11015   00225A  B4D8               	btfsc	status,2,c
 11016   00225C  EF32  F011         	goto	i2u580_41
 11017   002260  EF34  F011         	goto	i2u580_40
 11018   002264                     i2u580_41:
 11019   002264  EF4B  F011         	goto	i2l6145
 11020   002268                     i2u580_40:
 11021   002268  90D8               	bcf	status,0,c
 11022   00226A  3634               	rlcf	i2___fldiv@rem^0,f,c
 11023   00226C  3635               	rlcf	(i2___fldiv@rem+1)^0,f,c
 11024   00226E  3636               	rlcf	(i2___fldiv@rem+2)^0,f,c
 11025   002270  3637               	rlcf	(i2___fldiv@rem+3)^0,f,c
 11026   002272  90D8               	bcf	status,0,c
 11027   002274  3628               	rlcf	i2___fldiv@b^0,f,c
 11028   002276  3629               	rlcf	(i2___fldiv@b+1)^0,f,c
 11029   002278  362A               	rlcf	(i2___fldiv@b+2)^0,f,c
 11030   00227A  362B               	rlcf	(i2___fldiv@b+3)^0,f,c
 11031   00227C  AE3E               	btfss	(i2___fldiv@grs+3)^0,7,c
 11032   00227E  EF43  F011         	goto	i2u581_41
 11033   002282  EF45  F011         	goto	i2u581_40
 11034   002286                     i2u581_41:
 11035   002286  EF46  F011         	goto	i2l1700
 11036   00228A                     i2u581_40:
 11037   00228A  8028               	bsf	i2___fldiv@b^0,0,c
 11038   00228C                     i2l1700:
 11039   00228C  90D8               	bcf	status,0,c
 11040   00228E  363B               	rlcf	i2___fldiv@grs^0,f,c
 11041   002290  363C               	rlcf	(i2___fldiv@grs+1)^0,f,c
 11042   002292  363D               	rlcf	(i2___fldiv@grs+2)^0,f,c
 11043   002294  363E               	rlcf	(i2___fldiv@grs+3)^0,f,c
 11044   002296                     i2l6145:
 11045   002296  502C               	movf	i2___fldiv@a^0,w,c
 11046   002298  5C34               	subwf	i2___fldiv@rem^0,w,c
 11047   00229A  502D               	movf	(i2___fldiv@a+1)^0,w,c
 11048   00229C  5835               	subwfb	(i2___fldiv@rem+1)^0,w,c
 11049   00229E  502E               	movf	(i2___fldiv@a+2)^0,w,c
 11050   0022A0  5836               	subwfb	(i2___fldiv@rem+2)^0,w,c
 11051   0022A2  502F               	movf	(i2___fldiv@a+3)^0,w,c
 11052   0022A4  5837               	subwfb	(i2___fldiv@rem+3)^0,w,c
 11053   0022A6  A0D8               	btfss	status,0,c
 11054   0022A8  EF58  F011         	goto	i2u582_41
 11055   0022AC  EF5A  F011         	goto	i2u582_40
 11056   0022B0                     i2u582_41:
 11057   0022B0  EF63  F011         	goto	i2l6151
 11058   0022B4                     i2u582_40:
 11059   0022B4  8C3E               	bsf	(i2___fldiv@grs+3)^0,6,c
 11060   0022B6  502C               	movf	i2___fldiv@a^0,w,c
 11061   0022B8  5E34               	subwf	i2___fldiv@rem^0,f,c
 11062   0022BA  502D               	movf	(i2___fldiv@a+1)^0,w,c
 11063   0022BC  5A35               	subwfb	(i2___fldiv@rem+1)^0,f,c
 11064   0022BE  502E               	movf	(i2___fldiv@a+2)^0,w,c
 11065   0022C0  5A36               	subwfb	(i2___fldiv@rem+2)^0,f,c
 11066   0022C2  502F               	movf	(i2___fldiv@a+3)^0,w,c
 11067   0022C4  5A37               	subwfb	(i2___fldiv@rem+3)^0,f,c
 11068   0022C6                     i2l6151:
 11069   0022C6  2A40               	incf	i2___fldiv@aexp^0,f,c
 11070   0022C8                     i2l1697:
 11071   0022C8  0E19               	movlw	25
 11072   0022CA  6440               	cpfsgt	i2___fldiv@aexp^0,c
 11073   0022CC  EF6A  F011         	goto	i2u583_41
 11074   0022D0  EF6C  F011         	goto	i2u583_40
 11075   0022D4                     i2u583_41:
 11076   0022D4  EF2C  F011         	goto	i2l6137
 11077   0022D8                     i2u583_40:
 11078   0022D8  5034               	movf	i2___fldiv@rem^0,w,c
 11079   0022DA  1035               	iorwf	(i2___fldiv@rem+1)^0,w,c
 11080   0022DC  1036               	iorwf	(i2___fldiv@rem+2)^0,w,c
 11081   0022DE  1037               	iorwf	(i2___fldiv@rem+3)^0,w,c
 11082   0022E0  B4D8               	btfsc	status,2,c
 11083   0022E2  EF75  F011         	goto	i2u584_41
 11084   0022E6  EF77  F011         	goto	i2u584_40
 11085   0022EA                     i2u584_41:
 11086   0022EA  EF8F  F011         	goto	i2l6163
 11087   0022EE                     i2u584_40:
 11088   0022EE  803B               	bsf	i2___fldiv@grs^0,0,c
 11089   0022F0  EF8F  F011         	goto	i2l6163
 11090   0022F4                     i2l6157:
 11091   0022F4  90D8               	bcf	status,0,c
 11092   0022F6  3628               	rlcf	i2___fldiv@b^0,f,c
 11093   0022F8  3629               	rlcf	(i2___fldiv@b+1)^0,f,c
 11094   0022FA  362A               	rlcf	(i2___fldiv@b+2)^0,f,c
 11095   0022FC  362B               	rlcf	(i2___fldiv@b+3)^0,f,c
 11096   0022FE  AE3E               	btfss	(i2___fldiv@grs+3)^0,7,c
 11097   002300  EF84  F011         	goto	i2u585_41
 11098   002304  EF86  F011         	goto	i2u585_40
 11099   002308                     i2u585_41:
 11100   002308  EF87  F011         	goto	i2l1706
 11101   00230C                     i2u585_40:
 11102   00230C  8028               	bsf	i2___fldiv@b^0,0,c
 11103   00230E                     i2l1706:
 11104   00230E  90D8               	bcf	status,0,c
 11105   002310  363B               	rlcf	i2___fldiv@grs^0,f,c
 11106   002312  363C               	rlcf	(i2___fldiv@grs+1)^0,f,c
 11107   002314  363D               	rlcf	(i2___fldiv@grs+2)^0,f,c
 11108   002316  363E               	rlcf	(i2___fldiv@grs+3)^0,f,c
 11109   002318  0639               	decf	i2___fldiv@new_exp^0,f,c
 11110   00231A  A0D8               	btfss	status,0,c
 11111   00231C  063A               	decf	(i2___fldiv@new_exp+1)^0,f,c
 11112   00231E                     i2l6163:
 11113   00231E  AE2A               	btfss	(i2___fldiv@b+2)^0,7,c
 11114   002320  EF94  F011         	goto	i2u586_41
 11115   002324  EF96  F011         	goto	i2u586_40
 11116   002328                     i2u586_41:
 11117   002328  EF7A  F011         	goto	i2l6157
 11118   00232C                     i2u586_40:
 11119   00232C  0E00               	movlw	0
 11120   00232E  6E40               	movwf	i2___fldiv@aexp^0,c
 11121   002330  AE3E               	btfss	(i2___fldiv@grs+3)^0,7,c
 11122   002332  EF9D  F011         	goto	i2u587_41
 11123   002336  EF9F  F011         	goto	i2u587_40
 11124   00233A                     i2u587_41:
 11125   00233A  EFC3  F011         	goto	i2l1708
 11126   00233E                     i2u587_40:
 11127   00233E  0EFF               	movlw	255
 11128   002340  143B               	andwf	i2___fldiv@grs^0,w,c
 11129   002342  6E30               	movwf	??i2___fldiv^0,c
 11130   002344  0EFF               	movlw	255
 11131   002346  143C               	andwf	(i2___fldiv@grs+1)^0,w,c
 11132   002348  6E31               	movwf	(??i2___fldiv+1)^0,c
 11133   00234A  0EFF               	movlw	255
 11134   00234C  143D               	andwf	(i2___fldiv@grs+2)^0,w,c
 11135   00234E  6E32               	movwf	(??i2___fldiv+2)^0,c
 11136   002350  0E7F               	movlw	127
 11137   002352  143E               	andwf	(i2___fldiv@grs+3)^0,w,c
 11138   002354  6E33               	movwf	(??i2___fldiv+3)^0,c
 11139   002356  5030               	movf	??i2___fldiv^0,w,c
 11140   002358  1031               	iorwf	(??i2___fldiv+1)^0,w,c
 11141   00235A  1032               	iorwf	(??i2___fldiv+2)^0,w,c
 11142   00235C  1033               	iorwf	(??i2___fldiv+3)^0,w,c
 11143   00235E  B4D8               	btfsc	status,2,c
 11144   002360  EFB4  F011         	goto	i2u588_41
 11145   002364  EFB6  F011         	goto	i2u588_40
 11146   002368                     i2u588_41:
 11147   002368  EFBA  F011         	goto	i2l1709
 11148   00236C                     i2u588_40:
 11149   00236C                     i2l6171:
 11150   00236C  0E01               	movlw	1
 11151   00236E  6E40               	movwf	i2___fldiv@aexp^0,c
 11152   002370  EFC3  F011         	goto	i2l1708
 11153   002374                     i2l1709:
 11154   002374  A028               	btfss	i2___fldiv@b^0,0,c
 11155   002376  EFBF  F011         	goto	i2u589_41
 11156   00237A  EFC1  F011         	goto	i2u589_40
 11157   00237E                     i2u589_41:
 11158   00237E  EFC3  F011         	goto	i2l1708
 11159   002382                     i2u589_40:
 11160   002382  EFB6  F011         	goto	i2l6171
 11161   002386                     i2l1708:
 11162   002386  5040               	movf	i2___fldiv@aexp^0,w,c
 11163   002388  B4D8               	btfsc	status,2,c
 11164   00238A  EFC9  F011         	goto	i2u590_41
 11165   00238E  EFCB  F011         	goto	i2u590_40
 11166   002392                     i2u590_41:
 11167   002392  EFEF  F011         	goto	i2l6183
 11168   002396                     i2u590_40:
 11169   002396  0E01               	movlw	1
 11170   002398  2628               	addwf	i2___fldiv@b^0,f,c
 11171   00239A  0E00               	movlw	0
 11172   00239C  2229               	addwfc	(i2___fldiv@b+1)^0,f,c
 11173   00239E  222A               	addwfc	(i2___fldiv@b+2)^0,f,c
 11174   0023A0  222B               	addwfc	(i2___fldiv@b+3)^0,f,c
 11175   0023A2  A02B               	btfss	(i2___fldiv@b+3)^0,0,c
 11176   0023A4  EFD6  F011         	goto	i2u591_41
 11177   0023A8  EFD8  F011         	goto	i2u591_40
 11178   0023AC                     i2u591_41:
 11179   0023AC  EFEF  F011         	goto	i2l6183
 11180   0023B0                     i2u591_40:
 11181   0023B0  C028  F030         	movff	i2___fldiv@b,??i2___fldiv
 11182   0023B4  C029  F031         	movff	i2___fldiv@b+1,??i2___fldiv+1
 11183   0023B8  C02A  F032         	movff	i2___fldiv@b+2,??i2___fldiv+2
 11184   0023BC  C02B  F033         	movff	i2___fldiv@b+3,??i2___fldiv+3
 11185   0023C0  3433               	rlcf	(??i2___fldiv+3)^0,w,c
 11186   0023C2  3233               	rrcf	(??i2___fldiv+3)^0,f,c
 11187   0023C4  3232               	rrcf	(??i2___fldiv+2)^0,f,c
 11188   0023C6  3231               	rrcf	(??i2___fldiv+1)^0,f,c
 11189   0023C8  3230               	rrcf	??i2___fldiv^0,f,c
 11190   0023CA  C030  F028         	movff	??i2___fldiv,i2___fldiv@b
 11191   0023CE  C031  F029         	movff	??i2___fldiv+1,i2___fldiv@b+1
 11192   0023D2  C032  F02A         	movff	??i2___fldiv+2,i2___fldiv@b+2
 11193   0023D6  C033  F02B         	movff	??i2___fldiv+3,i2___fldiv@b+3
 11194   0023DA  4A39               	infsnz	i2___fldiv@new_exp^0,f,c
 11195   0023DC  2A3A               	incf	(i2___fldiv@new_exp+1)^0,f,c
 11196   0023DE                     i2l6183:
 11197   0023DE  BE3A               	btfsc	(i2___fldiv@new_exp+1)^0,7,c
 11198   0023E0  EFFA  F011         	goto	i2u592_41
 11199   0023E4  503A               	movf	(i2___fldiv@new_exp+1)^0,w,c
 11200   0023E6  E108               	bnz	i2u592_40
 11201   0023E8  2839               	incf	i2___fldiv@new_exp^0,w,c
 11202   0023EA  A0D8               	btfss	status,0,c
 11203   0023EC  EFFA  F011         	goto	i2u592_41
 11204   0023F0  EFFC  F011         	goto	i2u592_40
 11205   0023F4                     i2u592_41:
 11206   0023F4  EF07  F012         	goto	i2l6187
 11207   0023F8                     i2u592_40:
 11208   0023F8  0E00               	movlw	0
 11209   0023FA  6E3A               	movwf	(i2___fldiv@new_exp+1)^0,c
 11210   0023FC  6839               	setf	i2___fldiv@new_exp^0,c
 11211   0023FE  0E00               	movlw	0
 11212   002400  6E28               	movwf	i2___fldiv@b^0,c
 11213   002402  0E00               	movlw	0
 11214   002404  6E29               	movwf	(i2___fldiv@b+1)^0,c
 11215   002406  0E00               	movlw	0
 11216   002408  6E2A               	movwf	(i2___fldiv@b+2)^0,c
 11217   00240A  0E00               	movlw	0
 11218   00240C  6E2B               	movwf	(i2___fldiv@b+3)^0,c
 11219   00240E                     i2l6187:
 11220   00240E  BE3A               	btfsc	(i2___fldiv@new_exp+1)^0,7,c
 11221   002410  EF14  F012         	goto	i2u593_40
 11222   002414  503A               	movf	(i2___fldiv@new_exp+1)^0,w,c
 11223   002416  E106               	bnz	i2u593_41
 11224   002418  0439               	decf	i2___fldiv@new_exp^0,w,c
 11225   00241A  B0D8               	btfsc	status,0,c
 11226   00241C  EF12  F012         	goto	i2u593_41
 11227   002420  EF14  F012         	goto	i2u593_40
 11228   002424                     i2u593_41:
 11229   002424  EF22  F012         	goto	i2l6191
 11230   002428                     i2u593_40:
 11231   002428  0E00               	movlw	0
 11232   00242A  6E3A               	movwf	(i2___fldiv@new_exp+1)^0,c
 11233   00242C  0E00               	movlw	0
 11234   00242E  6E39               	movwf	i2___fldiv@new_exp^0,c
 11235   002430  0E00               	movlw	0
 11236   002432  6E28               	movwf	i2___fldiv@b^0,c
 11237   002434  0E00               	movlw	0
 11238   002436  6E29               	movwf	(i2___fldiv@b+1)^0,c
 11239   002438  0E00               	movlw	0
 11240   00243A  6E2A               	movwf	(i2___fldiv@b+2)^0,c
 11241   00243C  0E00               	movlw	0
 11242   00243E  6E2B               	movwf	(i2___fldiv@b+3)^0,c
 11243   002440  0E00               	movlw	0
 11244   002442  6E38               	movwf	i2___fldiv@sign^0,c
 11245   002444                     i2l6191:
 11246   002444  C039  F03F         	movff	i2___fldiv@new_exp,i2___fldiv@bexp
 11247   002448  A03F               	btfss	i2___fldiv@bexp^0,0,c
 11248   00244A  EF29  F012         	goto	i2u594_41
 11249   00244E  EF2B  F012         	goto	i2u594_40
 11250   002452                     i2u594_41:
 11251   002452  EF2E  F012         	goto	i2l6197
 11252   002456                     i2u594_40:
 11253   002456  8E2A               	bsf	(i2___fldiv@b+2)^0,7,c
 11254   002458  EF2F  F012         	goto	i2l6199
 11255   00245C                     i2l6197:
 11256   00245C  9E2A               	bcf	(i2___fldiv@b+2)^0,7,c
 11257   00245E                     i2l6199:
 11258   00245E  90D8               	bcf	status,0,c
 11259   002460  303F               	rrcf	i2___fldiv@bexp^0,w,c
 11260   002462  6E2B               	movwf	(i2___fldiv@b+3)^0,c
 11261   002464  EFE5  F010         	goto	i2l6113
 11262   002468                     i2l1695:
 11263   002468  0012               	return		;funcret
 11264   00246A                     __end_ofi2___fldiv:
 11265                           	callstack 0
 11266                           
 11267 ;; *************** function _convert_byte_to_string *****************
 11268 ;; Defined at:
 11269 ;;		line 337 in file "ECU_LAYER/LCD/ecu_lcd.c"
 11270 ;; Parameters:    Size  Location     Type
 11271 ;;  value           1    wreg     unsigned char 
 11272 ;;  str             2   43[COMRAM] PTR unsigned char 
 11273 ;;		 -> temp_display(8), 
 11274 ;; Auto vars:     Size  Location     Type
 11275 ;;  value           1   45[COMRAM] unsigned char 
 11276 ;;  ret             1    0        unsigned char 
 11277 ;; Return value:  Size  Location     Type
 11278 ;;                  1    wreg      void 
 11279 ;; Registers used:
 11280 ;;		wreg, fsr1l, fsr1h, fsr2l, fsr2h, status,2, status,0, tblptrl, tblptrh, tblptru, cstack
 11281 ;; Tracked objects:
 11282 ;;		On entry : 0/0
 11283 ;;		On exit  : 0/0
 11284 ;;		Unchanged: 0/0
 11285 ;; Data sizes:     COMRAM   BANK0   BANK1   BANK2   BANK3   BANK4   BANK5   BANK6   BANK7   BANK8   BANK9  BANK10  BANK1
      +1  BANK12  BANK13  BANK14  BANK15
 11286 ;;      Params:         2       0       0       0       0       0       0       0       0       0       0       0       
      +0       0       0       0       0
 11287 ;;      Locals:         1       0       0       0       0       0       0       0       0       0       0       0       
      +0       0       0       0       0
 11288 ;;      Temps:          0       0       0       0       0       0       0       0       0       0       0       0       
      +0       0       0       0       0
 11289 ;;      Totals:         3       0       0       0       0       0       0       0       0       0       0       0       
      +0       0       0       0       0
 11290 ;;Total ram usage:        3 bytes
 11291 ;; Hardware stack levels used: 1
 11292 ;; Hardware stack levels required when called: 5
 11293 ;; This function calls:
 11294 ;;		_memset
 11295 ;;		_sprintf
 11296 ;; This function is called by:
 11297 ;;		_Write_temp_LCD
 11298 ;; This function uses a non-reentrant model
 11299 ;;
 11300                           
 11301                           	psect	text61
 11302   0047EA                     __ptext61:
 11303                           	callstack 0
 11304   0047EA                     _convert_byte_to_string:
 11305                           	callstack 16
 11306                           
 11307                           ;incstack = 0
 11308                           ;convert_byte_to_string@value stored from wreg
 11309   0047EA  6E2E               	movwf	convert_byte_to_string@value^0,c
 11310   0047EC                     
 11311                           ;ECU_LAYER/LCD/ecu_lcd.c: 341:     if (((void*)0) == str ){
 11312   0047EC  502C               	movf	convert_byte_to_string@str^0,w,c
 11313   0047EE  102D               	iorwf	(convert_byte_to_string@str+1)^0,w,c
 11314   0047F0  A4D8               	btfss	status,2,c
 11315   0047F2  EFFD  F023         	goto	i2u850_41
 11316   0047F6  EFFF  F023         	goto	i2u850_40
 11317   0047FA                     i2u850_41:
 11318   0047FA  EF01  F024         	goto	i2l8277
 11319   0047FE                     i2u850_40:
 11320   0047FE                     
 11321                           ;ECU_LAYER/LCD/ecu_lcd.c: 343:     }
 11322   0047FE  EF1A  F024         	goto	i2l143
 11323   004802                     i2l8277:
 11324                           
 11325                           ;ECU_LAYER/LCD/ecu_lcd.c: 345:         memset(str,'\0',4);
 11326   004802  C02C  F001         	movff	convert_byte_to_string@str,memset@dest
 11327   004806  C02D  F002         	movff	convert_byte_to_string@str+1,memset@dest+1
 11328   00480A  0E00               	movlw	0
 11329   00480C  6E04               	movwf	(memset@c+1)^0,c
 11330   00480E  0E00               	movlw	0
 11331   004810  6E03               	movwf	memset@c^0,c
 11332   004812  0E00               	movlw	0
 11333   004814  6E06               	movwf	(memset@n+1)^0,c
 11334   004816  0E04               	movlw	4
 11335   004818  6E05               	movwf	memset@n^0,c
 11336   00481A  ECE0  F024         	call	_memset	;wreg free
 11337   00481E                     
 11338                           ;ECU_LAYER/LCD/ecu_lcd.c: 346:         sprintf(str,"%i",value);
 11339   00481E  C02C  F01A         	movff	convert_byte_to_string@str,sprintf@s
 11340   004822  C02D  F01B         	movff	convert_byte_to_string@str+1,sprintf@s+1
 11341   004826  0E17               	movlw	low STR_1
 11342   004828  6E1C               	movwf	sprintf@fmt^0,c
 11343   00482A  C02E  F01D         	movff	convert_byte_to_string@value,?_sprintf+3
 11344   00482E  6A1E               	clrf	(?_sprintf+4)^0,c
 11345   004830  ECC2  F024         	call	_sprintf	;wreg free
 11346   004834                     i2l143:
 11347   004834  0012               	return		;funcret
 11348   004836                     __end_of_convert_byte_to_string:
 11349                           	callstack 0
 11350                           
 11351 ;; *************** function _sprintf *****************
 11352 ;; Defined at:
 11353 ;;		line 9 in file "D:\Program Files\Microchip\xc8\v2.45\pic\sources\c99\common\nf_sprintf.c"
 11354 ;; Parameters:    Size  Location     Type
 11355 ;;  s               2   25[COMRAM] PTR unsigned char 
 11356 ;;		 -> temp_display(8), 
 11357 ;;  fmt             1   27[COMRAM] PTR const unsigned char 
 11358 ;;		 -> STR_3(3), STR_2(3), STR_1(3), 
 11359 ;; Auto vars:     Size  Location     Type
 11360 ;;  f              12   31[COMRAM] struct _IO_FILE
 11361 ;;  ret             2    0        int 
 11362 ;;  ap              1   30[COMRAM] PTR void [1]
 11363 ;;		 -> ?_sprintf(2), 
 11364 ;; Return value:  Size  Location     Type
 11365 ;;                  2   25[COMRAM] int 
 11366 ;; Registers used:
 11367 ;;		wreg, fsr1l, fsr1h, fsr2l, fsr2h, status,2, status,0, tblptrl, tblptrh, tblptru, cstack
 11368 ;; Tracked objects:
 11369 ;;		On entry : 0/0
 11370 ;;		On exit  : 0/0
 11371 ;;		Unchanged: 0/0
 11372 ;; Data sizes:     COMRAM   BANK0   BANK1   BANK2   BANK3   BANK4   BANK5   BANK6   BANK7   BANK8   BANK9  BANK10  BANK1
      +1  BANK12  BANK13  BANK14  BANK15
 11373 ;;      Params:         5       0       0       0       0       0       0       0       0       0       0       0       
      +0       0       0       0       0
 11374 ;;      Locals:        13       0       0       0       0       0       0       0       0       0       0       0       
      +0       0       0       0       0
 11375 ;;      Temps:          0       0       0       0       0       0       0       0       0       0       0       0       
      +0       0       0       0       0
 11376 ;;      Totals:        18       0       0       0       0       0       0       0       0       0       0       0       
      +0       0       0       0       0
 11377 ;;Total ram usage:       18 bytes
 11378 ;; Hardware stack levels used: 1
 11379 ;; Hardware stack levels required when called: 4
 11380 ;; This function calls:
 11381 ;;		_vfprintf
 11382 ;; This function is called by:
 11383 ;;		_convert_byte_to_string
 11384 ;;		_convert_short_to_string
 11385 ;;		_convert_int_to_string
 11386 ;; This function uses a non-reentrant model
 11387 ;;
 11388                           
 11389                           	psect	text62
 11390   004984                     __ptext62:
 11391                           	callstack 0
 11392   004984                     _sprintf:
 11393                           	callstack 16
 11394   004984  0E1D               	movlw	low (?_sprintf+3)
 11395   004986  6E1F               	movwf	sprintf@ap^0,c
 11396   004988  C01A  F020         	movff	sprintf@s,sprintf@f
 11397   00498C  C01B  F021         	movff	sprintf@s+1,sprintf@f+1
 11398   004990  0E00               	movlw	0
 11399   004992  6E24               	movwf	(sprintf@f+4)^0,c
 11400   004994  0E00               	movlw	0
 11401   004996  6E23               	movwf	(sprintf@f+3)^0,c
 11402   004998  0E00               	movlw	0
 11403   00499A  6E2B               	movwf	(sprintf@f+11)^0,c
 11404   00499C  0E00               	movlw	0
 11405   00499E  6E2A               	movwf	(sprintf@f+10)^0,c
 11406   0049A0  0E20               	movlw	low sprintf@f
 11407   0049A2  6E16               	movwf	vfprintf@fp^0,c
 11408   0049A4  C01C  F017         	movff	sprintf@fmt,vfprintf@fmt
 11409   0049A8  0E1F               	movlw	low sprintf@ap
 11410   0049AA  6E18               	movwf	vfprintf@ap^0,c
 11411   0049AC  ECA2  F024         	call	_vfprintf	;wreg free
 11412   0049B0  5023               	movf	(sprintf@f+3)^0,w,c
 11413   0049B2  241A               	addwf	sprintf@s^0,w,c
 11414   0049B4  6ED9               	movwf	fsr2l,c
 11415   0049B6  5024               	movf	(sprintf@f+4)^0,w,c
 11416   0049B8  201B               	addwfc	(sprintf@s+1)^0,w,c
 11417   0049BA  6EDA               	movwf	fsr2h,c
 11418   0049BC  6ADF               	clrf	indf2,c
 11419   0049BE  0012               	return		;funcret
 11420   0049C0                     __end_of_sprintf:
 11421                           	callstack 0
 11422                           
 11423 ;; *************** function _vfprintf *****************
 11424 ;; Defined at:
 11425 ;;		line 1817 in file "D:\Program Files\Microchip\xc8\v2.45\pic\sources\c99\common\doprnt.c"
 11426 ;; Parameters:    Size  Location     Type
 11427 ;;  fp              1   21[COMRAM] PTR struct _IO_FILE
 11428 ;;		 -> sprintf@f(12), 
 11429 ;;  fmt             1   22[COMRAM] PTR const unsigned char 
 11430 ;;		 -> STR_3(3), STR_2(3), STR_1(3), 
 11431 ;;  ap              1   23[COMRAM] PTR PTR void 
 11432 ;;		 -> sprintf@ap(1), 
 11433 ;; Auto vars:     Size  Location     Type
 11434 ;;  cfmt            1   24[COMRAM] PTR unsigned char 
 11435 ;;		 -> STR_3(3), STR_2(3), STR_1(3), 
 11436 ;; Return value:  Size  Location     Type
 11437 ;;                  2   21[COMRAM] int 
 11438 ;; Registers used:
 11439 ;;		wreg, fsr1l, fsr1h, fsr2l, fsr2h, status,2, status,0, tblptrl, tblptrh, tblptru, cstack
 11440 ;; Tracked objects:
 11441 ;;		On entry : 0/0
 11442 ;;		On exit  : 0/0
 11443 ;;		Unchanged: 0/0
 11444 ;; Data sizes:     COMRAM   BANK0   BANK1   BANK2   BANK3   BANK4   BANK5   BANK6   BANK7   BANK8   BANK9  BANK10  BANK1
      +1  BANK12  BANK13  BANK14  BANK15
 11445 ;;      Params:         3       0       0       0       0       0       0       0       0       0       0       0       
      +0       0       0       0       0
 11446 ;;      Locals:         1       0       0       0       0       0       0       0       0       0       0       0       
      +0       0       0       0       0
 11447 ;;      Temps:          0       0       0       0       0       0       0       0       0       0       0       0       
      +0       0       0       0       0
 11448 ;;      Totals:         4       0       0       0       0       0       0       0       0       0       0       0       
      +0       0       0       0       0
 11449 ;;Total ram usage:        4 bytes
 11450 ;; Hardware stack levels used: 1
 11451 ;; Hardware stack levels required when called: 3
 11452 ;; This function calls:
 11453 ;;		_vfpfcnvrt
 11454 ;; This function is called by:
 11455 ;;		_sprintf
 11456 ;; This function uses a non-reentrant model
 11457 ;;
 11458                           
 11459                           	psect	text63
 11460   004944                     __ptext63:
 11461                           	callstack 0
 11462   004944                     _vfprintf:
 11463                           	callstack 16
 11464   004944                     
 11465                           ;D:\Program Files\Microchip\xc8\v2.45\pic\sources\c99\common\doprnt.c: 1817: int vfprint
      +                          f(FILE *fp, const char *fmt, va_list ap);D:\Program Files\Microchip\xc8\v2.45\pic\source
      +                          s\c99\common\doprnt.c: 1818: {;D:\Program Files\Microchip\xc8\v2.45\pic\sources\c99\comm
      +                          on\doprnt.c: 1820:     char *cfmt;;D:\Program Files\Microchip\xc8\v2.45\pic\sources\c99\
      +                          common\doprnt.c: 1822:     cfmt = (char *)fmt;
 11466   004944  C017  F019         	movff	vfprintf@fmt,vfprintf@cfmt
 11467                           
 11468                           ;D:\Program Files\Microchip\xc8\v2.45\pic\sources\c99\common\doprnt.c: 1826:     while (
      +                          *cfmt) {
 11469   004948  EFAE  F024         	goto	i2l5103
 11470   00494C                     i2l5101:
 11471                           
 11472                           ;D:\Program Files\Microchip\xc8\v2.45\pic\sources\c99\common\doprnt.c: 1830:    vfpfcnvr
      +                          t(fp, &cfmt, ap);
 11473   00494C  C016  F00B         	movff	vfprintf@fp,vfpfcnvrt@fp
 11474   004950  0E19               	movlw	low vfprintf@cfmt
 11475   004952  6E0C               	movwf	vfpfcnvrt@fmt^0,c
 11476   004954  C018  F00D         	movff	vfprintf@ap,vfpfcnvrt@ap
 11477   004958  EC35  F012         	call	_vfpfcnvrt	;wreg free
 11478   00495C                     i2l5103:
 11479                           
 11480                           ;D:\Program Files\Microchip\xc8\v2.45\pic\sources\c99\common\doprnt.c: 1826:     while (
      +                          *cfmt) {
 11481   00495C  C019  FFF6         	movff	vfprintf@cfmt,tblptrl
 11482   004960                     	if	1	;There is more than 1 active tblptr byte
 11483   004960  0E10               	movlw	high __smallconst
 11484   004962  6EF7               	movwf	tblptrh,c
 11485   004964                     	endif
 11486   004964                     	if	1	;Program memory is < 0x10000, tblptru is always zero
 11487   004964  6AF8               	clrf	tblptru,c
 11488   004966                     	endif
 11489   004966                     	if	0	;tblptru may be non-zero
 11490   004966                     	endif
 11491   004966  0008               	tblrd		*
 11492   004968  50F5               	movf	tablat,w,c
 11493   00496A  0900               	iorlw	0
 11494   00496C  A4D8               	btfss	status,2,c
 11495   00496E  EFBB  F024         	goto	i2u431_41
 11496   004972  EFBD  F024         	goto	i2u431_40
 11497   004976                     i2u431_41:
 11498   004976  EFA6  F024         	goto	i2l5101
 11499   00497A                     i2u431_40:
 11500   00497A                     
 11501                           ;D:\Program Files\Microchip\xc8\v2.45\pic\sources\c99\common\doprnt.c: 1835:  return 0;
 11502   00497A  0E00               	movlw	0
 11503   00497C  6E17               	movwf	(?_vfprintf+1)^0,c
 11504   00497E  0E00               	movlw	0
 11505   004980  6E16               	movwf	?_vfprintf^0,c
 11506   004982  0012               	return		;funcret
 11507   004984                     __end_of_vfprintf:
 11508                           	callstack 0
 11509                           
 11510 ;; *************** function _vfpfcnvrt *****************
 11511 ;; Defined at:
 11512 ;;		line 1177 in file "D:\Program Files\Microchip\xc8\v2.45\pic\sources\c99\common\doprnt.c"
 11513 ;; Parameters:    Size  Location     Type
 11514 ;;  fp              1   10[COMRAM] PTR struct _IO_FILE
 11515 ;;		 -> sprintf@f(12), 
 11516 ;;  fmt             1   11[COMRAM] PTR PTR unsigned char 
 11517 ;;		 -> vfprintf@cfmt(1), 
 11518 ;;  ap              1   12[COMRAM] PTR PTR void 
 11519 ;;		 -> sprintf@ap(1), 
 11520 ;; Auto vars:     Size  Location     Type
 11521 ;;  convarg         4   16[COMRAM] struct .
 11522 ;;  c               1   20[COMRAM] unsigned char 
 11523 ;;  cp              1   15[COMRAM] PTR unsigned char 
 11524 ;;		 -> STR_3(3), STR_2(3), STR_1(3), 
 11525 ;;  done            1   14[COMRAM] _Bool 
 11526 ;; Return value:  Size  Location     Type
 11527 ;;                  1    wreg      void 
 11528 ;; Registers used:
 11529 ;;		wreg, fsr1l, fsr1h, fsr2l, fsr2h, status,2, status,0, tblptrl, tblptrh, tblptru, cstack
 11530 ;; Tracked objects:
 11531 ;;		On entry : 0/0
 11532 ;;		On exit  : 0/0
 11533 ;;		Unchanged: 0/0
 11534 ;; Data sizes:     COMRAM   BANK0   BANK1   BANK2   BANK3   BANK4   BANK5   BANK6   BANK7   BANK8   BANK9  BANK10  BANK1
      +1  BANK12  BANK13  BANK14  BANK15
 11535 ;;      Params:         3       0       0       0       0       0       0       0       0       0       0       0       
      +0       0       0       0       0
 11536 ;;      Locals:         7       0       0       0       0       0       0       0       0       0       0       0       
      +0       0       0       0       0
 11537 ;;      Temps:          1       0       0       0       0       0       0       0       0       0       0       0       
      +0       0       0       0       0
 11538 ;;      Totals:        11       0       0       0       0       0       0       0       0       0       0       0       
      +0       0       0       0       0
 11539 ;;Total ram usage:       11 bytes
 11540 ;; Hardware stack levels used: 1
 11541 ;; Hardware stack levels required when called: 2
 11542 ;; This function calls:
 11543 ;;		___awdiv
 11544 ;;		___awmod
 11545 ;;		_abs
 11546 ;;		_fputc
 11547 ;; This function is called by:
 11548 ;;		_vfprintf
 11549 ;; This function uses a non-reentrant model
 11550 ;;
 11551                           
 11552                           	psect	text64
 11553   00246A                     __ptext64:
 11554                           	callstack 0
 11555   00246A                     _vfpfcnvrt:
 11556                           	callstack 16
 11557   00246A                     
 11558                           ;D:\Program Files\Microchip\xc8\v2.45\pic\sources\c99\common\doprnt.c: 1177: vfpfcnvrt(F
      +                          ILE *fp, char *fmt[], va_list ap);D:\Program Files\Microchip\xc8\v2.45\pic\sources\c99\c
      +                          ommon\doprnt.c: 1178: {;D:\Program Files\Microchip\xc8\v2.45\pic\sources\c99\common\dopr
      +                          nt.c: 1179:     char c, *cp;;D:\Program Files\Microchip\xc8\v2.45\pic\sources\c99\common
      +                          \doprnt.c: 1180:     _Bool done;;D:\Program Files\Microchip\xc8\v2.45\pic\sources\c99\co
      +                          mmon\doprnt.c: 1188:  } convarg;;D:\Program Files\Microchip\xc8\v2.45\pic\sources\c99\co
      +                          mmon\doprnt.c: 1201:     if ((*fmt)[0] == '%') {
 11559   00246A  500C               	movf	vfpfcnvrt@fmt^0,w,c
 11560   00246C  6ED9               	movwf	fsr2l,c
 11561   00246E  6ADA               	clrf	fsr2h,c
 11562   002470  CFDF FFF6          	movff	indf2,tblptrl
 11563   002474                     	if	1	;There is more than 1 active tblptr byte
 11564   002474  0E10               	movlw	high __smallconst
 11565   002476  6EF7               	movwf	tblptrh,c
 11566   002478                     	endif
 11567   002478                     	if	1	;Program memory is < 0x10000, tblptru is always zero
 11568   002478  6AF8               	clrf	tblptru,c
 11569   00247A                     	endif
 11570   00247A                     	if	0	;tblptru may be non-zero
 11571   00247A                     	endif
 11572   00247A  0008               	tblrd		*
 11573   00247C  50F5               	movf	tablat,w,c
 11574   00247E  0A25               	xorlw	37
 11575   002480  A4D8               	btfss	status,2,c
 11576   002482  EF45  F012         	goto	i2u421_41
 11577   002486  EF47  F012         	goto	i2u421_40
 11578   00248A                     i2u421_41:
 11579   00248A  EF09  F013         	goto	i2l5077
 11580   00248E                     i2u421_40:
 11581   00248E                     
 11582                           ;D:\Program Files\Microchip\xc8\v2.45\pic\sources\c99\common\doprnt.c: 1202:         ++*
      +                          fmt;
 11583   00248E  500C               	movf	vfpfcnvrt@fmt^0,w,c
 11584   002490  6ED9               	movwf	fsr2l,c
 11585   002492  6ADA               	clrf	fsr2h,c
 11586   002494  2ADF               	incf	indf2,f,c
 11587   002496                     
 11588                           ;D:\Program Files\Microchip\xc8\v2.45\pic\sources\c99\common\doprnt.c: 1204:         fla
      +                          gs = width = 0;
 11589   002496  0E00               	movlw	0
 11590   002498  0100               	movlb	0	; () banked
 11591   00249A  6FE5               	movwf	(_width+1)& (0+255),b
 11592   00249C  0E00               	movlw	0
 11593   00249E  6FE4               	movwf	_width& (0+255),b
 11594   0024A0  C0E4  F06B         	movff	_width,_flags
 11595   0024A4                     
 11596                           ; BSR set to: 0
 11597                           ;D:\Program Files\Microchip\xc8\v2.45\pic\sources\c99\common\doprnt.c: 1205:         pre
      +                          c = -1;
 11598   0024A4  684B               	setf	_prec^0,c
 11599   0024A6  684C               	setf	(_prec+1)^0,c
 11600   0024A8                     
 11601                           ; BSR set to: 0
 11602                           ;D:\Program Files\Microchip\xc8\v2.45\pic\sources\c99\common\doprnt.c: 1291:   cp = *fmt
      +                          ;
 11603   0024A8  500C               	movf	vfpfcnvrt@fmt^0,w,c
 11604   0024AA  6ED9               	movwf	fsr2l,c
 11605   0024AC  6ADA               	clrf	fsr2h,c
 11606   0024AE  50DF               	movf	indf2,w,c
 11607   0024B0  6E10               	movwf	vfpfcnvrt@cp^0,c
 11608   0024B2                     
 11609                           ; BSR set to: 0
 11610                           ;D:\Program Files\Microchip\xc8\v2.45\pic\sources\c99\common\doprnt.c: 1361:   if (*cp =
      +                          = 'd' || *cp == 'i') {
 11611   0024B2  C010  FFF6         	movff	vfpfcnvrt@cp,tblptrl
 11612   0024B6                     	if	1	;There is more than 1 active tblptr byte
 11613   0024B6  0E10               	movlw	high __smallconst
 11614   0024B8  6EF7               	movwf	tblptrh,c
 11615   0024BA                     	endif
 11616   0024BA                     	if	1	;Program memory is < 0x10000, tblptru is always zero
 11617   0024BA  6AF8               	clrf	tblptru,c
 11618   0024BC                     	endif
 11619   0024BC                     	if	0	;tblptru may be non-zero
 11620   0024BC                     	endif
 11621   0024BC  0008               	tblrd		*
 11622   0024BE  50F5               	movf	tablat,w,c
 11623   0024C0  0A64               	xorlw	100
 11624   0024C2  B4D8               	btfsc	status,2,c
 11625   0024C4  EF66  F012         	goto	i2u422_41
 11626   0024C8  EF68  F012         	goto	i2u422_40
 11627   0024CC                     i2u422_41:
 11628   0024CC  EF77  F012         	goto	i2l5047
 11629   0024D0                     i2u422_40:
 11630   0024D0                     
 11631                           ; BSR set to: 0
 11632   0024D0  C010  FFF6         	movff	vfpfcnvrt@cp,tblptrl
 11633   0024D4                     	if	1	;There is more than 1 active tblptr byte
 11634   0024D4  0E10               	movlw	high __smallconst
 11635   0024D6  6EF7               	movwf	tblptrh,c
 11636   0024D8                     	endif
 11637   0024D8                     	if	1	;Program memory is < 0x10000, tblptru is always zero
 11638   0024D8  6AF8               	clrf	tblptru,c
 11639   0024DA                     	endif
 11640   0024DA                     	if	0	;tblptru may be non-zero
 11641   0024DA                     	endif
 11642   0024DA  0008               	tblrd		*
 11643   0024DC  50F5               	movf	tablat,w,c
 11644   0024DE  0A69               	xorlw	105
 11645   0024E0  A4D8               	btfss	status,2,c
 11646   0024E2  EF75  F012         	goto	i2u423_41
 11647   0024E6  EF77  F012         	goto	i2u423_40
 11648   0024EA                     i2u423_41:
 11649   0024EA  EF03  F013         	goto	i2l5073
 11650   0024EE                     i2u423_40:
 11651   0024EE                     i2l5047:
 11652                           
 11653                           ; BSR set to: 0
 11654                           ;D:\Program Files\Microchip\xc8\v2.45\pic\sources\c99\common\doprnt.c: 1404:    convarg.
      +                          sint = (vfpf_sint_t)(int)(*(int *)__va_arg(*(int **)ap, (int)0));
 11655   0024EE  500D               	movf	vfpfcnvrt@ap^0,w,c
 11656   0024F0  6ED9               	movwf	fsr2l,c
 11657   0024F2  6ADA               	clrf	fsr2h,c
 11658   0024F4  0E02               	movlw	2
 11659   0024F6  26DF               	addwf	indf2,f,c
 11660   0024F8  5CDF               	subwf	indf2,w,c
 11661   0024FA  6ED9               	movwf	fsr2l,c
 11662   0024FC  6ADA               	clrf	fsr2h,c
 11663   0024FE  CFDE F011          	movff	postinc2,vfpfcnvrt@convarg
 11664   002502  CFDE F012          	movff	postinc2,vfpfcnvrt@convarg+1
 11665   002506                     
 11666                           ; BSR set to: 0
 11667                           ;D:\Program Files\Microchip\xc8\v2.45\pic\sources\c99\common\doprnt.c: 1406:    *fmt = c
      +                          p+1;
 11668   002506  500C               	movf	vfpfcnvrt@fmt^0,w,c
 11669   002508  6ED9               	movwf	fsr2l,c
 11670   00250A  6ADA               	clrf	fsr2h,c
 11671   00250C  2810               	incf	vfpfcnvrt@cp^0,w,c
 11672   00250E  6EDF               	movwf	indf2,c
 11673   002510                     
 11674                           ; BSR set to: 0
 11675                           ;D:\Program Files\Microchip\xc8\v2.45\pic\sources\c99\common\doprnt.c: 1408:    c = size
      +                          of(dbuf);
 11676   002510  0E20               	movlw	32
 11677   002512  6E15               	movwf	vfpfcnvrt@c^0,c
 11678                           
 11679                           ;D:\Program Files\Microchip\xc8\v2.45\pic\sources\c99\common\doprnt.c: 1409:    done = c
      +                          onvarg.sint < 0;
 11680   002514  BE12               	btfsc	(vfpfcnvrt@convarg+1)^0,7,c
 11681   002516  EF8F  F012         	goto	i2u424_41
 11682   00251A  EF92  F012         	goto	i2u424_40
 11683   00251E                     i2u424_41:
 11684   00251E  0E01               	movlw	1
 11685   002520  EF93  F012         	goto	i2u425_40
 11686   002524                     i2u424_40:
 11687   002524  0E00               	movlw	0
 11688   002526                     i2u425_40:
 11689   002526  6E0F               	movwf	vfpfcnvrt@done^0,c
 11690   002528                     i2l5053:
 11691                           
 11692                           ;D:\Program Files\Microchip\xc8\v2.45\pic\sources\c99\common\doprnt.c: 1411:     dbuf[--
      +                          c] = abs(convarg.sint % 10) + '0';
 11693   002528  0615               	decf	vfpfcnvrt@c^0,f,c
 11694   00252A  0E44               	movlw	low _dbuf
 11695   00252C  2415               	addwf	vfpfcnvrt@c^0,w,c
 11696   00252E  6ED9               	movwf	fsr2l,c
 11697   002530  6ADA               	clrf	fsr2h,c
 11698   002532  0E01               	movlw	high _dbuf
 11699   002534  22DA               	addwfc	fsr2h,f,c
 11700   002536  C011  F001         	movff	vfpfcnvrt@convarg,___awmod@dividend
 11701   00253A  C012  F002         	movff	vfpfcnvrt@convarg+1,___awmod@dividend+1
 11702   00253E  0E00               	movlw	0
 11703   002540  6E04               	movwf	(___awmod@divisor+1)^0,c
 11704   002542  0E0A               	movlw	10
 11705   002544  6E03               	movwf	___awmod@divisor^0,c
 11706   002546  ECBC  F01E         	call	___awmod	;wreg free
 11707   00254A  C001  F007         	movff	?___awmod,abs@a
 11708   00254E  C002  F008         	movff	?___awmod+1,abs@a+1
 11709   002552  EC17  F025         	call	_abs	;wreg free
 11710   002556  5007               	movf	?_abs^0,w,c
 11711   002558  0F30               	addlw	48
 11712   00255A  6EDF               	movwf	indf2,c
 11713   00255C                     
 11714                           ;D:\Program Files\Microchip\xc8\v2.45\pic\sources\c99\common\doprnt.c: 1412:     convarg
      +                          .sint /= 10;
 11715   00255C  C011  F001         	movff	vfpfcnvrt@convarg,___awdiv@dividend
 11716   002560  C012  F002         	movff	vfpfcnvrt@convarg+1,___awdiv@dividend+1
 11717   002564  0E00               	movlw	0
 11718   002566  6E04               	movwf	(___awdiv@divisor+1)^0,c
 11719   002568  0E0A               	movlw	10
 11720   00256A  6E03               	movwf	___awdiv@divisor^0,c
 11721   00256C  ECFD  F01D         	call	___awdiv	;wreg free
 11722   002570  C001  F011         	movff	?___awdiv,vfpfcnvrt@convarg
 11723   002574  C002  F012         	movff	?___awdiv+1,vfpfcnvrt@convarg+1
 11724   002578                     
 11725                           ;D:\Program Files\Microchip\xc8\v2.45\pic\sources\c99\common\doprnt.c: 1416:    } while 
      +                          (convarg.sint != 0 && c != 0);
 11726   002578  5011               	movf	vfpfcnvrt@convarg^0,w,c
 11727   00257A  1012               	iorwf	(vfpfcnvrt@convarg+1)^0,w,c
 11728   00257C  B4D8               	btfsc	status,2,c
 11729   00257E  EFC3  F012         	goto	i2u426_41
 11730   002582  EFC5  F012         	goto	i2u426_40
 11731   002586                     i2u426_41:
 11732   002586  EFCD  F012         	goto	i2l5061
 11733   00258A                     i2u426_40:
 11734   00258A  5015               	movf	vfpfcnvrt@c^0,w,c
 11735   00258C  A4D8               	btfss	status,2,c
 11736   00258E  EFCB  F012         	goto	i2u427_41
 11737   002592  EFCD  F012         	goto	i2u427_40
 11738   002596                     i2u427_41:
 11739   002596  EF94  F012         	goto	i2l5053
 11740   00259A                     i2u427_40:
 11741   00259A                     i2l5061:
 11742                           
 11743                           ;D:\Program Files\Microchip\xc8\v2.45\pic\sources\c99\common\doprnt.c: 1417:    if (c !=
      +                           0 && done) {
 11744   00259A  5015               	movf	vfpfcnvrt@c^0,w,c
 11745   00259C  B4D8               	btfsc	status,2,c
 11746   00259E  EFD3  F012         	goto	i2u428_41
 11747   0025A2  EFD5  F012         	goto	i2u428_40
 11748   0025A6                     i2u428_41:
 11749   0025A6  EFF8  F012         	goto	i2l5071
 11750   0025AA                     i2u428_40:
 11751   0025AA  500F               	movf	vfpfcnvrt@done^0,w,c
 11752   0025AC  B4D8               	btfsc	status,2,c
 11753   0025AE  EFDB  F012         	goto	i2u429_41
 11754   0025B2  EFDD  F012         	goto	i2u429_40
 11755   0025B6                     i2u429_41:
 11756   0025B6  EFF8  F012         	goto	i2l5071
 11757   0025BA                     i2u429_40:
 11758   0025BA                     
 11759                           ;D:\Program Files\Microchip\xc8\v2.45\pic\sources\c99\common\doprnt.c: 1418:     dbuf[--
      +                          c] = '-';
 11760   0025BA  0615               	decf	vfpfcnvrt@c^0,f,c
 11761   0025BC  0E44               	movlw	low _dbuf
 11762   0025BE  2415               	addwf	vfpfcnvrt@c^0,w,c
 11763   0025C0  6ED9               	movwf	fsr2l,c
 11764   0025C2  6ADA               	clrf	fsr2h,c
 11765   0025C4  0E01               	movlw	high _dbuf
 11766   0025C6  22DA               	addwfc	fsr2h,f,c
 11767   0025C8  0E2D               	movlw	45
 11768   0025CA  6EDF               	movwf	indf2,c
 11769   0025CC  EFF8  F012         	goto	i2l5071
 11770   0025D0                     i2l5067:
 11771                           
 11772                           ;D:\Program Files\Microchip\xc8\v2.45\pic\sources\c99\common\doprnt.c: 1424:     fputc(d
      +                          buf[c++], fp);
 11773   0025D0  0E44               	movlw	low _dbuf
 11774   0025D2  2415               	addwf	vfpfcnvrt@c^0,w,c
 11775   0025D4  6ED9               	movwf	fsr2l,c
 11776   0025D6  6ADA               	clrf	fsr2h,c
 11777   0025D8  0E01               	movlw	high _dbuf
 11778   0025DA  22DA               	addwfc	fsr2h,f,c
 11779   0025DC  50DF               	movf	indf2,w,c
 11780   0025DE  6E0E               	movwf	??_vfpfcnvrt^0,c
 11781   0025E0  500E               	movf	??_vfpfcnvrt^0,w,c
 11782   0025E2  6E01               	movwf	fputc@c^0,c
 11783   0025E4  6A02               	clrf	(fputc@c+1)^0,c
 11784   0025E6  C00B  F003         	movff	vfpfcnvrt@fp,fputc@fp
 11785   0025EA  EC5F  F01E         	call	_fputc	;wreg free
 11786   0025EE  2A15               	incf	vfpfcnvrt@c^0,f,c
 11787   0025F0                     i2l5071:
 11788                           
 11789                           ;D:\Program Files\Microchip\xc8\v2.45\pic\sources\c99\common\doprnt.c: 1423:    while (c
      +                           != sizeof(dbuf)) {
 11790   0025F0  0E20               	movlw	32
 11791   0025F2  1815               	xorwf	vfpfcnvrt@c^0,w,c
 11792   0025F4  A4D8               	btfss	status,2,c
 11793   0025F6  EFFF  F012         	goto	i2u430_41
 11794   0025FA  EF01  F013         	goto	i2u430_40
 11795   0025FE                     i2u430_41:
 11796   0025FE  EFE8  F012         	goto	i2l5067
 11797   002602                     i2u430_40:
 11798   002602  EF1B  F013         	goto	i2l1835
 11799   002606                     i2l5073:
 11800                           
 11801                           ;D:\Program Files\Microchip\xc8\v2.45\pic\sources\c99\common\doprnt.c: 1806:         ++*
      +                          fmt;
 11802   002606  500C               	movf	vfpfcnvrt@fmt^0,w,c
 11803   002608  6ED9               	movwf	fsr2l,c
 11804   00260A  6ADA               	clrf	fsr2h,c
 11805   00260C  2ADF               	incf	indf2,f,c
 11806   00260E  EF1B  F013         	goto	i2l1835
 11807   002612                     i2l5077:
 11808                           
 11809                           ;D:\Program Files\Microchip\xc8\v2.45\pic\sources\c99\common\doprnt.c: 1811:     fputc((
      +                          int)(*fmt)[0], fp);
 11810   002612  500C               	movf	vfpfcnvrt@fmt^0,w,c
 11811   002614  6ED9               	movwf	fsr2l,c
 11812   002616  6ADA               	clrf	fsr2h,c
 11813   002618  CFDF FFF6          	movff	indf2,tblptrl
 11814   00261C                     	if	1	;There is more than 1 active tblptr byte
 11815   00261C  0E10               	movlw	high __smallconst
 11816   00261E  6EF7               	movwf	tblptrh,c
 11817   002620                     	endif
 11818   002620                     	if	1	;Program memory is < 0x10000, tblptru is always zero
 11819   002620  6AF8               	clrf	tblptru,c
 11820   002622                     	endif
 11821   002622                     	if	0	;tblptru may be non-zero
 11822   002622                     	endif
 11823   002622  0008               	tblrd		*
 11824   002624  50F5               	movf	tablat,w,c
 11825   002626  6E01               	movwf	fputc@c^0,c
 11826   002628  6A02               	clrf	(fputc@c+1)^0,c
 11827   00262A  C00B  F003         	movff	vfpfcnvrt@fp,fputc@fp
 11828   00262E  EC5F  F01E         	call	_fputc	;wreg free
 11829   002632  EF03  F013         	goto	i2l5073
 11830   002636                     i2l1835:
 11831   002636  0012               	return		;funcret
 11832   002638                     __end_of_vfpfcnvrt:
 11833                           	callstack 0
 11834                           
 11835 ;; *************** function _fputc *****************
 11836 ;; Defined at:
 11837 ;;		line 8 in file "D:\Program Files\Microchip\xc8\v2.45\pic\sources\c99\common\nf_fputc.c"
 11838 ;; Parameters:    Size  Location     Type
 11839 ;;  c               2    0[COMRAM] int 
 11840 ;;  fp              1    2[COMRAM] PTR struct _IO_FILE
 11841 ;;		 -> sprintf@f(12), 
 11842 ;; Auto vars:     Size  Location     Type
 11843 ;;		None
 11844 ;; Return value:  Size  Location     Type
 11845 ;;                  2    0[COMRAM] int 
 11846 ;; Registers used:
 11847 ;;		wreg, fsr1l, fsr1h, fsr2l, fsr2h, status,2, status,0, cstack
 11848 ;; Tracked objects:
 11849 ;;		On entry : 0/0
 11850 ;;		On exit  : 0/0
 11851 ;;		Unchanged: 0/0
 11852 ;; Data sizes:     COMRAM   BANK0   BANK1   BANK2   BANK3   BANK4   BANK5   BANK6   BANK7   BANK8   BANK9  BANK10  BANK1
      +1  BANK12  BANK13  BANK14  BANK15
 11853 ;;      Params:         3       0       0       0       0       0       0       0       0       0       0       0       
      +0       0       0       0       0
 11854 ;;      Locals:         0       0       0       0       0       0       0       0       0       0       0       0       
      +0       0       0       0       0
 11855 ;;      Temps:          5       0       0       0       0       0       0       0       0       0       0       0       
      +0       0       0       0       0
 11856 ;;      Totals:         8       0       0       0       0       0       0       0       0       0       0       0       
      +0       0       0       0       0
 11857 ;;Total ram usage:        8 bytes
 11858 ;; Hardware stack levels used: 1
 11859 ;; Hardware stack levels required when called: 1
 11860 ;; This function calls:
 11861 ;;		_putch
 11862 ;; This function is called by:
 11863 ;;		_vfpfcnvrt
 11864 ;; This function uses a non-reentrant model
 11865 ;;
 11866                           
 11867                           	psect	text65
 11868   003CBE                     __ptext65:
 11869                           	callstack 0
 11870   003CBE                     _fputc:
 11871                           	callstack 16
 11872   003CBE  5003               	movf	fputc@fp^0,w,c
 11873   003CC0  B4D8               	btfsc	status,2,c
 11874   003CC2  EF65  F01E         	goto	i2u408_41
 11875   003CC6  EF67  F01E         	goto	i2u408_40
 11876   003CCA                     i2u408_41:
 11877   003CCA  EF6F  F01E         	goto	i2l4977
 11878   003CCE                     i2u408_40:
 11879   003CCE  5003               	movf	fputc@fp^0,w,c
 11880   003CD0  A4D8               	btfss	status,2,c
 11881   003CD2  EF6D  F01E         	goto	i2u409_41
 11882   003CD6  EF6F  F01E         	goto	i2u409_40
 11883   003CDA                     i2u409_41:
 11884   003CDA  EF74  F01E         	goto	i2l4979
 11885   003CDE                     i2u409_40:
 11886   003CDE                     i2l4977:
 11887   003CDE  5001               	movf	fputc@c^0,w,c
 11888   003CE0  ECBE  F025         	call	_putch
 11889   003CE4  EFBB  F01E         	goto	i2l1860
 11890   003CE8                     i2l4979:
 11891   003CE8  5003               	movf	fputc@fp^0,w,c
 11892   003CEA  6ED9               	movwf	fsr2l,c
 11893   003CEC  6ADA               	clrf	fsr2h,c
 11894   003CEE  0E0A               	movlw	10
 11895   003CF0  26D9               	addwf	fsr2l,f,c
 11896   003CF2  50DE               	movf	postinc2,w,c
 11897   003CF4  10DE               	iorwf	postinc2,w,c
 11898   003CF6  B4D8               	btfsc	status,2,c
 11899   003CF8  EF80  F01E         	goto	i2u410_41
 11900   003CFC  EF82  F01E         	goto	i2u410_40
 11901   003D00                     i2u410_41:
 11902   003D00  EF9B  F01E         	goto	i2l4983
 11903   003D04                     i2u410_40:
 11904   003D04  5003               	movf	fputc@fp^0,w,c
 11905   003D06  6ED9               	movwf	fsr2l,c
 11906   003D08  6ADA               	clrf	fsr2h,c
 11907   003D0A  0E0A               	movlw	10
 11908   003D0C  26D9               	addwf	fsr2l,f,c
 11909   003D0E  5003               	movf	fputc@fp^0,w,c
 11910   003D10  6EE1               	movwf	fsr1l,c
 11911   003D12  6AE2               	clrf	fsr1h,c
 11912   003D14  0E03               	movlw	3
 11913   003D16  26E1               	addwf	fsr1l,f,c
 11914   003D18  50DE               	movf	postinc2,w,c
 11915   003D1A  5CE6               	subwf	postinc1,w,c
 11916   003D1C  50E6               	movf	postinc1,w,c
 11917   003D1E  0A80               	xorlw	128
 11918   003D20  6E08               	movwf	(??_fputc+4)^0,c
 11919   003D22  50DE               	movf	postinc2,w,c
 11920   003D24  0A80               	xorlw	128
 11921   003D26  5808               	subwfb	(??_fputc+4)^0,w,c
 11922   003D28  B0D8               	btfsc	status,0,c
 11923   003D2A  EF99  F01E         	goto	i2u411_41
 11924   003D2E  EF9B  F01E         	goto	i2u411_40
 11925   003D32                     i2u411_41:
 11926   003D32  EFBB  F01E         	goto	i2l1860
 11927   003D36                     i2u411_40:
 11928   003D36                     i2l4983:
 11929   003D36  5003               	movf	fputc@fp^0,w,c
 11930   003D38  6ED9               	movwf	fsr2l,c
 11931   003D3A  6ADA               	clrf	fsr2h,c
 11932   003D3C  0E03               	movlw	3
 11933   003D3E  26D9               	addwf	fsr2l,f,c
 11934   003D40  CFDE F004          	movff	postinc2,??_fputc
 11935   003D44  CFDD F005          	movff	postdec2,??_fputc+1
 11936   003D48  5003               	movf	fputc@fp^0,w,c
 11937   003D4A  6ED9               	movwf	fsr2l,c
 11938   003D4C  6ADA               	clrf	fsr2h,c
 11939   003D4E  CFDE F006          	movff	postinc2,??_fputc+2
 11940   003D52  CFDD F007          	movff	postdec2,??_fputc+3
 11941   003D56  5004               	movf	??_fputc^0,w,c
 11942   003D58  2406               	addwf	(??_fputc+2)^0,w,c
 11943   003D5A  6ED9               	movwf	fsr2l,c
 11944   003D5C  5005               	movf	(??_fputc+1)^0,w,c
 11945   003D5E  2007               	addwfc	(??_fputc+3)^0,w,c
 11946   003D60  6EDA               	movwf	fsr2h,c
 11947   003D62  C001  FFDF         	movff	fputc@c,indf2
 11948   003D66  5003               	movf	fputc@fp^0,w,c
 11949   003D68  6ED9               	movwf	fsr2l,c
 11950   003D6A  6ADA               	clrf	fsr2h,c
 11951   003D6C  0E03               	movlw	3
 11952   003D6E  26D9               	addwf	fsr2l,f,c
 11953   003D70  2ADE               	incf	postinc2,f,c
 11954   003D72  0E00               	movlw	0
 11955   003D74  22DD               	addwfc	postdec2,f,c
 11956   003D76                     i2l1860:
 11957   003D76  0012               	return		;funcret
 11958   003D78                     __end_of_fputc:
 11959                           	callstack 0
 11960                           
 11961 ;; *************** function _putch *****************
 11962 ;; Defined at:
 11963 ;;		line 7 in file "D:\Program Files\Microchip\xc8\v2.45\pic\sources\c99\common\putch.c"
 11964 ;; Parameters:    Size  Location     Type
 11965 ;;  c               1    wreg     unsigned char 
 11966 ;; Auto vars:     Size  Location     Type
 11967 ;;  c               1    0[COMRAM] unsigned char 
 11968 ;; Return value:  Size  Location     Type
 11969 ;;                  1    wreg      void 
 11970 ;; Registers used:
 11971 ;;		wreg
 11972 ;; Tracked objects:
 11973 ;;		On entry : 0/0
 11974 ;;		On exit  : 0/0
 11975 ;;		Unchanged: 0/0
 11976 ;; Data sizes:     COMRAM   BANK0   BANK1   BANK2   BANK3   BANK4   BANK5   BANK6   BANK7   BANK8   BANK9  BANK10  BANK1
      +1  BANK12  BANK13  BANK14  BANK15
 11977 ;;      Params:         0       0       0       0       0       0       0       0       0       0       0       0       
      +0       0       0       0       0
 11978 ;;      Locals:         0       0       0       0       0       0       0       0       0       0       0       0       
      +0       0       0       0       0
 11979 ;;      Temps:          0       0       0       0       0       0       0       0       0       0       0       0       
      +0       0       0       0       0
 11980 ;;      Totals:         0       0       0       0       0       0       0       0       0       0       0       0       
      +0       0       0       0       0
 11981 ;;Total ram usage:        0 bytes
 11982 ;; Hardware stack levels used: 1
 11983 ;; This function calls:
 11984 ;;		Nothing
 11985 ;; This function is called by:
 11986 ;;		_fputc
 11987 ;; This function uses a non-reentrant model
 11988 ;;
 11989                           
 11990                           	psect	text66
 11991   004B7C                     __ptext66:
 11992                           	callstack 0
 11993   004B7C                     _putch:
 11994                           	callstack 16
 11995   004B7C  0012               	return		;funcret
 11996   004B7E                     __end_of_putch:
 11997                           	callstack 0
 11998                           
 11999 ;; *************** function _abs *****************
 12000 ;; Defined at:
 12001 ;;		line 1 in file "D:\Program Files\Microchip\xc8\v2.45\pic\sources\c99\common\abs.c"
 12002 ;; Parameters:    Size  Location     Type
 12003 ;;  a               2    6[COMRAM] int 
 12004 ;; Auto vars:     Size  Location     Type
 12005 ;;		None
 12006 ;; Return value:  Size  Location     Type
 12007 ;;                  2    6[COMRAM] int 
 12008 ;; Registers used:
 12009 ;;		wreg, status,2, status,0
 12010 ;; Tracked objects:
 12011 ;;		On entry : 0/0
 12012 ;;		On exit  : 0/0
 12013 ;;		Unchanged: 0/0
 12014 ;; Data sizes:     COMRAM   BANK0   BANK1   BANK2   BANK3   BANK4   BANK5   BANK6   BANK7   BANK8   BANK9  BANK10  BANK1
      +1  BANK12  BANK13  BANK14  BANK15
 12015 ;;      Params:         2       0       0       0       0       0       0       0       0       0       0       0       
      +0       0       0       0       0
 12016 ;;      Locals:         0       0       0       0       0       0       0       0       0       0       0       0       
      +0       0       0       0       0
 12017 ;;      Temps:          2       0       0       0       0       0       0       0       0       0       0       0       
      +0       0       0       0       0
 12018 ;;      Totals:         4       0       0       0       0       0       0       0       0       0       0       0       
      +0       0       0       0       0
 12019 ;;Total ram usage:        4 bytes
 12020 ;; Hardware stack levels used: 1
 12021 ;; This function calls:
 12022 ;;		Nothing
 12023 ;; This function is called by:
 12024 ;;		_vfpfcnvrt
 12025 ;; This function uses a non-reentrant model
 12026 ;;
 12027                           
 12028                           	psect	text67
 12029   004A2E                     __ptext67:
 12030                           	callstack 0
 12031   004A2E                     _abs:
 12032                           	callstack 17
 12033   004A2E  BE08               	btfsc	(abs@a+1)^0,7,c
 12034   004A30  EF1C  F025         	goto	i2u412_41
 12035   004A34  EF1E  F025         	goto	i2u412_40
 12036   004A38                     i2u412_41:
 12037   004A38  EF24  F025         	goto	i2l1845
 12038   004A3C                     i2u412_40:
 12039   004A3C  C007  F007         	movff	abs@a,?_abs
 12040   004A40  C008  F008         	movff	abs@a+1,?_abs+1
 12041   004A44  EF30  F025         	goto	i2l1848
 12042   004A48                     i2l1845:
 12043   004A48  C007  F009         	movff	abs@a,??_abs
 12044   004A4C  C008  F00A         	movff	abs@a+1,??_abs+1
 12045   004A50  1E09               	comf	??_abs^0,f,c
 12046   004A52  1E0A               	comf	(??_abs+1)^0,f,c
 12047   004A54  4A09               	infsnz	??_abs^0,f,c
 12048   004A56  2A0A               	incf	(??_abs+1)^0,f,c
 12049   004A58  C009  F007         	movff	??_abs,?_abs
 12050   004A5C  C00A  F008         	movff	??_abs+1,?_abs+1
 12051   004A60                     i2l1848:
 12052   004A60  0012               	return		;funcret
 12053   004A62                     __end_of_abs:
 12054                           	callstack 0
 12055                           
 12056 ;; *************** function ___awmod *****************
 12057 ;; Defined at:
 12058 ;;		line 7 in file "D:\Program Files\Microchip\xc8\v2.45\pic\sources\c99\common\awmod.c"
 12059 ;; Parameters:    Size  Location     Type
 12060 ;;  dividend        2    0[COMRAM] int 
 12061 ;;  divisor         2    2[COMRAM] int 
 12062 ;; Auto vars:     Size  Location     Type
 12063 ;;  sign            1    5[COMRAM] unsigned char 
 12064 ;;  counter         1    4[COMRAM] unsigned char 
 12065 ;; Return value:  Size  Location     Type
 12066 ;;                  2    0[COMRAM] int 
 12067 ;; Registers used:
 12068 ;;		wreg, status,2, status,0
 12069 ;; Tracked objects:
 12070 ;;		On entry : 0/0
 12071 ;;		On exit  : 0/0
 12072 ;;		Unchanged: 0/0
 12073 ;; Data sizes:     COMRAM   BANK0   BANK1   BANK2   BANK3   BANK4   BANK5   BANK6   BANK7   BANK8   BANK9  BANK10  BANK1
      +1  BANK12  BANK13  BANK14  BANK15
 12074 ;;      Params:         4       0       0       0       0       0       0       0       0       0       0       0       
      +0       0       0       0       0
 12075 ;;      Locals:         2       0       0       0       0       0       0       0       0       0       0       0       
      +0       0       0       0       0
 12076 ;;      Temps:          0       0       0       0       0       0       0       0       0       0       0       0       
      +0       0       0       0       0
 12077 ;;      Totals:         6       0       0       0       0       0       0       0       0       0       0       0       
      +0       0       0       0       0
 12078 ;;Total ram usage:        6 bytes
 12079 ;; Hardware stack levels used: 1
 12080 ;; This function calls:
 12081 ;;		Nothing
 12082 ;; This function is called by:
 12083 ;;		_vfpfcnvrt
 12084 ;; This function uses a non-reentrant model
 12085 ;;
 12086                           
 12087                           	psect	text68
 12088   003D78                     __ptext68:
 12089                           	callstack 0
 12090   003D78                     ___awmod:
 12091                           	callstack 17
 12092   003D78  0E00               	movlw	0
 12093   003D7A  6E06               	movwf	___awmod@sign^0,c
 12094   003D7C  BE02               	btfsc	(___awmod@dividend+1)^0,7,c
 12095   003D7E  EFC5  F01E         	goto	i2u402_40
 12096   003D82  EFC3  F01E         	goto	i2u402_41
 12097   003D86                     i2u402_41:
 12098   003D86  EFCB  F01E         	goto	i2l4945
 12099   003D8A                     i2u402_40:
 12100   003D8A  6C01               	negf	___awmod@dividend^0,c
 12101   003D8C  1E02               	comf	(___awmod@dividend+1)^0,f,c
 12102   003D8E  B0D8               	btfsc	status,0,c
 12103   003D90  2A02               	incf	(___awmod@dividend+1)^0,f,c
 12104   003D92  0E01               	movlw	1
 12105   003D94  6E06               	movwf	___awmod@sign^0,c
 12106   003D96                     i2l4945:
 12107   003D96  BE04               	btfsc	(___awmod@divisor+1)^0,7,c
 12108   003D98  EFD2  F01E         	goto	i2u403_40
 12109   003D9C  EFD0  F01E         	goto	i2u403_41
 12110   003DA0                     i2u403_41:
 12111   003DA0  EFD6  F01E         	goto	i2l4949
 12112   003DA4                     i2u403_40:
 12113   003DA4  6C03               	negf	___awmod@divisor^0,c
 12114   003DA6  1E04               	comf	(___awmod@divisor+1)^0,f,c
 12115   003DA8  B0D8               	btfsc	status,0,c
 12116   003DAA  2A04               	incf	(___awmod@divisor+1)^0,f,c
 12117   003DAC                     i2l4949:
 12118   003DAC  5003               	movf	___awmod@divisor^0,w,c
 12119   003DAE  1004               	iorwf	(___awmod@divisor+1)^0,w,c
 12120   003DB0  B4D8               	btfsc	status,2,c
 12121   003DB2  EFDD  F01E         	goto	i2u404_41
 12122   003DB6  EFDF  F01E         	goto	i2u404_40
 12123   003DBA                     i2u404_41:
 12124   003DBA  EF03  F01F         	goto	i2l4965
 12125   003DBE                     i2u404_40:
 12126   003DBE  0E01               	movlw	1
 12127   003DC0  6E05               	movwf	___awmod@counter^0,c
 12128   003DC2  EFE7  F01E         	goto	i2l4955
 12129   003DC6                     i2l4953:
 12130   003DC6  90D8               	bcf	status,0,c
 12131   003DC8  3603               	rlcf	___awmod@divisor^0,f,c
 12132   003DCA  3604               	rlcf	(___awmod@divisor+1)^0,f,c
 12133   003DCC  2A05               	incf	___awmod@counter^0,f,c
 12134   003DCE                     i2l4955:
 12135   003DCE  AE04               	btfss	(___awmod@divisor+1)^0,7,c
 12136   003DD0  EFEC  F01E         	goto	i2u405_41
 12137   003DD4  EFEE  F01E         	goto	i2u405_40
 12138   003DD8                     i2u405_41:
 12139   003DD8  EFE3  F01E         	goto	i2l4953
 12140   003DDC                     i2u405_40:
 12141   003DDC                     i2l4957:
 12142   003DDC  5003               	movf	___awmod@divisor^0,w,c
 12143   003DDE  5C01               	subwf	___awmod@dividend^0,w,c
 12144   003DE0  5004               	movf	(___awmod@divisor+1)^0,w,c
 12145   003DE2  5802               	subwfb	(___awmod@dividend+1)^0,w,c
 12146   003DE4  A0D8               	btfss	status,0,c
 12147   003DE6  EFF7  F01E         	goto	i2u406_41
 12148   003DEA  EFF9  F01E         	goto	i2u406_40
 12149   003DEE                     i2u406_41:
 12150   003DEE  EFFD  F01E         	goto	i2l4961
 12151   003DF2                     i2u406_40:
 12152   003DF2  5003               	movf	___awmod@divisor^0,w,c
 12153   003DF4  5E01               	subwf	___awmod@dividend^0,f,c
 12154   003DF6  5004               	movf	(___awmod@divisor+1)^0,w,c
 12155   003DF8  5A02               	subwfb	(___awmod@dividend+1)^0,f,c
 12156   003DFA                     i2l4961:
 12157   003DFA  90D8               	bcf	status,0,c
 12158   003DFC  3204               	rrcf	(___awmod@divisor+1)^0,f,c
 12159   003DFE  3203               	rrcf	___awmod@divisor^0,f,c
 12160   003E00  2E05               	decfsz	___awmod@counter^0,f,c
 12161   003E02  EFEE  F01E         	goto	i2l4957
 12162   003E06                     i2l4965:
 12163   003E06  5006               	movf	___awmod@sign^0,w,c
 12164   003E08  B4D8               	btfsc	status,2,c
 12165   003E0A  EF09  F01F         	goto	i2u407_41
 12166   003E0E  EF0B  F01F         	goto	i2u407_40
 12167   003E12                     i2u407_41:
 12168   003E12  EF0F  F01F         	goto	i2l4969
 12169   003E16                     i2u407_40:
 12170   003E16  6C01               	negf	___awmod@dividend^0,c
 12171   003E18  1E02               	comf	(___awmod@dividend+1)^0,f,c
 12172   003E1A  B0D8               	btfsc	status,0,c
 12173   003E1C  2A02               	incf	(___awmod@dividend+1)^0,f,c
 12174   003E1E                     i2l4969:
 12175   003E1E  C001  F001         	movff	___awmod@dividend,?___awmod
 12176   003E22  C002  F002         	movff	___awmod@dividend+1,?___awmod+1
 12177   003E26  0012               	return		;funcret
 12178   003E28                     __end_of___awmod:
 12179                           	callstack 0
 12180                           
 12181 ;; *************** function ___awdiv *****************
 12182 ;; Defined at:
 12183 ;;		line 7 in file "D:\Program Files\Microchip\xc8\v2.45\pic\sources\c99\common\awdiv.c"
 12184 ;; Parameters:    Size  Location     Type
 12185 ;;  dividend        2    0[COMRAM] int 
 12186 ;;  divisor         2    2[COMRAM] int 
 12187 ;; Auto vars:     Size  Location     Type
 12188 ;;  quotient        2    6[COMRAM] int 
 12189 ;;  sign            1    5[COMRAM] unsigned char 
 12190 ;;  counter         1    4[COMRAM] unsigned char 
 12191 ;; Return value:  Size  Location     Type
 12192 ;;                  2    0[COMRAM] int 
 12193 ;; Registers used:
 12194 ;;		wreg, status,2, status,0
 12195 ;; Tracked objects:
 12196 ;;		On entry : 0/0
 12197 ;;		On exit  : 0/0
 12198 ;;		Unchanged: 0/0
 12199 ;; Data sizes:     COMRAM   BANK0   BANK1   BANK2   BANK3   BANK4   BANK5   BANK6   BANK7   BANK8   BANK9  BANK10  BANK1
      +1  BANK12  BANK13  BANK14  BANK15
 12200 ;;      Params:         4       0       0       0       0       0       0       0       0       0       0       0       
      +0       0       0       0       0
 12201 ;;      Locals:         4       0       0       0       0       0       0       0       0       0       0       0       
      +0       0       0       0       0
 12202 ;;      Temps:          0       0       0       0       0       0       0       0       0       0       0       0       
      +0       0       0       0       0
 12203 ;;      Totals:         8       0       0       0       0       0       0       0       0       0       0       0       
      +0       0       0       0       0
 12204 ;;Total ram usage:        8 bytes
 12205 ;; Hardware stack levels used: 1
 12206 ;; This function calls:
 12207 ;;		Nothing
 12208 ;; This function is called by:
 12209 ;;		_vfpfcnvrt
 12210 ;; This function uses a non-reentrant model
 12211 ;;
 12212                           
 12213                           	psect	text69
 12214   003BFA                     __ptext69:
 12215                           	callstack 0
 12216   003BFA                     ___awdiv:
 12217                           	callstack 17
 12218   003BFA  0E00               	movlw	0
 12219   003BFC  6E06               	movwf	___awdiv@sign^0,c
 12220   003BFE  BE04               	btfsc	(___awdiv@divisor+1)^0,7,c
 12221   003C00  EF06  F01E         	goto	i2u396_40
 12222   003C04  EF04  F01E         	goto	i2u396_41
 12223   003C08                     i2u396_41:
 12224   003C08  EF0C  F01E         	goto	i2l4901
 12225   003C0C                     i2u396_40:
 12226   003C0C  6C03               	negf	___awdiv@divisor^0,c
 12227   003C0E  1E04               	comf	(___awdiv@divisor+1)^0,f,c
 12228   003C10  B0D8               	btfsc	status,0,c
 12229   003C12  2A04               	incf	(___awdiv@divisor+1)^0,f,c
 12230   003C14  0E01               	movlw	1
 12231   003C16  6E06               	movwf	___awdiv@sign^0,c
 12232   003C18                     i2l4901:
 12233   003C18  BE02               	btfsc	(___awdiv@dividend+1)^0,7,c
 12234   003C1A  EF13  F01E         	goto	i2u397_40
 12235   003C1E  EF11  F01E         	goto	i2u397_41
 12236   003C22                     i2u397_41:
 12237   003C22  EF19  F01E         	goto	i2l4907
 12238   003C26                     i2u397_40:
 12239   003C26  6C01               	negf	___awdiv@dividend^0,c
 12240   003C28  1E02               	comf	(___awdiv@dividend+1)^0,f,c
 12241   003C2A  B0D8               	btfsc	status,0,c
 12242   003C2C  2A02               	incf	(___awdiv@dividend+1)^0,f,c
 12243   003C2E  0E01               	movlw	1
 12244   003C30  1A06               	xorwf	___awdiv@sign^0,f,c
 12245   003C32                     i2l4907:
 12246   003C32  0E00               	movlw	0
 12247   003C34  6E08               	movwf	(___awdiv@quotient+1)^0,c
 12248   003C36  0E00               	movlw	0
 12249   003C38  6E07               	movwf	___awdiv@quotient^0,c
 12250   003C3A  5003               	movf	___awdiv@divisor^0,w,c
 12251   003C3C  1004               	iorwf	(___awdiv@divisor+1)^0,w,c
 12252   003C3E  B4D8               	btfsc	status,2,c
 12253   003C40  EF24  F01E         	goto	i2u398_41
 12254   003C44  EF26  F01E         	goto	i2u398_40
 12255   003C48                     i2u398_41:
 12256   003C48  EF4E  F01E         	goto	i2l4929
 12257   003C4C                     i2u398_40:
 12258   003C4C  0E01               	movlw	1
 12259   003C4E  6E05               	movwf	___awdiv@counter^0,c
 12260   003C50  EF2E  F01E         	goto	i2l4915
 12261   003C54                     i2l4913:
 12262   003C54  90D8               	bcf	status,0,c
 12263   003C56  3603               	rlcf	___awdiv@divisor^0,f,c
 12264   003C58  3604               	rlcf	(___awdiv@divisor+1)^0,f,c
 12265   003C5A  2A05               	incf	___awdiv@counter^0,f,c
 12266   003C5C                     i2l4915:
 12267   003C5C  AE04               	btfss	(___awdiv@divisor+1)^0,7,c
 12268   003C5E  EF33  F01E         	goto	i2u399_41
 12269   003C62  EF35  F01E         	goto	i2u399_40
 12270   003C66                     i2u399_41:
 12271   003C66  EF2A  F01E         	goto	i2l4913
 12272   003C6A                     i2u399_40:
 12273   003C6A                     i2l4917:
 12274   003C6A  90D8               	bcf	status,0,c
 12275   003C6C  3607               	rlcf	___awdiv@quotient^0,f,c
 12276   003C6E  3608               	rlcf	(___awdiv@quotient+1)^0,f,c
 12277   003C70  5003               	movf	___awdiv@divisor^0,w,c
 12278   003C72  5C01               	subwf	___awdiv@dividend^0,w,c
 12279   003C74  5004               	movf	(___awdiv@divisor+1)^0,w,c
 12280   003C76  5802               	subwfb	(___awdiv@dividend+1)^0,w,c
 12281   003C78  A0D8               	btfss	status,0,c
 12282   003C7A  EF41  F01E         	goto	i2u400_41
 12283   003C7E  EF43  F01E         	goto	i2u400_40
 12284   003C82                     i2u400_41:
 12285   003C82  EF48  F01E         	goto	i2l4925
 12286   003C86                     i2u400_40:
 12287   003C86  5003               	movf	___awdiv@divisor^0,w,c
 12288   003C88  5E01               	subwf	___awdiv@dividend^0,f,c
 12289   003C8A  5004               	movf	(___awdiv@divisor+1)^0,w,c
 12290   003C8C  5A02               	subwfb	(___awdiv@dividend+1)^0,f,c
 12291   003C8E  8007               	bsf	___awdiv@quotient^0,0,c
 12292   003C90                     i2l4925:
 12293   003C90  90D8               	bcf	status,0,c
 12294   003C92  3204               	rrcf	(___awdiv@divisor+1)^0,f,c
 12295   003C94  3203               	rrcf	___awdiv@divisor^0,f,c
 12296   003C96  2E05               	decfsz	___awdiv@counter^0,f,c
 12297   003C98  EF35  F01E         	goto	i2l4917
 12298   003C9C                     i2l4929:
 12299   003C9C  5006               	movf	___awdiv@sign^0,w,c
 12300   003C9E  B4D8               	btfsc	status,2,c
 12301   003CA0  EF54  F01E         	goto	i2u401_41
 12302   003CA4  EF56  F01E         	goto	i2u401_40
 12303   003CA8                     i2u401_41:
 12304   003CA8  EF5A  F01E         	goto	i2l4933
 12305   003CAC                     i2u401_40:
 12306   003CAC  6C07               	negf	___awdiv@quotient^0,c
 12307   003CAE  1E08               	comf	(___awdiv@quotient+1)^0,f,c
 12308   003CB0  B0D8               	btfsc	status,0,c
 12309   003CB2  2A08               	incf	(___awdiv@quotient+1)^0,f,c
 12310   003CB4                     i2l4933:
 12311   003CB4  C007  F001         	movff	___awdiv@quotient,?___awdiv
 12312   003CB8  C008  F002         	movff	___awdiv@quotient+1,?___awdiv+1
 12313   003CBC  0012               	return		;funcret
 12314   003CBE                     __end_of___awdiv:
 12315                           	callstack 0
 12316                           
 12317 ;; *************** function _memset *****************
 12318 ;; Defined at:
 12319 ;;		line 3 in file "D:\Program Files\Microchip\xc8\v2.45\pic\sources\c99\common\memset.c"
 12320 ;; Parameters:    Size  Location     Type
 12321 ;;  dest            2    0[COMRAM] PTR void 
 12322 ;;		 -> temp_display(8), 
 12323 ;;  c               2    2[COMRAM] int 
 12324 ;;  n               2    4[COMRAM] unsigned int 
 12325 ;; Auto vars:     Size  Location     Type
 12326 ;;  p               2    6[COMRAM] PTR unsigned char 
 12327 ;;		 -> temp_display(8), 
 12328 ;; Return value:  Size  Location     Type
 12329 ;;                  2    0[COMRAM] PTR void 
 12330 ;; Registers used:
 12331 ;;		wreg, fsr2l, fsr2h, status,2, status,0
 12332 ;; Tracked objects:
 12333 ;;		On entry : 0/0
 12334 ;;		On exit  : 0/0
 12335 ;;		Unchanged: 0/0
 12336 ;; Data sizes:     COMRAM   BANK0   BANK1   BANK2   BANK3   BANK4   BANK5   BANK6   BANK7   BANK8   BANK9  BANK10  BANK1
      +1  BANK12  BANK13  BANK14  BANK15
 12337 ;;      Params:         6       0       0       0       0       0       0       0       0       0       0       0       
      +0       0       0       0       0
 12338 ;;      Locals:         2       0       0       0       0       0       0       0       0       0       0       0       
      +0       0       0       0       0
 12339 ;;      Temps:          0       0       0       0       0       0       0       0       0       0       0       0       
      +0       0       0       0       0
 12340 ;;      Totals:         8       0       0       0       0       0       0       0       0       0       0       0       
      +0       0       0       0       0
 12341 ;;Total ram usage:        8 bytes
 12342 ;; Hardware stack levels used: 1
 12343 ;; This function calls:
 12344 ;;		Nothing
 12345 ;; This function is called by:
 12346 ;;		_convert_byte_to_string
 12347 ;;		_convert_short_to_string
 12348 ;;		_convert_int_to_string
 12349 ;; This function uses a non-reentrant model
 12350 ;;
 12351                           
 12352                           	psect	text70
 12353   0049C0                     __ptext70:
 12354                           	callstack 0
 12355   0049C0                     _memset:
 12356                           	callstack 20
 12357   0049C0  C001  F007         	movff	memset@dest,memset@p
 12358   0049C4  C002  F008         	movff	memset@dest+1,memset@p+1
 12359   0049C8  EFEE  F024         	goto	i2l7639
 12360   0049CC                     i2l7635:
 12361   0049CC  C007  FFD9         	movff	memset@p,fsr2l
 12362   0049D0  C008  FFDA         	movff	memset@p+1,fsr2h
 12363   0049D4  C003  FFDF         	movff	memset@c,indf2
 12364   0049D8  4A07               	infsnz	memset@p^0,f,c
 12365   0049DA  2A08               	incf	(memset@p+1)^0,f,c
 12366   0049DC                     i2l7639:
 12367   0049DC  0605               	decf	memset@n^0,f,c
 12368   0049DE  A0D8               	btfss	status,0,c
 12369   0049E0  0606               	decf	(memset@n+1)^0,f,c
 12370   0049E2  2805               	incf	memset@n^0,w,c
 12371   0049E4  E106               	bnz	i2u741_41
 12372   0049E6  2806               	incf	(memset@n+1)^0,w,c
 12373   0049E8  A4D8               	btfss	status,2,c
 12374   0049EA  EFF9  F024         	goto	i2u741_41
 12375   0049EE  EFFB  F024         	goto	i2u741_40
 12376   0049F2                     i2u741_41:
 12377   0049F2  EFE6  F024         	goto	i2l7635
 12378   0049F6                     i2u741_40:
 12379   0049F6  0012               	return		;funcret
 12380   0049F8                     __end_of_memset:
 12381                           	callstack 0
 12382                           
 12383                           	psect	text71
 12384   000000                     __ptext71:
 12385                           	callstack 0
 12386   000000                     
 12387                           	psect	rparam
 12388   000000                     
 12389                           	psect	temp
 12390   000072                     btemp:
 12391                           	callstack 0
 12392   000072                     	ds	1
 12393   000000                     int$flags	set	btemp
 12394   000000                     wtemp8	set	btemp+1
 12395   000000                     ttemp5	set	btemp+1
 12396   000000                     ttemp6	set	btemp+4
 12397   000000                     ttemp7	set	btemp+8
 12398                           
 12399                           	psect	config
 12400                           
 12401                           ; Padding undefined space
 12402   300000                     	org	3145728
 12403   300000  FF                 	db	255
 12404                           
 12405                           ;Config register CONFIG1H @ 0x300001
 12406                           ;	Oscillator Selection bits
 12407                           ;	OSC = HS, HS oscillator
 12408                           ;	Fail-Safe Clock Monitor Enable bit
 12409                           ;	FCMEN = OFF, Fail-Safe Clock Monitor disabled
 12410                           ;	Internal/External Oscillator Switchover bit
 12411                           ;	IESO = OFF, Oscillator Switchover mode disabled
 12412   300001                     	org	3145729
 12413   300001  02                 	db	2
 12414                           
 12415                           ;Config register CONFIG2L @ 0x300002
 12416                           ;	Power-up Timer Enable bit
 12417                           ;	PWRT = OFF, PWRT disabled
 12418                           ;	Brown-out Reset Enable bits
 12419                           ;	BOREN = OFF, Brown-out Reset disabled in hardware and software
 12420                           ;	Brown Out Reset Voltage bits
 12421                           ;	BORV = 1, 
 12422   300002                     	org	3145730
 12423   300002  09                 	db	9
 12424                           
 12425                           ;Config register CONFIG2H @ 0x300003
 12426                           ;	Watchdog Timer Enable bit
 12427                           ;	WDT = OFF, WDT disabled (control is placed on the SWDTEN bit)
 12428                           ;	Watchdog Timer Postscale Select bits
 12429                           ;	WDTPS = 32768, 1:32768
 12430   300003                     	org	3145731
 12431   300003  1E                 	db	30
 12432                           
 12433                           ; Padding undefined space
 12434   300004                     	org	3145732
 12435   300004  FF                 	db	255
 12436                           
 12437                           ;Config register CONFIG3H @ 0x300005
 12438                           ;	CCP2 MUX bit
 12439                           ;	CCP2MX = PORTC, CCP2 input/output is multiplexed with RC1
 12440                           ;	PORTB A/D Enable bit
 12441                           ;	PBADEN = OFF, PORTB<4:0> pins are configured as digital I/O on Reset
 12442                           ;	Low-Power Timer1 Oscillator Enable bit
 12443                           ;	LPT1OSC = OFF, Timer1 configured for higher power operation
 12444                           ;	MCLR Pin Enable bit
 12445                           ;	MCLRE = ON, MCLR pin enabled; RE3 input pin disabled
 12446   300005                     	org	3145733
 12447   300005  81                 	db	129
 12448                           
 12449                           ;Config register CONFIG4L @ 0x300006
 12450                           ;	Stack Full/Underflow Reset Enable bit
 12451                           ;	STVREN = ON, Stack full/underflow will cause Reset
 12452                           ;	Single-Supply ICSP Enable bit
 12453                           ;	LVP = OFF, Single-Supply ICSP disabled
 12454                           ;	Extended Instruction Set Enable bit
 12455                           ;	XINST = OFF, Instruction set extension and Indexed Addressing mode disabled (Legacy mo
      +                          de)
 12456                           ;	Background Debugger Enable bit
 12457                           ;	DEBUG = 0x1, unprogrammed default
 12458   300006                     	org	3145734
 12459   300006  81                 	db	129
 12460                           
 12461                           ; Padding undefined space
 12462   300007                     	org	3145735
 12463   300007  FF                 	db	255
 12464                           
 12465                           ;Config register CONFIG5L @ 0x300008
 12466                           ;	Code Protection bit
 12467                           ;	CP0 = OFF, Block 0 (000800-003FFFh) not code-protected
 12468                           ;	Code Protection bit
 12469                           ;	CP1 = OFF, Block 1 (004000-007FFFh) not code-protected
 12470                           ;	Code Protection bit
 12471                           ;	CP2 = OFF, Block 2 (008000-00BFFFh) not code-protected
 12472                           ;	Code Protection bit
 12473                           ;	CP3 = OFF, Block 3 (00C000-00FFFFh) not code-protected
 12474   300008                     	org	3145736
 12475   300008  0F                 	db	15
 12476                           
 12477                           ;Config register CONFIG5H @ 0x300009
 12478                           ;	Boot Block Code Protection bit
 12479                           ;	CPB = OFF, Boot block (000000-0007FFh) not code-protected
 12480                           ;	Data EEPROM Code Protection bit
 12481                           ;	CPD = OFF, Data EEPROM not code-protected
 12482   300009                     	org	3145737
 12483   300009  C0                 	db	192
 12484                           
 12485                           ;Config register CONFIG6L @ 0x30000A
 12486                           ;	Write Protection bit
 12487                           ;	WRT0 = OFF, Block 0 (000800-003FFFh) not write-protected
 12488                           ;	Write Protection bit
 12489                           ;	WRT1 = OFF, Block 1 (004000-007FFFh) not write-protected
 12490                           ;	Write Protection bit
 12491                           ;	WRT2 = OFF, Block 2 (008000-00BFFFh) not write-protected
 12492                           ;	Write Protection bit
 12493                           ;	WRT3 = OFF, Block 3 (00C000-00FFFFh) not write-protected
 12494   30000A                     	org	3145738
 12495   30000A  0F                 	db	15
 12496                           
 12497                           ;Config register CONFIG6H @ 0x30000B
 12498                           ;	Configuration Register Write Protection bit
 12499                           ;	WRTC = OFF, Configuration registers (300000-3000FFh) not write-protected
 12500                           ;	Boot Block Write Protection bit
 12501                           ;	WRTB = OFF, Boot Block (000000-0007FFh) not write-protected
 12502                           ;	Data EEPROM Write Protection bit
 12503                           ;	WRTD = OFF, Data EEPROM not write-protected
 12504   30000B                     	org	3145739
 12505   30000B  E0                 	db	224
 12506                           
 12507                           ;Config register CONFIG7L @ 0x30000C
 12508                           ;	Table Read Protection bit
 12509                           ;	EBTR0 = OFF, Block 0 (000800-003FFFh) not protected from table reads executed in other
      +                           blocks
 12510                           ;	Table Read Protection bit
 12511                           ;	EBTR1 = OFF, Block 1 (004000-007FFFh) not protected from table reads executed in other
      +                           blocks
 12512                           ;	Table Read Protection bit
 12513                           ;	EBTR2 = OFF, Block 2 (008000-00BFFFh) not protected from table reads executed in other
      +                           blocks
 12514                           ;	Table Read Protection bit
 12515                           ;	EBTR3 = OFF, Block 3 (00C000-00FFFFh) not protected from table reads executed in other
      +                           blocks
 12516   30000C                     	org	3145740
 12517   30000C  0F                 	db	15
 12518                           
 12519                           ;Config register CONFIG7H @ 0x30000D
 12520                           ;	Boot Block Table Read Protection bit
 12521                           ;	EBTRB = OFF, Boot Block (000000-0007FFh) not protected from table reads executed in ot
      +                          her blocks
 12522   30000D                     	org	3145741
 12523   30000D  40                 	db	64
 12524                           tosu	equ	0xFFF
 12525                           tosh	equ	0xFFE
 12526                           tosl	equ	0xFFD
 12527                           stkptr	equ	0xFFC
 12528                           pclatu	equ	0xFFB
 12529                           pclath	equ	0xFFA
 12530                           pcl	equ	0xFF9
 12531                           tblptru	equ	0xFF8
 12532                           tblptrh	equ	0xFF7
 12533                           tblptrl	equ	0xFF6
 12534                           tablat	equ	0xFF5
 12535                           prodh	equ	0xFF4
 12536                           prodl	equ	0xFF3
 12537                           indf0	equ	0xFEF
 12538                           postinc0	equ	0xFEE
 12539                           postdec0	equ	0xFED
 12540                           preinc0	equ	0xFEC
 12541                           plusw0	equ	0xFEB
 12542                           fsr0h	equ	0xFEA
 12543                           fsr0l	equ	0xFE9
 12544                           wreg	equ	0xFE8
 12545                           indf1	equ	0xFE7
 12546                           postinc1	equ	0xFE6
 12547                           postdec1	equ	0xFE5
 12548                           preinc1	equ	0xFE4
 12549                           plusw1	equ	0xFE3
 12550                           fsr1h	equ	0xFE2
 12551                           fsr1l	equ	0xFE1
 12552                           bsr	equ	0xFE0
 12553                           indf2	equ	0xFDF
 12554                           postinc2	equ	0xFDE
 12555                           postdec2	equ	0xFDD
 12556                           preinc2	equ	0xFDC
 12557                           plusw2	equ	0xFDB
 12558                           fsr2h	equ	0xFDA
 12559                           fsr2l	equ	0xFD9
 12560                           status	equ	0xFD8

Data Sizes:
    Strings     25
    Constant    0
    Data        70
    BSS         97
    Persistent  0
    Stack       0

Auto Spaces:
    Space          Size  Autos    Used
    COMRAM          126     74     113
    BANK0           128    100     114
    BANK1           256     25     139
    BANK2           256      0       0
    BANK3           256      0       0
    BANK4           256      0       0
    BANK5           256      0       0
    BANK6           256      0       0
    BANK7           256      0       0
    BANK8           256      0       0
    BANK9           256      0       0
    BANK10          256      0       0
    BANK11          256      0       0
    BANK12          256      0       0
    BANK13          256      0       0
    BANK14          256      0       0
    BANK15          128      0       0

Pointer List with Targets:

    AC$CCPx_InterruptHandler	PTR FTN()void  size(2) Largest target is 1
		 -> NULL(), 

    ADC_GetConversion@pin	PTR const struct . size(2) Largest target is 8
		 -> Tempe_reader(BANK1[8]), 

    ADC_GetConversion@result	PTR unsigned char  size(1) Largest target is 2
		 -> adc_read(COMRAM[2]), 

    ADC_GetResult@pin	PTR const struct . size(2) Largest target is 8
		 -> Tempe_reader(BANK1[8]), 

    ADC_GetResult@pin$ADC_InterruptHandler	PTR FTN()void  size(2) Largest target is 1
		 -> Write_temp_LCD(), 

    ADC_GetResult@result	PTR unsigned short  size(1) Largest target is 2
		 -> adc_read(COMRAM[2]), 

    ADC_Init@pin	PTR const struct . size(2) Largest target is 8
		 -> Tempe_reader(BANK1[8]), 

    ADC_Init@pin$ADC_InterruptHandler	PTR FTN()void  size(2) Largest target is 1
		 -> Write_temp_LCD(), 

    ADC_InterruptHandler	PTR FTN()void  size(2) Largest target is 1
		 -> Write_temp_LCD(), NULL(), 

    ADC_Select_channel@pin	PTR const struct . size(2) Largest target is 8
		 -> Tempe_reader(BANK1[8]), 

    ADC_StartConversion@pin	PTR const struct . size(2) Largest target is 8
		 -> Tempe_reader(BANK1[8]), 

    CCP1_InterruptHandler	PTR FTN()void  size(2) Largest target is 1
		 -> NULL(), 

    CCP2_InterruptHandler	PTR FTN()void  size(2) Largest target is 1
		 -> NULL(), 

    CCP_PWM_Set_Duty@ccp_obj	PTR const struct . size(2) Largest target is 12
		 -> AC(BANK1[12]), Heater(BANK1[12]), 

    CCP_PWM_Set_Duty@ccp_obj$CCPx_InterruptHandler	PTR FTN()void  size(2) Largest target is 1
		 -> NULL(), 

    CCP_PWM_Start@ccp_obj	PTR const struct . size(2) Largest target is 12
		 -> AC(BANK1[12]), Heater(BANK1[12]), 

    CCP_PWM_Start@ccp_obj$CCPx_InterruptHandler	PTR FTN()void  size(2) Largest target is 1
		 -> NULL(), 

    CCP_PWM_Stop@ccp_obj	PTR const struct . size(2) Largest target is 12
		 -> AC(BANK1[12]), Heater(BANK1[12]), 

    CCP_PWM_Stop@ccp_obj$CCPx_InterruptHandler	PTR FTN()void  size(2) Largest target is 1
		 -> NULL(), 

    CCPx_DeInit@ccp_obj$CCPx_InterruptHandler	PTR FTN()void  size(2) Largest target is 1
		 -> NULL(), 

    CCPx_Init@ccp_obj	PTR const struct . size(2) Largest target is 12
		 -> AC(BANK1[12]), Heater(BANK1[12]), 

    CCPx_Init@ccp_obj$CCPx_InterruptHandler	PTR FTN()void  size(2) Largest target is 1
		 -> NULL(), 

    CCPx_SET_CAPTURE_MODE@ccp_obj	PTR const struct . size(2) Largest target is 12
		 -> AC(BANK1[12]), Heater(BANK1[12]), 

    CCPx_SET_CAPTURE_MODE@ccp_obj$CCPx_InterruptHandler	PTR FTN()void  size(2) Largest target is 1
		 -> NULL(), 

    CCPx_SET_COMPARE_MODE@ccp_obj	PTR const struct . size(2) Largest target is 12
		 -> AC(BANK1[12]), Heater(BANK1[12]), 

    CCPx_SET_COMPARE_MODE@ccp_obj$CCPx_InterruptHandler	PTR FTN()void  size(2) Largest target is 1
		 -> NULL(), 

    CCPx_SET_PWM_MODE@ccp_obj	PTR const struct . size(2) Largest target is 12
		 -> AC(BANK1[12]), Heater(BANK1[12]), 

    CCPx_SET_PWM_MODE@ccp_obj$CCPx_InterruptHandler	PTR FTN()void  size(2) Largest target is 1
		 -> NULL(), 

    CCPx_SET_TIMER_CONFIG@ccp_obj	PTR const struct . size(2) Largest target is 12
		 -> AC(BANK1[12]), Heater(BANK1[12]), 

    CCPx_SET_TIMER_CONFIG@ccp_obj$CCPx_InterruptHandler	PTR FTN()void  size(2) Largest target is 1
		 -> NULL(), 

    convert_byte_to_string@str	PTR unsigned char  size(2) Largest target is 8
		 -> temp_display(BANK1[8]), 

    f$.$buffer	PTR unsigned char  size(2) Largest target is 0

    f$.$source	PTR const unsigned char  size(2) Largest target is 0

    fputc@fp	PTR struct _IO_FILE size(1) Largest target is 12
		 -> sprintf@f(COMRAM[12]), 

    fputc@fp$.$buffer	PTR unsigned char  size(2) Largest target is 0

    fputc@fp$.$source	PTR const unsigned char  size(2) Largest target is 0

    gpio_pin_direction_intialize@_pin_config	PTR const struct . size(2) Largest target is 12
		 -> AC(BANK1[12]), Heater(BANK1[12]), lcd(BANK1[6]), lcd$lcd_data(BANK1[4]), 
		 -> led_initialize@pin_obj(COMRAM[1]), 

    gpio_pin_intialize@_pin_config	PTR const struct . size(2) Largest target is 6
		 -> lcd(BANK1[6]), lcd$lcd_data(BANK1[4]), 

    gpio_pin_Write_logic@_pin_config	PTR const struct . size(2) Largest target is 6
		 -> lcd(BANK1[6]), lcd$lcd_data(BANK1[4]), led_turn_off@pin_obj(COMRAM[1]), led_turn_on@pin_obj(COMRAM[1]), 

    Heater$CCPx_InterruptHandler	PTR FTN()void  size(2) Largest target is 1
		 -> NULL(), 

    INT0_InterruptHandler	PTR FTN()void  size(2) Largest target is 1
		 -> NULL(), 

    INT1_InterruptHandler	PTR FTN()void  size(2) Largest target is 1
		 -> NULL(), 

    INT2_InterruptHandler	PTR FTN()void  size(2) Largest target is 1
		 -> NULL(), 

    Interrupt_INTx_ClearFlag@int_obj$EXT_InterruptHandeler	PTR FTN()void  size(2) Largest target is 0

    Interrupt_INTx_Disable@int_obj$EXT_InterruptHandeler	PTR FTN()void  size(2) Largest target is 0

    Interrupt_INTx_Edge_Init@int_obj$EXT_InterruptHandeler	PTR FTN()void  size(2) Largest target is 0

    Interrupt_INTx_Enable@int_obj$EXT_InterruptHandeler	PTR FTN()void  size(2) Largest target is 0

    Interrupt_INTx_Pin_Init@int_obj$EXT_InterruptHandeler	PTR FTN()void  size(2) Largest target is 0

    lat_registers	PTR volatile unsigned char [5] size(2) Largest target is 1
		 -> LATA(BITBIGSFRlllll[1]), LATB(BITBIGSFRllllh[1]), LATC(BITBIGSFRllllh[1]), LATD(BITBIGSFRllllh[1]), 
		 -> LATE(BITBIGSFRllllh[1]), 

    lcd_4bit_intialize@lcd	PTR const struct . size(2) Largest target is 6
		 -> lcd(BANK1[6]), 

    lcd_4bit_send_command@lcd	PTR const struct . size(2) Largest target is 6
		 -> lcd(BANK1[6]), 

    lcd_4bit_send_data@lcd	PTR const struct . size(2) Largest target is 6
		 -> lcd(BANK1[6]), 

    lcd_4bit_send_string@lcd	PTR const struct . size(2) Largest target is 6
		 -> lcd(BANK1[6]), 

    lcd_4bit_send_string@str	PTR unsigned char  size(2) Largest target is 14
		 -> STR_4(CODE[8]), STR_5(CODE[14]), temp_display(BANK1[8]), 

    lcd_4bit_send_string_pos@lcd	PTR const struct . size(2) Largest target is 6
		 -> lcd(BANK1[6]), 

    lcd_4bit_send_string_pos@str	PTR unsigned char  size(2) Largest target is 14
		 -> STR_4(CODE[8]), STR_5(CODE[14]), temp_display(BANK1[8]), 

    memset@dest	PTR void  size(2) Largest target is 8
		 -> temp_display(BANK1[8]), 

    memset@p	PTR unsigned char  size(2) Largest target is 8
		 -> temp_display(BANK1[8]), 

    port_registers	PTR volatile unsigned char [5] size(2) Largest target is 1
		 -> PORTA(BITBIGSFRlllll[1]), PORTB(BITBIGSFRlllll[1]), PORTC(BITBIGSFRlllll[1]), PORTD(BITBIGSFRlllll[1]), 
		 -> PORTE(BITBIGSFRlllll[1]), 

    RB4_InterruptHandler	PTR FTN()void  size(2) Largest target is 1
		 -> NULL(), 

    RB5_InterruptHandler	PTR FTN()void  size(2) Largest target is 1
		 -> NULL(), 

    RB6_InterruptHandler	PTR FTN()void  size(2) Largest target is 1
		 -> NULL(), 

    RB7_InterruptHandler	PTR FTN()void  size(2) Largest target is 1
		 -> NULL(), 

    S1527$EXT_InterruptHandeler	PTR FTN()void  size(2) Largest target is 0

    S1971$Timer0_InterruptHandler	PTR FTN()void  size(2) Largest target is 0

    S2085$Timer1_InterruptHandler	PTR FTN()void  size(2) Largest target is 0

    S2275$Timer2_InterruptHandler	PTR FTN()void  size(2) Largest target is 1
		 -> NULL(), 

    S2409$Timer3_InterruptHandler	PTR FTN()void  size(2) Largest target is 0

    S3363$buffer	PTR unsigned char  size(2) Largest target is 0

    S3363$source	PTR const unsigned char  size(2) Largest target is 0

    S474$ADC_InterruptHandler	PTR FTN()void  size(2) Largest target is 1
		 -> Write_temp_LCD(), 

    S850$CCPx_InterruptHandler	PTR FTN()void  size(2) Largest target is 1
		 -> NULL(), 

    send_4bit@lcd	PTR const struct . size(2) Largest target is 6
		 -> lcd(BANK1[6]), 

    send_4bit_enable_signal@lcd	PTR const struct . size(2) Largest target is 6
		 -> lcd(BANK1[6]), 

    set_cursor_4bit@lcd	PTR const struct . size(2) Largest target is 6
		 -> lcd(BANK1[6]), 

    SetInterruptHandler@int_obj$EXT_InterruptHandeler	PTR FTN()void  size(2) Largest target is 0

    sp__memset	PTR void  size(2) Largest target is 8
		 -> temp_display(BANK1[8]), 

    sprintf@ap	PTR void [1] size(1) Largest target is 2
		 -> ?_sprintf(COMRAM[2]), 

    sprintf@fmt	PTR const unsigned char  size(1) Largest target is 3
		 -> STR_1(CODE[3]), STR_2(CODE[3]), STR_3(CODE[3]), 

    sprintf@s	PTR unsigned char  size(2) Largest target is 8
		 -> temp_display(BANK1[8]), 

    Tempe_reader$ADC_InterruptHandler	PTR FTN()void  size(2) Largest target is 1
		 -> Write_temp_LCD(), 

    time$Timer2_InterruptHandler	PTR FTN()void  size(2) Largest target is 1
		 -> NULL(), 

    Timer0_Init@obj$Timer0_InterruptHandler	PTR FTN()void  size(2) Largest target is 0

    Timer0_InterruptHandler	PTR FTN()void  size(2) Largest target is 1
		 -> NULL(), 

    TMR1_Init@obj$Timer1_InterruptHandler	PTR FTN()void  size(2) Largest target is 0

    TMR1_InterruptHandler	PTR FTN()void  size(2) Largest target is 1
		 -> NULL(), 

    TMR2_Init@obj	PTR const struct . size(2) Largest target is 6
		 -> time(BANK1[6]), 

    TMR2_Init@obj$Timer2_InterruptHandler	PTR FTN()void  size(2) Largest target is 1
		 -> NULL(), 

    TMR2_InterruptHandler	PTR FTN()void  size(2) Largest target is 1
		 -> NULL(), 

    TMR3_Init@obj$Timer3_InterruptHandler	PTR FTN()void  size(2) Largest target is 0

    TMR3_InterruptHandler	PTR FTN()void  size(2) Largest target is 1
		 -> NULL(), 

    tris_registers	PTR volatile unsigned char [5] size(2) Largest target is 1
		 -> TRISA(BITBIGSFRlllll[1]), TRISB(ABS[1]), TRISC(ABS[1]), TRISD(ABS[1]), 
		 -> TRISE(ABS[1]), 

    vfpfcnvrt@ap	PTR PTR void  size(1) Largest target is 1
		 -> sprintf@ap(COMRAM[1]), 

    vfpfcnvrt@cp	PTR unsigned char  size(1) Largest target is 3
		 -> STR_1(CODE[3]), STR_2(CODE[3]), STR_3(CODE[3]), 

    vfpfcnvrt@fmt	PTR PTR unsigned char  size(1) Largest target is 1
		 -> vfprintf@cfmt(COMRAM[1]), 

    vfpfcnvrt@fp	PTR struct _IO_FILE size(1) Largest target is 12
		 -> sprintf@f(COMRAM[12]), 

    vfprintf@ap	PTR PTR void  size(1) Largest target is 1
		 -> sprintf@ap(COMRAM[1]), 

    vfprintf@cfmt	PTR unsigned char  size(1) Largest target is 3
		 -> STR_1(CODE[3]), STR_2(CODE[3]), STR_3(CODE[3]), 

    vfprintf@fmt	PTR const unsigned char  size(1) Largest target is 3
		 -> STR_1(CODE[3]), STR_2(CODE[3]), STR_3(CODE[3]), 

    vfprintf@fp	PTR struct _IO_FILE size(1) Largest target is 12
		 -> sprintf@f(COMRAM[12]), 


Critical Paths under _main in COMRAM

    None.

Critical Paths under _InterruptManger in COMRAM

    _Write_temp_LCD->i2___fltol
    i2_lcd_4bit_send_string_pos->i2_set_cursor_4bit
    i2_set_cursor_4bit->i2_lcd_4bit_send_command
    i2_lcd_4bit_send_command->i2_send_4bit
    i2_lcd_4bit_send_string->i2_lcd_4bit_send_data
    i2_lcd_4bit_send_data->i2_send_4bit
    i2_send_4bit_enable_signal->i2_gpio_pin_Write_logic
    i2_send_4bit->i2_gpio_pin_Write_logic
    i2___fltol->i2___fldiv
    i2___flmul->i2___xxtofl
    i2___fldiv->i2___flmul
    _convert_byte_to_string->_sprintf
    _sprintf->_vfprintf
    _vfprintf->_vfpfcnvrt
    _vfpfcnvrt->_abs
    _abs->___awmod

Critical Paths under _main in BANK0

    _welcome_message->_lcd_4bit_send_string_pos
    _lcd_4bit_send_string_pos->_set_cursor_4bit
    _set_cursor_4bit->_lcd_4bit_send_command
    _lcd_4bit_send_string->_lcd_4bit_send_data
    _lcd_4bit_send_data->_send_4bit
    _CCP_PWM_Set_Duty->___fltol
    _lcd_4bit_intialize->_lcd_4bit_send_command
    _lcd_4bit_send_command->_send_4bit
    _send_4bit_enable_signal->_gpio_pin_Write_logic
    _send_4bit->_gpio_pin_Write_logic
    _gpio_pin_intialize->_gpio_pin_Write_logic
    _CCPx_SET_PWM_MODE->___fltol
    ___fltol->___flmul
    ___flmul->___fladd
    ___fldiv->___xxtofl
    ___fladd->___fldiv
    _ADC_Init->_ADC_Set_bit
    _ADC_GetConversion->_ADC_GetResult
    _ADC_GetConversion->_ADC_Select_channel
    _ADC_Select_channel->_ADC_Set_bit

Critical Paths under _InterruptManger in BANK0

    None.

Critical Paths under _main in BANK1

    _operation_select->_AC_Operate
    _operation_select->_Heater_Operate
    _Heater_Operate->_CCP_PWM_Set_Duty
    _AC_Operate->_CCP_PWM_Set_Duty
    _CCP_PWM_Set_Duty->___fltol
    _intialization->_CCPx_Init
    _CCPx_Init->_CCPx_SET_PWM_MODE
    _CCPx_SET_PWM_MODE->___fltol

Critical Paths under _InterruptManger in BANK1

    None.

Critical Paths under _main in BANK2

    None.

Critical Paths under _InterruptManger in BANK2

    None.

Critical Paths under _main in BANK3

    None.

Critical Paths under _InterruptManger in BANK3

    None.

Critical Paths under _main in BANK4

    None.

Critical Paths under _InterruptManger in BANK4

    None.

Critical Paths under _main in BANK5

    None.

Critical Paths under _InterruptManger in BANK5

    None.

Critical Paths under _main in BANK6

    None.

Critical Paths under _InterruptManger in BANK6

    None.

Critical Paths under _main in BANK7

    None.

Critical Paths under _InterruptManger in BANK7

    None.

Critical Paths under _main in BANK8

    None.

Critical Paths under _InterruptManger in BANK8

    None.

Critical Paths under _main in BANK9

    None.

Critical Paths under _InterruptManger in BANK9

    None.

Critical Paths under _main in BANK10

    None.

Critical Paths under _InterruptManger in BANK10

    None.

Critical Paths under _main in BANK11

    None.

Critical Paths under _InterruptManger in BANK11

    None.

Critical Paths under _main in BANK12

    None.

Critical Paths under _InterruptManger in BANK12

    None.

Critical Paths under _main in BANK13

    None.

Critical Paths under _InterruptManger in BANK13

    None.

Critical Paths under _main in BANK14

    None.

Critical Paths under _InterruptManger in BANK14

    None.

Critical Paths under _main in BANK15

    None.

Critical Paths under _InterruptManger in BANK15

    None.

Call Graph Tables:

 ---------------------------------------------------------------------------------
 (Depth) Function   	        Calls       Base Space   Used Autos Params    Refs
 ---------------------------------------------------------------------------------
 (0) _main                                                 5     0      5  114163
                                             20 BANK1      5     0      5
                  _ADC_GetConversion
                      _intialization
                   _operation_select
                    _welcome_message
 ---------------------------------------------------------------------------------
 (1) _welcome_message                                      2     2      0   52391
                                             41 BANK0      2     2      0
              _lcd_4bit_send_command
           _lcd_4bit_send_string_pos
 ---------------------------------------------------------------------------------
 (2) _lcd_4bit_send_string_pos                             7     1      6   34921
                                             35 BANK0      6     0      6
               _lcd_4bit_send_string
                    _set_cursor_4bit
 ---------------------------------------------------------------------------------
 (3) _set_cursor_4bit                                      6     2      4   18292
                                             29 BANK0      6     2      4
              _lcd_4bit_send_command
 ---------------------------------------------------------------------------------
 (3) _lcd_4bit_send_string                                 5     1      4   15630
                                             29 BANK0      4     0      4
                 _lcd_4bit_send_data
 ---------------------------------------------------------------------------------
 (4) _lcd_4bit_send_data                                   4     1      3   15310
                                             26 BANK0      3     0      3
               _gpio_pin_Write_logic
                          _send_4bit
            _send_4bit_enable_signal
 ---------------------------------------------------------------------------------
 (1) _operation_select                                     0     0      0   23136
                         _AC_Operate
                       _CCP_PWM_Stop
                     _Heater_Operate
 ---------------------------------------------------------------------------------
 (2) _Heater_Operate                                       4     4      0   11335
                                             15 BANK1      4     4      0
                   _CCP_PWM_Set_Duty
                      _CCP_PWM_Start
 ---------------------------------------------------------------------------------
 (2) _CCP_PWM_Stop                                         4     2      2     466
                                             14 BANK0      3     1      2
 ---------------------------------------------------------------------------------
 (2) _AC_Operate                                           4     4      0   11335
                                             15 BANK1      4     4      0
                   _CCP_PWM_Set_Duty
                      _CCP_PWM_Start
 ---------------------------------------------------------------------------------
 (3) _CCP_PWM_Start                                        4     2      2     286
                                             14 BANK0      3     1      2
 ---------------------------------------------------------------------------------
 (3) _CCP_PWM_Set_Duty                                    12     9      3   11012
                                              4 BANK1     11     8      3
                            ___fladd
                            ___fldiv
                            ___flmul
                            ___fltol
                           ___xxtofl
 ---------------------------------------------------------------------------------
 (1) _intialization                                        0     0      0   37076
                           _ADC_Init
                          _CCPx_Init
                          _TMR2_Init
                 _lcd_4bit_intialize
 ---------------------------------------------------------------------------------
 (2) _lcd_4bit_intialize                                   5     3      2   23832
                                             29 BANK0      5     3      2
                 _gpio_pin_intialize
              _lcd_4bit_send_command
 ---------------------------------------------------------------------------------
 (4) _lcd_4bit_send_command                                4     1      3   17470
                                             26 BANK0      3     0      3
               _gpio_pin_Write_logic
                          _send_4bit
            _send_4bit_enable_signal
 ---------------------------------------------------------------------------------
 (5) _send_4bit_enable_signal                              2     0      2    4795
                                             23 BANK0      2     0      2
               _gpio_pin_Write_logic
 ---------------------------------------------------------------------------------
 (5) _send_4bit                                            3     0      3    5341
                                             23 BANK0      3     0      3
               _gpio_pin_Write_logic
 ---------------------------------------------------------------------------------
 (3) _gpio_pin_intialize                                   4     2      2    5847
                                             23 BANK0      4     2      2
               _gpio_pin_Write_logic
       _gpio_pin_direction_intialize
 ---------------------------------------------------------------------------------
 (6) _gpio_pin_Write_logic                                10     7      3    4373
                                             14 BANK0      9     6      3
 ---------------------------------------------------------------------------------
 (2) _TMR2_Init                                            4     2      2     289
                                             14 BANK0      3     1      2
 ---------------------------------------------------------------------------------
 (2) _CCPx_Init                                            5     3      2   12582
                                             16 BANK1      4     2      2
              _CCPx_SET_CAPTURE_MODE
              _CCPx_SET_COMPARE_MODE
                  _CCPx_SET_PWM_MODE
              _CCPx_SET_TIMER_CONFIG
       _gpio_pin_direction_intialize
 ---------------------------------------------------------------------------------
 (4) _gpio_pin_direction_intialize                         9     7      2     773
                                             14 BANK0      8     6      2
 ---------------------------------------------------------------------------------
 (3) _CCPx_SET_TIMER_CONFIG                                4     2      2     121
                                             14 BANK0      4     2      2
 ---------------------------------------------------------------------------------
 (3) _CCPx_SET_PWM_MODE                                   12    10      2   10664
                                              4 BANK1     12    10      2
                            ___fladd
                            ___fldiv
                            ___flmul
                            ___fltol
                           ___xxtofl
 ---------------------------------------------------------------------------------
 (4) ___xxtofl                                            14    10      4     891
                                             14 BANK0     14    10      4
 ---------------------------------------------------------------------------------
 (4) ___fltol                                             10     6      4     542
                                             94 BANK0      6     2      4
                                              0 BANK1      4     4      0
                            ___fladd (ARG)
                            ___fldiv (ARG)
                            ___flmul (ARG)
                           ___xxtofl (ARG)
 ---------------------------------------------------------------------------------
 (4) ___flmul                                             25    17      8    3163
                                             69 BANK0     25    17      8
                            ___fladd (ARG)
                            ___fldiv (ARG)
                           ___xxtofl (ARG)
 ---------------------------------------------------------------------------------
 (4) ___fldiv                                             25    17      8    2233
                                             28 BANK0     25    17      8
                           ___xxtofl (ARG)
 ---------------------------------------------------------------------------------
 (4) ___fladd                                             16     8      8    3522
                                             53 BANK0     16     8      8
                            ___fldiv (ARG)
                           ___xxtofl (ARG)
 ---------------------------------------------------------------------------------
 (3) _CCPx_SET_COMPARE_MODE                                4     2      2     214
                                             14 BANK0      4     2      2
 ---------------------------------------------------------------------------------
 (3) _CCPx_SET_CAPTURE_MODE                                4     2      2     214
                                             14 BANK0      4     2      2
 ---------------------------------------------------------------------------------
 (2) _ADC_Init                                             5     3      2     373
                                             17 BANK0      4     2      2
                        _ADC_Set_bit
 ---------------------------------------------------------------------------------
 (1) _ADC_GetConversion                                    5     1      4    1560
                                             21 BANK0      4     0      4
                      _ADC_GetResult
                 _ADC_Select_channel
                _ADC_StartConversion
 ---------------------------------------------------------------------------------
 (2) _ADC_StartConversion                                  3     1      2     224
                                             14 BANK0      2     0      2
 ---------------------------------------------------------------------------------
 (2) _ADC_Select_channel                                   5     2      3     488
                                             17 BANK0      4     1      3
                        _ADC_Set_bit
 ---------------------------------------------------------------------------------
 (3) _ADC_Set_bit                                          3     3      0      22
                                             14 BANK0      3     3      0
 ---------------------------------------------------------------------------------
 (2) _ADC_GetResult                                        8     5      3     348
                                             14 BANK0      7     4      3
 ---------------------------------------------------------------------------------
 Estimated maximum stack depth 6
 ---------------------------------------------------------------------------------
 (Depth) Function   	        Calls       Base Space   Used Autos Params    Refs
 ---------------------------------------------------------------------------------
 (7) _InterruptManger                                     14    14      0   16218
                                              0 BANK0     14    14      0
                            _ADC_ISR
                           _CCP1_ISR
                           _CCP2_ISR
                           _INT0_ISR
                           _INT1_ISR
                           _INT2_ISR
                           _TMR1_ISR
                           _TMR2_ISR
                           _TMR3_ISR
                         _Timer0_ISR
 ---------------------------------------------------------------------------------
 (8) _Timer0_ISR                                           0     0      0       0
 ---------------------------------------------------------------------------------
 (8) _TMR3_ISR                                             0     0      0       0
 ---------------------------------------------------------------------------------
 (8) _TMR2_ISR                                             0     0      0       0
 ---------------------------------------------------------------------------------
 (8) _TMR1_ISR                                             0     0      0       0
 ---------------------------------------------------------------------------------
 (8) _INT2_ISR                                             0     0      0       0
 ---------------------------------------------------------------------------------
 (8) _INT1_ISR                                             0     0      0       0
 ---------------------------------------------------------------------------------
 (8) _INT0_ISR                                             0     0      0       0
 ---------------------------------------------------------------------------------
 (8) _CCP2_ISR                                             0     0      0       0
 ---------------------------------------------------------------------------------
 (8) _CCP1_ISR                                             0     0      0       0
 ---------------------------------------------------------------------------------
 (8) _ADC_ISR                                              0     0      0   16218
                                NULL *
                     _Write_temp_LCD *
 ---------------------------------------------------------------------------------
 (9) _Write_temp_LCD                                       0     0      0   16218
             _convert_byte_to_string
                          i2___fldiv
                          i2___flmul
                          i2___fltol
                         i2___xxtofl
         i2_lcd_4bit_send_string_pos
 ---------------------------------------------------------------------------------
 (10) i2_lcd_4bit_send_string_pos                          7     1      6    8166
                                             21 COMRAM     6     0      6
             i2_lcd_4bit_send_string
                  i2_set_cursor_4bit
 ---------------------------------------------------------------------------------
 (11) i2_set_cursor_4bit                                   6     2      4    4037
                                             15 COMRAM     6     2      4
            i2_lcd_4bit_send_command
 ---------------------------------------------------------------------------------
 (12) i2_lcd_4bit_send_command                             4     1      3    3650
                                             12 COMRAM     3     0      3
             i2_gpio_pin_Write_logic
                        i2_send_4bit
          i2_send_4bit_enable_signal
 ---------------------------------------------------------------------------------
 (11) i2_lcd_4bit_send_string                              5     1      4    3650
                                             15 COMRAM     4     0      4
               i2_lcd_4bit_send_data
 ---------------------------------------------------------------------------------
 (12) i2_lcd_4bit_send_data                                4     1      3    3440
                                             12 COMRAM     3     0      3
             i2_gpio_pin_Write_logic
                        i2_send_4bit
          i2_send_4bit_enable_signal
 ---------------------------------------------------------------------------------
 (13) i2_send_4bit_enable_signal                           2     0      2     995
                                              9 COMRAM     2     0      2
             i2_gpio_pin_Write_logic
 ---------------------------------------------------------------------------------
 (13) i2_send_4bit                                         3     0      3    1321
                                              9 COMRAM     3     0      3
             i2_gpio_pin_Write_logic
 ---------------------------------------------------------------------------------
 (14) i2_gpio_pin_Write_logic                             10     7      3     793
                                              0 COMRAM     9     6      3
 ---------------------------------------------------------------------------------
 (10) i2___xxtofl                                         14    10      4     348
                                              0 COMRAM    14    10      4
 ---------------------------------------------------------------------------------
 (10) i2___fltol                                          10     6      4     255
                                             64 COMRAM    10     6      4
                          i2___fldiv (ARG)
                          i2___flmul (ARG)
                         i2___xxtofl (ARG)
 ---------------------------------------------------------------------------------
 (10) i2___flmul                                          25    17      8    1518
                                             14 COMRAM    25    17      8
                         i2___xxtofl (ARG)
 ---------------------------------------------------------------------------------
 (10) i2___fldiv                                          25    17      8    1173
                                             39 COMRAM    25    17      8
                          i2___flmul (ARG)
                         i2___xxtofl (ARG)
 ---------------------------------------------------------------------------------
 (10) _convert_byte_to_string                              4     2      2    4758
                                             43 COMRAM     3     1      2
                             _memset
                            _sprintf
 ---------------------------------------------------------------------------------
 (11) _sprintf                                            20    15      5    3591
                                             25 COMRAM    18    13      5
                           _vfprintf
 ---------------------------------------------------------------------------------
 (12) _vfprintf                                            4     1      3    2936
                                             21 COMRAM     4     1      3
                          _vfpfcnvrt
 ---------------------------------------------------------------------------------
 (13) _vfpfcnvrt                                          11     8      3    2586
                                             10 COMRAM    11     8      3
                            ___awdiv
                            ___awmod
                                _abs
                              _fputc
 ---------------------------------------------------------------------------------
 (14) _fputc                                               8     5      3     782
                                              0 COMRAM     8     5      3
                              _putch
 ---------------------------------------------------------------------------------
 (15) _putch                                               1     1      0       0
 ---------------------------------------------------------------------------------
 (14) _abs                                                 4     2      2     142
                                              6 COMRAM     4     2      2
                            ___awmod (ARG)
 ---------------------------------------------------------------------------------
 (14) ___awmod                                             6     2      4     448
                                              0 COMRAM     6     2      4
 ---------------------------------------------------------------------------------
 (14) ___awdiv                                             8     4      4     452
                                              0 COMRAM     8     4      4
 ---------------------------------------------------------------------------------
 (11) _memset                                              8     2      6     947
                                              0 COMRAM     8     2      6
 ---------------------------------------------------------------------------------
 (9) NULL(Fake)                                            0     0      0       0
 ---------------------------------------------------------------------------------
 Estimated maximum stack depth 15
 ---------------------------------------------------------------------------------

 Call Graph Graphs:

 _main (ROOT)
   _ADC_GetConversion
     _ADC_GetResult
     _ADC_Select_channel
       _ADC_Set_bit
     _ADC_StartConversion
   _intialization
     _ADC_Init
       _ADC_Set_bit
     _CCPx_Init
       _CCPx_SET_CAPTURE_MODE
       _CCPx_SET_COMPARE_MODE
       _CCPx_SET_PWM_MODE
         ___fladd
           ___fldiv (ARG)
             ___xxtofl (ARG)
           ___xxtofl (ARG)
         ___fldiv
         ___flmul
           ___fladd (ARG)
           ___fldiv (ARG)
           ___xxtofl (ARG)
         ___fltol
           ___fladd (ARG)
           ___fldiv (ARG)
           ___flmul (ARG)
           ___xxtofl (ARG)
         ___xxtofl
       _CCPx_SET_TIMER_CONFIG
       _gpio_pin_direction_intialize
     _TMR2_Init
     _lcd_4bit_intialize
       _gpio_pin_intialize
         _gpio_pin_Write_logic
         _gpio_pin_direction_intialize
       _lcd_4bit_send_command
         _gpio_pin_Write_logic
         _send_4bit
           _gpio_pin_Write_logic
         _send_4bit_enable_signal
           _gpio_pin_Write_logic
   _operation_select
     _AC_Operate
       _CCP_PWM_Set_Duty
         ___fladd
         ___fldiv
         ___flmul
         ___fltol
         ___xxtofl
       _CCP_PWM_Start
     _CCP_PWM_Stop
     _Heater_Operate
       _CCP_PWM_Set_Duty
       _CCP_PWM_Start
   _welcome_message
     _lcd_4bit_send_command
     _lcd_4bit_send_string_pos
       _lcd_4bit_send_string
         _lcd_4bit_send_data
           _gpio_pin_Write_logic
           _send_4bit
           _send_4bit_enable_signal
       _set_cursor_4bit
         _lcd_4bit_send_command

 _InterruptManger (ROOT)
   _ADC_ISR
     NULL(Fake) *
     _Write_temp_LCD *
       _convert_byte_to_string
         _memset
         _sprintf
           _vfprintf
             _vfpfcnvrt
               ___awdiv
               ___awmod
               _abs
                 ___awmod (ARG)
               _fputc
                 _putch
       i2___fldiv
         i2___flmul (ARG)
           i2___xxtofl (ARG)
         i2___xxtofl (ARG)
       i2___flmul
       i2___fltol
         i2___fldiv (ARG)
         i2___flmul (ARG)
         i2___xxtofl (ARG)
       i2___xxtofl
       i2_lcd_4bit_send_string_pos
         i2_lcd_4bit_send_string
           i2_lcd_4bit_send_data
             i2_gpio_pin_Write_logic
             i2_send_4bit
               i2_gpio_pin_Write_logic
             i2_send_4bit_enable_signal
               i2_gpio_pin_Write_logic
         i2_set_cursor_4bit
           i2_lcd_4bit_send_command
             i2_gpio_pin_Write_logic
             i2_send_4bit
             i2_send_4bit_enable_signal
   _CCP1_ISR
   _CCP2_ISR
   _INT0_ISR
   _INT1_ISR
   _INT2_ISR
   _TMR1_ISR
   _TMR2_ISR
   _TMR3_ISR
   _Timer0_ISR

 Address spaces:
Name               Size   Autos  Total    Cost      Usage
BIGRAM             F7F      0       0      50        0.0%
EEDATA             400      0       0       0        0.0%
BITBANK14          100      0       0      32        0.0%
BANK14             100      0       0      33        0.0%
BITBANK13          100      0       0      30        0.0%
BANK13             100      0       0      31        0.0%
BITBANK12          100      0       0      28        0.0%
BANK12             100      0       0      29        0.0%
BITBANK11          100      0       0      26        0.0%
BANK11             100      0       0      27        0.0%
BITBANK10          100      0       0      24        0.0%
BANK10             100      0       0      25        0.0%
BITBANK9           100      0       0      22        0.0%
BANK9              100      0       0      23        0.0%
BITBANK8           100      0       0      20        0.0%
BANK8              100      0       0      21        0.0%
BITBANK7           100      0       0      18        0.0%
BANK7              100      0       0      19        0.0%
BITBANK6           100      0       0      16        0.0%
BANK6              100      0       0      17        0.0%
BITBANK5           100      0       0      14        0.0%
BANK5              100      0       0      15        0.0%
BITBANK4           100      0       0      12        0.0%
BANK4              100      0       0      13        0.0%
BITBANK3           100      0       0      10        0.0%
BANK3              100      0       0      11        0.0%
BITBANK2           100      0       0       8        0.0%
BANK2              100      0       0       9        0.0%
BITBANK1           100      0       0       6        0.0%
BANK1              100     19      8B       7       54.3%
BITBANK15           80      0       0      34        0.0%
BANK15              80      0       0      35        0.0%
BITBANK0            80      0       0       4        0.0%
BANK0               80     64      72       5       89.1%
BITCOMRAM           7E      0       0       0        0.0%
COMRAM              7E     4A      71       1       89.7%
BITBIGSFRhlhlhh     18      0       0      37        0.0%
BITBIGSFRhh          D      0       0      36        0.0%
BITBIGSFRllhllh      6      0       0      42        0.0%
BITBIGSFRllhllh      6      0       0      43        0.0%
BITBIGSFRlllhh       6      0       0      46        0.0%
BITBIGSFRhlhllh      5      0       0      38        0.0%
BITBIGSFRhll         5      0       0      39        0.0%
BITBIGSFRllllh       4      0       0      47        0.0%
BITBIGSFRllhllh      4      0       0      44        0.0%
BITBIGSFRlllll       4      0       0      48        0.0%
BITBIGSFRllhlh       1      0       0      41        0.0%
BITBIGSFRllhh        1      0       0      40        0.0%
BITBIGSFRllhlll      1      0       0      45        0.0%
BIGSFR               0      0       0     200        0.0%
BITSFR               0      0       0     200        0.0%
SFR                  0      0       0     200        0.0%
STACK                0      0       0       2        0.0%
NULL                 0      0       0       0        0.0%
ABS                  0      0     16E      49        0.0%
DATA                 0      0     16E       3        0.0%
CODE                 0      0       0       0        0.0%


Microchip Technology PIC18 Macro Assembler V2.45 build 20230818022343 
Symbol Table                                                                                   Mon Jun 24 17:55:07 2024

                    __end_ofi2_send_4bit 455A              ??i2_send_4bit_enable_signal 000C  
                           ___fldiv@aexp 00B4                             ___fldiv@bexp 00B3  
                           ___fldiv@sign 00AC                                       _AC 012A  
                                     l62 43C6                                       l80 41AA  
                                     l57 329C                                       l67 4360  
                                     l85 4902                             ___awdiv@sign 0006  
              gpio_pin_Write_logic@logic 0090               i2lcd_4bit_send_command@lcd 000D  
                                    l313 3B30                                      l250 3A46  
                                    l402 4490                                      l411 4738  
                                    l252 3A52                                      l156 4294  
                                    l253 3A4E                                      l245 397E  
                                    l270 4B38                                      l430 3508  
                                    l182 3F60                                      l247 3A26  
                                    l255 3A54                                      l159 4A2C  
                                    l408 4738                                      l265 4A92  
                                    l282 3FFC                                      l290 44F4  
                                    l451 3156                                      l371 3002  
                                    l268 4B36                                      l462 4684  
                                    l614 442C                                      l390 2EA2  
                                    l287 44D6                                      l359 2EFE  
                                    l464 468C                                      l465 4694  
                                    l393 2EA2                                      l458 2D06  
                                    l466 46DC                                      l554 3630  
                                    l566 33DC                                      l399 4490  
                                    l931 4126                                      l929 40B0  
             send_4bit_enable_signal@lcd 0097                                      _PR2 0FCB  
                                    _abs 4A2E                                      _lcd 013E  
                        __end_of_ADC_ISR 4AF4                              i2___fldiv@a 002C  
                            i2___fldiv@b 0028                             ___awmod@sign 0006  
                             i2___xxtofl 29A6                      led_initialize@F3060 006F  
                                    prod 0FF3                                      tosl 0FFD  
                                    wreg 0FE8                              i2___flmul@a 0013  
                            i2___flmul@b 000F                     __end_of_CCP_PWM_Stop 473A  
                           ___flmul@aexp 00D2                             ___flmul@bexp 00D7  
                           ___flmul@sign 00D1                             ___flmul@temp 00DC  
                           ___flmul@prod 00D8                             ___fltol@exp1 00E3  
                 ?_CCPx_SET_TIMER_CONFIG 008E                                     ?_abs 0007  
                                   l1053 487C                                     l1072 4792  
                                   l1056 45BA                                     l1410 385E  
                                   l1066 3EC4                                     l1069 47E8  
                                   l1700 1EF2                                     l1641 120C  
                                   l1650 14DC                                     l1642 11FA  
                                   l1706 1F74                                     l1643 11C0  
                                   l1731 1908                                     l1708 1FEC  
                                   l1709 1FDA                                     l1734 179A  
                                   l1727 15A4                                     l1744 18CA  
                                   l1736 1812                                     l1737 1800  
                                   l1658 1326                                     l1667 13F6  
                                   l1771 27EE                                     l1668 13E4  
                                   l1782 2786                                     l1695 20CE  
                                   l1775 272A                                     l1768 2692  
                                   l1697 1F2E                                     l8001 154E  
                                   l8011 158E                                     l8003 155C  
                                   l8101 18EC                                     l8021 15D8  
                                   l8013 1594                                     l8005 155E  
                                   l8103 18EE                                     l8031 1628  
                                   l8023 15E4                                     l8015 15B4  
                                   l8007 156E                                     l8111 3754  
                                   l8105 18F4                                     l8041 166A  
                                   l8033 1634                                     l8025 15EE  
                                   l8017 15C4                                     l8009 157E  
                                   l8121 37B0                                     l8113 376C  
                                   l8107 18F8                                     l8051 16CC  
                                   l8043 1676                                     l8035 1640  
                                   l8027 1604                                     l8123 37C0  
                                   l8301 3490                                     l8061 1762  
                                   l8053 16D8                                     l8045 1686  
                                   l8037 164E                                     l8029 1610  
                                   l8133 37EA                                     l8125 37C4  
                                   l8117 3780                                     l5831 3A5A  
                                   l8303 349C                                     l8311 34C0  
                                   l8071 17B8                                     l8063 1780  
                                   l8055 16F4                                     l8047 16A0  
                                   l8039 165A                                     l8151 384E  
                                   l8143 3812                                     l8135 37F4  
                                   l8127 37D2                                     l8119 37AE  
                                   l8231 43CE                                     l5841 3A76  
                                   l5833 3A5E                                     l8305 34A8  
                                   l8081 1822                                     l8073 17BC  
                                   l8065 178A                                     l8057 171E  
                                   l8049 16B0                                     l8145 381E  
                                   l8137 37FE                                     l8161 26A2  
                                   l7601 333C                                     l8233 43E0  
                                   l8401 2D28                                     l5851 3A94  
                                   l5843 3A7C                                     l5835 3A64  
                                   l8307 34B4                                     l8331 302C  
                                   l8091 1884                                     l8083 182E  
                                   l8075 17CA                                     l8067 1798  
                                   l8059 1754                                     l8147 382E  
                                   l8171 26E0                                     l8163 26B8  
                                   l8155 263C                                     l8235 4402  
                                   l8403 2E0C                                     l8411 442E  
                                   l8251 3F10                                     l8243 3EC6  
                                   l9131 4AFC                                     l5853 3A9A  
                                   l5845 3A82                                     l5837 3A6A  
                                   l5861 3AAC                                     l8333 3038  
                                   l8341 305C                                     l8325 3004  
                                   l7701 113A                                     l8093 1898  
                                   l8085 183C                                     l8077 17F8  
                                   l8069 17AA                                     l8149 383E  
                                   l8181 2768                                     l8173 2712  
                                   l8157 264E                                     l7605 339A  
                                   l7541 3544                                     l7533 350A  
                                   l8237 440A                                     l8229 43C8  
                                   l7613 4362                                     l8405 2E24  
                                   l8421 446A                                     l8413 442E  
                                   l8261 4128                                     l8245 3ECE  
                                   l8253 3F26                                     l9133 4B12  
                                   l5855 3AA0                                     l5847 3A88  
                                   l5839 3A70                                     l8351 30E2  
                                   l8335 3044                                     l8343 30AC  
                                   l7711 114E                                     l7703 113E  
                                   l8095 18B2                                     l8087 1866  
                                   l8191 27BE                                     l8183 2776  
                                   l8175 2714                                     l8167 26CC  
                                   l8159 265C                                     l7543 35A8  
                                   l7535 350A                                     l8239 4428  
                                   l7615 4362                                     l8407 2E56  
                                   l8423 4484                                     l8415 4442  
                                   l7623 42FC                                     l8263 413C  
                                   l8247 3EE4                                     l9127 4AF4  
                                   l5857 3AA6                                     l5849 3A8E  
                                   l8281 33DE                                     l8353 30EE  
                                   l8337 3050                                     l8329 3020  
                                   l7801 13B4                                     l7721 1162  
                                   l7713 1152                                     l7705 1142  
                                   l7641 101C                                     l8097 18CE  
                                   l8089 186A                                     l8193 27CE  
                                   l8185 2794                                     l8177 2720  
                                   l8169 26D4                                     l8601 2F22  
                                   l7537 351E                                     l7617 4376  
                                   l8441 316C                                     l8409 2E70  
                                   l8417 4446                                     l7625 42FC  
                                   l8265 4140                                     l8249 3EFA  
                                   l9129 4AF8                                     l8531 39D8  
                                   l8523 3966                                     l8291 341E  
                                   l8355 30FA                                     l8347 30CA  
                                   l7811 1406                                     l7803 13B8  
                                   l7731 11DA                                     l7723 118C  
                                   l7715 1156                                     l7707 1146  
                                   l7651 105A                                     l7643 102A  
                                   l8099 18DE                                     l8195 27DC  
                                   l8187 2796                                     l8179 275C  
                                   l8611 2F7E                                     l7547 3606  
                                   l7539 3540                                     l7563 422A  
                                   l7619 437A                                     l8451 31AC  
                                   l8443 3170                                     l8419 445E  
                                   l7627 4310                                     l8267 4172  
                                   l8259 4128                                     l8541 39F2  
                                   l8533 39EA                                     l8525 3966  
                                   l8285 33FA                                     l8349 30D6  
                                   l7821 146C                                     l7813 1412  
                                   l7805 13C6                                     l7741 121A  
                                   l7733 11DE                                     l7725 11A8  
                                   l7717 115A                                     l7709 114A  
                                   l7661 108A                                     l7653 106A  
                                   l7645 1038                                     l7901 1E6C  
                                   l8197 27DE                                     l8189 279A  
                                   l8381 2BA0                                     l8373 2B5A  
                                   l8621 2FD0                                     l8613 2F80  
                                   l8605 2F32                                     l7565 49F8  
                                   l8461 31F4                                     l8453 31C8  
                                   l8445 3194                                     l8437 3158  
                                   l7629 4314                                     l8269 4178  
                                   l8551 4A62                                     l8543 3A02  
                                   l8535 39EC                                     l8527 397A  
                                   l8287 3406                                     l8295 342A  
                                   l8359 3106                                     l7831 14B4  
                                   l7823 147C                                     l7815 1420  
                                   l7807 13DC                                     l7751 125C  
                                   l7743 122A                                     l7735 11EC  
                                   l7727 11B8                                     l7719 115E  
                                   l7671 10B4                                     l7663 109C  
                                   l7655 106C                                     l7647 103A  
                                   l7911 1EBE                                     l7903 1E86  
                                   l8375 2B72                                     l8383 4680  
                                   l7591 329E                                     l8623 2FD4  
                                   l8615 2F98                                     l8607 2F70  
                                   l7567 4A0E                                     l8471 3254  
                                   l8463 3218                                     l8447 3198  
                                   l8439 3158                                     l8553 4A76  
                                   l8561 4B1E                                     l8545 3A20  
                                   l8537 39EE                                     l8529 3980  
                                   l8289 3412                                     l8297 3472  
                                   l7833 14B6                                     l7825 149C  
                                   l7817 145A                                     l7761 128A  
                                   l7753 126A                                     l7737 11EE  
                                   l7729 11CE                                     l7673 10C4  
                                   l7681 10EE                                     l7665 109E  
                                   l7649 104A                                     l7657 1074  
                                   l7921 1F1A                                     l7913 1ECE  
                                   l7905 1E96                                     l8377 2B7E  
                                   l7593 329E                                     l8625 2FEA  
                                   l8617 2F9C                                     l8609 2F7C  
                                   l7569 4A16                                     l8473 3266  
                                   l8465 321E                                     l8457 31D0  
                                   l8641 46F6                                     l8801 3E96  
                                   l8481 48C2                                     l8571 3F76  
                                   l8555 4A7A                                     l8563 4B1E  
                                   l8547 3A28                                     l8539 39F0  
                                   l7835 14BC                                     l7827 14A0  
                                   l7819 145C                                     l7771 12F6  
                                   l7763 1294                                     l7755 1276  
                                   l7747 123E                                     l7739 11F8  
                                   l7691 1126                                     l7683 10FE  
                                   l7675 10D4                                     l7667 10A4  
                                   l7659 1084                                     l7931 1F5A  
                                   l7923 1F1C                                     l7915 1EE2  
                                   l7907 1EA6                                     l7851 1D62  
                                   l7843 1D34                                     l8379 2B98  
                                   l8387 469C                                     l7595 32B2  
                                   l8619 2FB6                                     l8651 4098  
                                   l8475 3278                                     l8467 3230  
                                   l8459 31E2                                     l8395 2D08  
                                   l8643 470E                                     l8635 46DE  
                                   l8803 3EA8                                     l8483 48C2  
                                   l8573 3F86                                     l8557 4A8C  
                                   l8549 4A62                                     l8565 4B32  
                                   l7837 14CA                                     l7829 14AE  
                                   l7773 1306                                     l7757 127A  
                                   l7749 124E                                     l7765 129A  
                                   l7693 112A                                     l7685 1110  
                                   l7677 10E4                                     l7669 10B2  
                                   l7941 1F96                                     l7933 1F64  
                                   l7925 1F2C                                     l7917 1EF0  
                                   l7909 1EB6                                     l7861 1D9C  
                                   l7853 1D72                                     l7845 1D42  
                                   l7597 32D4                                     l8661 4110  
                                   l8653 40AC                                     l8477 328A  
                                   l8469 3242                                     l8397 2D12  
                                   l8645 4716                                     l8637 46DE  
                                   l8485 48D6                                     l8575 3F8A  
                                   l8567 3F62                                     l7839 14CC  
                                   l7791 1388                                     l7783 1360  
                                   l7767 12C0                                     l7775 1316  
                                   l7759 1288                                     l7695 112E  
                                   l7687 111E                                     l7679 10E6  
                                   l7951 2008                                     l7943 1FA4  
                                   l7935 1F72                                     l7927 1F3E  
                                   l7919 1EFC                                     l7871 1DC8  
                                   l7863 1DA2                                     l7855 1D82  
                                   l7847 1D50                                     l9471 33C6  
                                   l7599 32D8                                     l8591 2ED4  
                                   l8583 2EA4                                     l8663 4112  
                                   l8655 40B2                                     l8399 2D24  
                                   l8647 4730                                     l8639 46F2  
                                   l8487 48DA                                     l8577 3FA6  
                                   l8569 3F62                                     l8761 44B6  
                                   l9481 34E2                                     l7793 1390  
                                   l7785 136A                                     l7777 133C  
                                   l7769 12F4                                     l7697 1132  
                                   l7689 1122                                     l7961 2074  
                                   l7953 2016                                     l7945 1FD2  
                                   l7929 1F54                                     l7937 1F84  
                                   l7881 1E02                                     l7873 1DD8  
                                   l7865 1DA8                                     l7857 1D84  
                                   l7849 1D52                                     l9473 46BE  
                                   l8593 2EDC                                     l8585 2EA4  
                                   l8665 4114                                     l8657 410C  
                                   l8649 4098                                     l8681 4794  
                                   l9465 3F3A                                     l8489 48EE  
                                   l8579 3FCA                                     l9483 3AC2  
                                   l8763 44BA                                     l8755 4492  
                                   l9475 307E                                     l7795 1394  
                                   l7787 1378                                     l7779 134C  
                                   l7699 1136                                     l7971 20C2  
                                   l7963 208E                                     l7955 2040  
                                   l7939 1F92                                     l7883 1E18  
                                   l7875 1DE8                                     l7867 1DB6  
                                   l7859 1D8C                                     l8595 2EF6  
                                   l8587 2EB8                                     l8667 4124  
                                   l8659 410E                                     l9467 361A  
                                   l8683 47A2                                     l8691 473A  
                                   l8765 44E4                                     l8757 4492  
                                   l9477 3128                                     l7797 13A4  
                                   l7789 137A                                     l7973 20C4  
                                   l7965 20AA                                     l7949 1FFC  
                                   l7957 2044                                     l7885 1E28  
                                   l7893 1E48                                     l7877 1DEA  
                                   l7869 1DB8                                     l7981 14DE  
                                   l9469 2F52                                     l8597 2F02  
                                   l8589 2EBC                                     l8685 47C8  
                                   l8693 474C                                     l8781 455A  
                                   l8759 44A6                                     l9479 344C  
                                   l7799 13A6                                     l7967 20AE  
                                   l7959 205E                                     l7895 1E58  
                                   l7887 1E30                                     l7879 1DF2  
                                   l7991 151C                                     l7983 14EC  
                                   l8599 2F12                                     l8775 4836  
                                   l8687 47DA                                     l8679 4794  
                                   l8695 4772                                     l8791 3E44  
                                   l8783 457C                                     l7969 20BC  
                                   l7897 1E58                                     l7889 1E34  
                                   l7993 152C                                     l7985 14FA  
                                   l8777 4844                                     l8697 4784  
                                   l8689 473A                                     l8793 3E60  
                                   l8785 4596                                     l7995 1532  
                                   l7987 14FC                                     l8779 4852  
                                   l8795 3E64                                     l8787 45A8  
                                   l7997 1542                                     l7989 150C  
                                   l8797 3E76                                     l8789 3E28  
                                   l7999 1548                                     l8799 3E92  
                                   STR_1 1017                                     STR_4 100F  
                                   STR_5 1001                                     _LATA 0F89  
                                   _LATB 0F8A                                     _LATC 0F8B  
                                   _LATD 0F8C                                     _LATE 0F8D  
                                   u8000 2016                                     u8001 2012  
                                   u8010 205E                                     u8011 205A  
                                   u8020 208E                                     u8100 15B4  
                                   u8021 208A                                     u8101 15B0  
                                   u8030 20BC                                     u8110 15C4  
                                   u8031 20B8                                     u8111 15C0  
                                   u8200 1884                                     u8120 173E  
                                   u8040 14FA                                     u7304 35C8  
                                   u9000 3E44                                     u7400 4310  
                                   u8201 1880                                     u8041 14F6  
                                   u7305 35C4                                     u9001 3E40  
                                   u7401 430C                                     u8210 18B2  
                                   u8130 1798                                     u8050 150C  
                                   u7330 32B2                                     u9010 3E60  
                                   u8211 18AE                                     u8131 1794  
                                   u8051 1508                                     u7331 32AE  
                                   u9011 3E5C                                     u7500 111E  
                                   u7420 1038                                     u8220 18EC  
                                   u8140 17B8                                     u8060 151C  
                                   u8300 264E                                     u7340 32D4  
                                   u9020 3E92                                     u7501 111A  
                                   u7421 1034                                     u8221 18E8  
                                   u8141 17B4                                     u8125 1734  
                                   u8061 1518                                     u8301 264A  
                                   u7341 32D0                                     u9021 3E8E  
                                   i2l62 461C                                     u7510 118C  
                                   u7430 104A                                     u8150 17CA  
                                   u8070 155C                                     u8230 376C  
                                   u8310 265C                                     u7270 351E  
                                   u7511 1188                                     u7431 1046  
                                   u8151 17C6                                     u8071 1558  
                                   u8231 3768                                     u8311 2658  
                                   u7271 351A                                     i2l80 4228  
                                   u7600 126A                                     u7520 11A4  
                                   u7440 105A                                     u8160 17F8  
                                   u8080 156E                                     u8240 37A2  
                                   u8320 26B8                                     u7280 3540  
                                   u7601 1266                                     u7521 119E  
                                   u7441 1056                                     u8161 17F4  
                                   u8081 156A                                     u8321 26B4  
                                   u7281 353C                                     u7610 1288  
                                   u7530 11A6                                     u7450 109C  
                                   u8170 180E                                     u8090 157E  
                                   u8250 37D2                                     u8330 270E  
                                   u7370 33B2                                     u7354 32F8  
                                   i2l67 467E                                     u7611 1284  
                                   u7451 1098                                     u8171 180A  
                                   u8091 157A                                     u8251 37CE  
                                   u8331 270A                                     u7371 33AC  
                                   u7355 32F4                                     u7700 13C6  
                                   u7620 12C0                                     u7540 11CE  
                                   u7460 10B2                                     u8180 1822  
                                   u8260 37E6                                     u8340 2758  
                                   u7380 33B4                                     u7364 335C  
                                   i2l85 4942                                     u7701 13C2  
                                   u7621 12BC                                     u7541 11CA  
                                   u7461 10AE                                     u8181 181E  
                                   u8261 37E2                                     u8245 3796  
                                   u8341 2754                                     u7365 3358  
                                   u8510 33F6                                     u7710 13DC  
                                   u7630 1306                                     u7550 11EC  
                                   u7470 10C4                                     u8190 183C  
                                   u8270 380E                                     u8350 2776  
                                   u7294 3564                                     u7390 4376  
                                   u8511 33F2                                     u7711 13D8  
                                   u7631 1302                                     u7551 11E8  
                                   u7471 10C0                                     u8191 1838  
                                   u8271 380A                                     u8351 2772  
                                   u7295 3560                                     u7391 4372  
                                   u8520 348C                                     u7800 14CA  
                                   u7720 13F2                                     u7640 133C  
                                   u7560 120C                                     u7480 10D4  
                                   u8280 382E                                     u8360 2786  
                                   u8440 43E0                                     u8600 4442  
                                   u8521 3488                                     u7801 14C6  
                                   u7721 13EE                                     u7641 1338  
                                   u7561 1208                                     u7481 10D0  
                                   u8281 382A                                     u8361 2782  
                                   u8441 43DC                                     u8601 443E  
                                   u8530 301C                                     u7730 1406  
                                   u7650 134C                                     u7570 121A  
                                   u7490 1110                                     u7810 1D50  
                                   u8290 383E                                     u8370 2794  
                                   u8450 4402                                     u8610 445E  
                                   u8531 3018                                     u7731 1402  
                                   u7651 1348                                     u7571 1216  
                                   u7491 110C                                     u7811 1D4C  
                                   u8291 383A                                     u8371 2790  
                                   u8451 43FE                                     u8611 445A  
                                   u8700 397A                                     u8540 30C6  
                                   u7740 1420                                     u7660 1378  
                                   u7580 122A                                     u7900 1EF0  
                                   u7820 1D62                                     u8380 27CE  
                                   u8620 4484                                     u8460 413C  
                                   u8701 3976                                     u8541 30C2  
                                   u7741 141C                                     u7661 1374  
                                   u7581 1226                                     u7901 1EEC  
                                   u7821 1D5E                                     u8381 27CA  
                                   u8621 4480                                     u8461 4138  
                                   u8710 3A20                                     u7750 145A  
                                   u7670 1388                                     u7590 125C  
                                   u7910 1F1A                                     u7830 1D72  
                                   u8390 27DC                                     u8550 2B72  
                                   u8470 416A                                     u8711 3A1C  
                                   u7751 1456                                     u7671 1384  
                                   u7591 1258                                     u7911 1F16  
                                   u7831 1D6E                                     u8391 27D8  
                                   u8551 2B6E                                     u8720 3A46  
                                   u7760 146C                                     u7680 13A4  
                                   u7920 1F3E                                     u7840 1DB6  
                                   u8560 2B98                                     u8800 2ED4  
                                   u8640 316C                                     u8480 419A  
                                   u8721 3A42                                     u7761 1468  
                                   u7681 13A0                                     u7921 1F3A  
                                   u7841 1DB2                                     u8561 2B94  
                                   u8801 2ED0                                     u8641 3168  
                                   u8730 4A76                                     u7770 147C  
                                   u7690 13B4                                     u7930 1F54  
                                   u7850 1DC8                                     u8810 2EF6  
                                   u8650 31A8                                     u8570 2D24  
                                   u8490 41AA                                     u8731 4A72  
                                   u7771 1478                                     u7691 13B0  
                                   u7931 1F50                                     u7851 1DC4  
                                   u8811 2EF2                                     u9507 4A10  
                                   u8651 31A4                                     u8571 2D20  
                                   u8491 41A6                                     u8740 4B32  
                                   u7780 149C                                     u7940 1F72  
                                   u7860 1DD8                                     u8820 2F98  
                                   u8580 2E24                                     u8660 48D6  
                                   u8741 4B2E                                     u7781 1498  
                                   u7941 1F6E                                     u7861 1DD4  
                                   u8821 2F94                                     u8581 2E20  
                                   u8477 4160                                     u8661 48D2  
                                   u8750 3F76                                     u7790 14AE  
                                   u7950 1F92                                     u7870 1E18  
                                   u8830 2FD0                                     u8590 2E70  
                                   u8751 3F72                                     u7791 14AA  
                                   u7951 1F8E                                     u7871 1E14  
                                   u8831 2FCC                                     u8591 2E6C  
                                   u8487 4190                                     u8760 3F86  
                                   u7960 1FA4                                     u7880 1E58  
                                   u8840 46F2                                     u8761 3F82  
                                   u7961 1FA0                                     u7881 1E54  
                                   u8841 46EE                                     u9457 4588  
                                   u8770 3FA6                                     u7970 1FD2  
                                   u7890 1ECE                                     u8850 470E  
                                   u8771 3FA2                                     u7971 1FCE  
                                   u7891 1ECA                                     u8851 470A  
                                   u9467 45B0                                     u7980 1FE8  
                                   u8860 4730                                     u7981 1FE4  
                                   u9477 31D8                                     u8861 472C  
                                   u8950 44A6                                     u7990 1FFC  
                                   u8790 2EB8                                     u8870 40AC  
                                   u8951 44A2                                     u7991 1FF8  
                                   u8791 2EB4                                     u8871 40A8  
                                   u9487 31FC                                     u8960 44B6  
                                   u8785 3FE2                                     u8961 44B2  
                                   u9497 321A                                     u8970 44E4  
                                   u8971 44E0                                     _TMR2 0FCC  
                   _lcd_4bit_send_string 4128                                     abs@a 0007  
                                   _dbuf 0144                                     _main 4AF4  
                       __end_of_CCP1_ISR 4B7A                         __end_of_CCP2_ISR 4B76  
                       ADC_GetResult@pin 008E                                     _prec 004B  
                                   _temp 004D                                     _time 016C  
                                   fsr0h 0FEA                                     fsr1h 0FE2  
                                   indf0 0FEF                                     fsr2h 0FDA  
                                   fsr0l 0FE9                                     indf2 0FDF  
                                   fsr1l 0FE1                                     fsr2l 0FD9  
                                   btemp 0072                         __end_of_ADC_Init 3A56  
                                   prodh 0FF4                                     prodl 0FF3  
                                   start 000E                             i2___fltol@f1 0041  
                        ___fldiv@new_exp 00AD                    __end_of_CCP_PWM_Start 4492  
                  _CCP_PWM_Set_Duty$3865 017B                 __end_of_operation_select 3EC6  
                   _RB7_InterruptHandler 005B                             ___param_bank 0000  
                  _lcd_4bit_send_command 4362                                    ??_abs 0009  
                   CCP_PWM_Start@ccp_obj 008E         i2lcd_4bit_send_string_pos@column 0019  
         lcd_4bit_send_string_pos@column 00A6                    lcd_4bit_intialize@lcd 009D  
                  lcd_4bit_intialize@ret 00A1                         __end_of_INT0_ISR 4B72  
                       __end_of_INT1_ISR 4B6E                         __end_of_INT2_ISR 4B6A  
                          ___fltol@sign1 00E2                          __end_of___fladd 14DE  
                                  ?_main 0186                          __end_of___fldiv 20D0  
                __end_of_set_cursor_4bit 3F62                          __end_of___awdiv 3CBE  
                                  _EEADR 0FA9                          __end_of___awmod 3E28  
                        __end_of___flmul 190A                          __end_of___fltol 3860  
                        ___awdiv@divisor 0003                                    i2l143 4834  
                                  i2l156 4558                                    i2l317 4AF2  
                                  i2l182 4096                                    i2l159 4AC4  
                                  i2l470 4B78                                    i2l554 3752  
                                  i2l474 4B74                                    i2l804 296A  
                                  i2l661 4B6C                                    i2l912 4B5C  
                                  i2l657 4B70                                    i2l665 4B68  
                                  i2l950 4B64                                    i2l856 4B44  
                        ___awdiv@counter 0005                             vfpfcnvrt@fmt 000C  
                                  _TMR0H 0FD7                                    _TMR1H 0FCF  
                                  _TMR0L 0FD6                                    _TMR1L 0FCE  
                                  _TMR3H 0FB3                                    _TMR3L 0FB2  
                                  _PORTA 0F80                                    _PORTB 0F81  
                                  _PORTC 0F82                                    _PORTD 0F83  
                                  _PORTE 0F84                                    _TRISA 0F92  
                                  _TRISB 0F93                                    _TRISC 0F94  
                                  _TRISD 0F95                                    _TRISE 0F96  
          __end_of_CCPx_SET_COMPARE_MODE 3158                i2_send_4bit_enable_signal 4A94  
                       __end_of_TMR1_ISR 4B5E                         __end_of_TMR2_ISR 4B66  
                       __end_of_TMR3_ISR 4B52               __end_of_ADC_Select_channel 4A94  
                                  _flags 006B                                    _fputc 3CBE  
                          i2___fldiv@grs 003B                            i2___fldiv@rem 0034  
                                  _speed 00E6                                    _width 00E4  
                                  _putch 4B7C                    ?_lcd_4bit_send_string 009D  
                                  pclath 0FFA                                    pclatu 0FFB  
                                  tablat 0FF5                                    ttemp5 0073  
                                  ttemp6 0076                                    ttemp7 007A  
                                  status 0FD8                              i2_send_4bit 44F6  
                                  wtemp8 0073                          __end_of_sprintf 49C0  
                          i2___flmul@grs 001C                  ADC_GetConversion@result 0098  
                 i2_gpio_pin_Write_logic 3632                          __initialization 4296  
                           __end_of_main 4B1E                                ??_ADC_ISR 004B  
                      __end_of_CCPx_Init 3004                            _lat_registers 010A  
                                 ??_main 00E4                       set_cursor_4bit@lcd 009D  
                          __activetblptr 0003                       set_cursor_4bit@row 009F  
                  _TMR3_InterruptHandler 0051                     i2_lcd_4bit_send_data 461E  
                       led_turn_on@F3065 006E                        Heater_Operate@ACC 0183  
                            ?i2___xxtofl 0001                   send_4bit@_data_command 0099  
                                 ?_fputc 0001                                   _ADRESH 0FC4  
                                 _EEADRH 0FAA                                   _ADRESL 0FC3  
                                 _EEDATA 0FA8                                   _CCPR1L 0FBE  
                                 _CCPR2L 0FBB                                   _EECON2 0FA7  
                       ___awdiv@dividend 0001                   _CCPx_SET_PWM_MODE$3866 017A  
                 _CCPx_SET_PWM_MODE$3867 017E                                   ?_putch 0001  
                                 i2l1002 4B50                                   i2l1410 3964  
                                 i2l1059 3BF8                                   i2l1344 3CBC  
                                 i2l1700 228C                                   i2l1357 3E26  
                                 i2l1706 230E                                   i2l1731 1D32  
                                 i2l1708 2386                                   i2l5101 494C  
                                 i2l1709 2374                                   i2l1734 1BC4  
                                 i2l5103 495C                                   i2l1727 19CE  
                                 i2l1744 1CF4                                   i2l1736 1C3C  
                                 i2l5041 24A8                                   i2l5033 246A  
                                 i2l1841 4982                                   i2l5105 497A  
                                 i2l1737 1C2A                                   i2l1835 2636  
                                 i2l5051 2510                                   i2l5043 24B2  
                                 i2l5035 248E                                   i2l1771 2B58  
                                 i2l1860 3D76                                   i2l1845 4A48  
                                 i2l5061 259A                                   i2l5053 2528  
                                 i2l5045 24D0                                   i2l5037 2496  
                                 i2l6101 2182                                   i2l1790 49F6  
                                 i2l1782 2AF0                                   i2l1871 4B7C  
                                 i2l5063 25AA                                   i2l5071 25F0  
                                 i2l5055 255C                                   i2l5047 24EE  
                                 i2l5039 24A4                                   i2l1695 2468  
                                 i2l6111 21C2                                   i2l6103 2184  
                                 i2l6031 388A                                   i2l1775 2A94  
                                 i2l3703 4B52                                   i2l1848 4A60  
                                 i2l1768 29FC                                   i2l5065 25BA  
                                 i2l5057 2578                                   i2l5049 2506  
                                 i2l5073 2606                                   i2l1697 22C8  
                                 i2l6121 21F2                                   i2l6113 21CA  
                                 i2l6105 218C                                   i2l6041 38D8  
                                 i2l6033 38B4                                   i2l6025 3860  
                                 i2l3705 4B54                                   i2l5067 25D0  
                                 i2l5059 258A                                   i2l6131 2230  
                                 i2l6123 21F2                                   i2l6115 21CE  
                                 i2l6107 219C                                   i2l6211 1924  
                                 i2l6051 3904                                   i2l6035 38B6  
                                 i2l6027 3876                                   i2l3651 4B6A  
                                 i2l3707 4B58                                   i2l3715 4B46  
                                 i2l5069 25EE                                   i2l5077 2612  
                                 i2l1797 49BE                                   i2l5181 4990  
                                 i2l6141 227C                                   i2l6133 2240  
                                 i2l6109 21B2                                   i2l6301 1BF4  
                                 i2l6221 195C                                   i2l6213 1926  
                                 i2l6061 3934                                   i2l6037 38C6  
                                 i2l3717 4B48                                   i2l5183 4998  
                                 i2l6151 22C6                                   i2l6143 228A  
                                 i2l6135 2250                                   i2l6127 2206  
                                 i2l6119 21E2                                   i2l6071 20DC  
                                 i2l6311 1C66                                   i2l6303 1C22  
                                 i2l6231 1988                                   i2l6223 196C  
                                 i2l6215 1936                                   i2l6207 190A  
                                 i2l6063 3944                                   i2l6047 38F0  
                                 i2l6039 38CA                                   i2l3647 4B6E  
                                 i2l3655 4B66                                   i2l3719 4B4C  
                                 i2l5185 49A0                                   i2l6161 230C  
                                 i2l6153 22D8                                   i2l6145 2296  
                                 i2l6137 2258                                   i2l6129 2220  
                                 i2l6081 211C                                   i2l6073 20EA  
                                 i2l6321 1CDC                                   i2l6313 1C90  
                                 i2l6241 19DE                                   i2l6233 1998  
                                 i2l6225 1972                                   i2l6217 1946  
                                 i2l6209 1916                                   i2l6065 3954  
                                 i2l6057 3918                                   i2l6049 38FA  
                                 i2l5099 4944                                   i2l5187 49B0  
                                 i2l5179 4984                                   i2l6171 236C  
                                 i2l6155 22EE                                   i2l6163 231E  
                                 i2l6147 22B4                                   i2l6139 2268  
                                 i2l6091 2142                                   i2l6083 211E  
                                 i2l6075 20EC                                   i2l6323 1CF8  
                                 i2l6331 1D1E                                   i2l6307 1C4C  
                                 i2l6315 1C94                                   i2l6251 1A18  
                                 i2l6243 19EE                                   i2l6235 19A8  
                                 i2l6227 1978                                   i2l6219 1956  
                                 i2l6059 3924                                   i2l4901 3C18  
                                 i2l6181 23DA                                   i2l6165 232C  
                                 i2l6157 22F4                                   i2l6149 22B6  
                                 i2l6093 2150                                   i2l6077 20FC  
                                 i2l6085 2126                                   i2l6069 20D0  
                                 i2l6333 1D22                                   i2l6325 1D08  
                                 i2l6317 1CAE                                   i2l6309 1C58  
                                 i2l6261 1A6A                                   i2l6253 1A2E  
                                 i2l6237 19B8                                   i2l6229 1986  
                                 i2l6341 29C6                                   i2l4911 3C4C  
                                 i2l4903 3C26                                   i2l6191 2444  
                                 i2l6175 2396                                   i2l6183 23DE  
                                 i2l6167 2330                                   i2l6159 22FE  
                                 i2l6095 2152                                   i2l6087 2136  
                                 i2l6079 210C                                   i2l6327 1D16  
                                 i2l6319 1CC2                                   i2l6271 1AB0  
                                 i2l6263 1A78                                   i2l6255 1A3A  
                                 i2l6247 1A02                                   i2l6239 19BE  
                                 i2l6351 2A3E                                   i2l6343 2A0C  
                                 i2l3695 4B3A                                   i2l4921 3C86  
                                 i2l4913 3C54                                   i2l4905 3C2E  
                                 i2l6193 2448                                   i2l6185 23F8  
                                 i2l6177 23A2                                   i2l6169 233E  
                                 i2l6097 2162                                   i2l6089 213C  
                                 i2l6329 1D18                                   i2l6281 1B1E  
                                 i2l6273 1ACA                                   i2l6265 1A84  
                                 i2l6257 1A52                                   i2l6249 1A0E  
                                 i2l6361 2AC6                                   i2l6353 2A4A  
                                 i2l6345 2A22                                   i2l6337 29A8  
                                 i2l8201 41AC                                   i2l3697 4B3C  
                                 i2l4931 3CAC                                   i2l4923 3C8E  
                                 i2l4915 3C5C                                   i2l4907 3C32  
                                 i2l6195 2456                                   i2l6187 240E  
                                 i2l6179 23B0                                   i2l6099 2172  
                                 i2l6291 1BB4                                   i2l6283 1B48  
                                 i2l6275 1ADA                                   i2l6267 1A94  
                                 i2l6259 1A5E                                   i2l6371 2B04  
                                 i2l6363 2AD2                                   i2l6355 2A7C  
                                 i2l6339 29B8                                   i2l8211 41F6  
                                 i2l8203 41AC                                   i2l3699 4B40  
                                 i2l4933 3CB4                                   i2l4925 3C90  
                                 i2l4917 3C6A                                   i2l4909 3C3A  
                                 i2l4941 3D8A                                   i2l6197 245C  
                                 i2l6189 2428                                   i2l6293 1BC2  
                                 i2l6285 1B7E                                   i2l6277 1AF6  
                                 i2l6269 1AA0                                   i2l6373 2B28  
                                 i2l6365 2AE0                                   i2l6357 2A7E  
                                 i2l6349 2A36                                   i2l8205 41BE  
                                 i2l8221 4046                                   i2l8213 3FFE  
                                 i2l9101 28E6                                   i2l4927 3C96  
                                 i2l4919 3C70                                   i2l4951 3DBE  
                                 i2l4943 3D92                                   i2l6199 245E  
                                 i2l6295 1BD4                                   i2l6287 1B8C  
                                 i2l6279 1B02                                   i2l6375 2B38  
                                 i2l6367 2AFE                                   i2l6359 2A8A  
                                 i2l8207 41C2                                   i2l8215 4004  
                                 i2l8223 405C                                   i2l9111 2918  
                                 i2l9103 28EA                                   i2l4929 3C9C  
                                 i2l4961 3DFA                                   i2l4953 3DC6  
                                 i2l4945 3D96                                   i2l4937 3D78  
                                 i2l6297 1BE2                                   i2l6289 1BAA  
                                 i2l6377 2B46                                   i2l6369 2B00  
                                 i2l7521 366A                                   i2l7513 3632  
                                 i2l8209 41F2                                   i2l8217 401A  
                                 i2l9121 294A                                   i2l9113 2926  
                                 i2l9105 28F8                                   i2l4963 3E00  
                                 i2l4955 3DCE                                   i2l4947 3DA4  
                                 i2l4939 3D7C                                   i2l6299 1BE6  
                                 i2l6379 2B48                                   i2l7523 36CC  
                                 i2l7515 3632                                   i2l8219 4030  
                                 i2l6723 4B72                                   i2l9123 2958  
                                 i2l9115 292A                                   i2l9107 2906  
                                 i2l4893 3BFA                                   i2l4957 3DDC  
                                 i2l4965 3E06                                   i2l4949 3DAC  
                                 i2l4981 3D04                                   i2l4973 3CBE  
                                 i2l7517 3644                                   i2l9125 2966  
                                 i2l9117 2938                                   i2l9109 290A  
                                 i2l4895 3BFE                                   i2l4967 3E16  
                                 i2l4959 3DF2                                   i2l4983 3D36  
                                 i2l4975 3CCE                                   i2l8271 47EC  
                                 i2l7527 3728                                   i2l7519 3666  
                                 i2l8431 491A                                   i2l6719 4B76  
                                 i2l6727 4B5E                                   i2l9119 2946  
                                 i2l9071 2846                                   i2l7633 49C0  
                                 i2l4897 3C0C                                   i2l4969 3E1E  
                                 i2l4977 3CDE                                   i2l8273 47EC  
                                 i2l7561 4AB0                                   i2l8433 492E  
                                 i2l8425 4904                                   i2l9081 2878  
                                 i2l9073 284A                                   i2l7635 49CC  
                                 i2l4899 3C14                                   i2l4987 4A2E  
                                 i2l4979 3CE8                                   i2l8275 47FE  
                                 i2l7555 44F6                                   i2l7571 45BC  
                                 i2l8427 4904                                   i2l9091 28AA  
                                 i2l9083 2886                                   i2l9075 2858  
                                 i2l9067 282A                                   i2l7637 49D8  
                                 i2l4989 4A3C                                   i2l8277 4802  
                                 i2l7557 4A94                                   i2l7581 461E  
                                 i2l7573 45BC                                   i2l8429 4916  
                                 i2l9093 28B8                                   i2l9085 288A  
                                 i2l9077 2866                                   i2l9069 2838  
                                 i2l7639 49DC                                   i2l8279 481E  
                                 i2l7559 4AA8                                   i2l7583 461E  
                                 i2l7575 45CE                                   i2l9095 28C6  
                                 i2l9087 2898                                   i2l9079 286A  
                                 i2l7585 4630                                   i2l7577 45D2  
                                 i2l9097 28CA                                   i2l9089 28A6  
                                 i2l7587 4634                                   i2l9099 28D8  
                                 i2l8671 3B32                                   i2l8673 3BAE  
                                 i2l8675 3BBC                                   i2l8771 4AC8  
                                 i2l9485 4070                                   i2l8677 3BDC  
                                 i2l8773 4ADA                                   i2l9487 373C  
                                 i2l8769 4AC6                            vfpfcnvrt@done 000F  
              ADC_Select_channel@channel 0093                         __end_of___xxtofl 27F0  
       __end_of_lcd_4bit_send_string_pos 4904                                   _Heater 011E  
                             _Timer0_ISR 4B3A                   ?_lcd_4bit_send_command 009A  
                           vfprintf@cfmt 0019                        __end_of_TMR2_Init 4128  
                              ??___fladd 00BD                                ??___fldiv 00A4  
                              ??___awdiv 0005                                ??___awmod 0005  
                              ??___flmul 00CD                                ??___fltol 0172  
                                 _memset 49C0                                   clear_0 42D4  
                                 clear_1 42E0                                   clear_2 42EC  
                       ___awdiv@quotient 0007                           i2___fldiv@aexp 0040  
                         i2___fldiv@bexp 003F                          ___awmod@divisor 0003  
                                 isa$std 0001                           i2___fldiv@sign 0038  
                        ___awmod@counter 0005                    ?i2_lcd_4bit_send_data 000D  
                       ?_set_cursor_4bit 009D  gpio_pin_direction_intialize@_pin_config 008E  
                                 fputc@c 0001                                ?_CCP1_ISR 0001  
                              ?_CCP2_ISR 0001                        __end_ofi2___fldiv 246A  
           CCPx_SET_TIMER_CONFIG@ccp_obj 008E                        __end_ofi2___flmul 1D34  
                      __end_ofi2___fltol 3966                                ?_ADC_Init 0091  
                           __mediumconst 0000                                   tblptrh 0FF7  
                                 tblptrl 0FF6                                   tblptru 0FF8  
               ADC_GetConversion@channel 0097                                   putch@c 0001  
                       __end_of_vfprintf 4984                   ??_lcd_4bit_send_string 00A1  
                           ??_AC_Operate 0181                                ??_sprintf 001F  
                CCP_PWM_Set_Duty@ccp_obj 0176                           i2___flmul@aexp 0020  
                         i2___flmul@bexp 0021                            _ADC_GetResult 3F62  
                         i2___flmul@sign 001B                           i2___flmul@temp 0026  
                         i2___flmul@prod 0022                          _InterruptManger 0008  
               ?_send_4bit_enable_signal 0097                  _Timer0_InterruptHandler 0059  
                  set_cursor_4bit@column 00A0                             ___xxtofl@arg 0098  
                           ___xxtofl@exp 0097                             ___xxtofl@val 008E  
                             __accesstop 0080                  __end_of__initialization 42F2  
                         i2___fltol@exp1 004A                 ??_convert_byte_to_string 002E  
                              ?_INT0_ISR 0001                                ?_INT1_ISR 0001  
                       _CCP_PWM_Set_Duty 2D08                                ?_INT2_ISR 0001  
                          ___rparam_used 0001                               ___fltol@f1 00DE  
                i2_lcd_4bit_send_command 45BC                             _CCP_PWM_Stop 46DE  
                         __pcstackCOMRAM 0001                    lcd_4bit_send_data@lcd 009A  
                      fp__Write_temp_LCD 0000                             __pidataBANK0 4B7A  
                           __pidataBANK1 487E                                ?_TMR1_ISR 0001  
                              ?_TMR2_ISR 0001                                ?_TMR3_ISR 0001  
                          __end_of_fputc 3D78                            __end_of_putch 4B7E  
                     __end_of_AC_Operate 47EA                 lcd_4bit_send_command@lcd 009A  
           ??i2_lcd_4bit_send_string_pos 001C                    _CCPx_SET_CAPTURE_MODE 33DE  
                       CCPx_Init@ccp_obj 0182                               ??_CCP1_ISR 0001  
                             ??_CCP2_ISR 0001                               ??_ADC_Init 0093  
                ??_CCPx_SET_TIMER_CONFIG 0090                           _Heater_Operate 473A  
                         ?_ADC_GetResult 008E                                  ??_fputc 0004  
                             _base_speed 00F0                  lcd_4bit_send_string@lcd 009D  
                lcd_4bit_send_string@str 009F                                  ??_putch 0001  
                  CCP_PWM_Set_Duty@_duty 0178                   ADC_StartConversion@pin 008E  
                             __pbssBANK0 00E4                               __pbssBANK1 0144  
                  _INT0_InterruptHandler 0067                               ??_INT0_ISR 0001  
                             ??_INT1_ISR 0001                               ??_INT2_ISR 0001  
                            ?_Timer0_ISR 0001                        ?_operation_select 0001  
                             ??_TMR1_ISR 0001                               ??_TMR2_ISR 0001  
                             ??_TMR3_ISR 0001                        led_turn_off@F3070 006D  
                     ??_operation_select 00E4                                  _ADC_ISR 4AC6  
                        led_toggle@F3075 006C                                  ?_memset 0001  
                 ??i2_lcd_4bit_send_data 0010                                ?___xxtofl 008E  
                 __end_of_Heater_Operate 4794                ?_lcd_4bit_send_string_pos 00A3  
                __end_of_InterruptManger 29A6             __end_of_gpio_pin_Write_logic 3632  
                          ??_ADC_Set_bit 008E                           _tris_registers 0114  
                           ?i2_send_4bit 000A                  ?i2_gpio_pin_Write_logic 0001  
              ??i2_lcd_4bit_send_command 0010            i2lcd_4bit_send_string_pos@lcd 0016  
                   ADC_GetConversion@pin 0095            i2lcd_4bit_send_string_pos@row 0018  
          i2lcd_4bit_send_string_pos@str 001A                     _ADC_InterruptHandler 0069  
                     _ADC_Select_channel 4A62                                  __Hparam 0000  
                                __Lparam 0000                                  ___fladd 101C  
                                ___fldiv 1D34                                  ___awdiv 3BFA  
                                ___awmod 3D78                                  ___flmul 14DE  
                                ___fltol 3754                 ??i2_lcd_4bit_send_string 0014  
                              ?_vfprintf 0016                             __psmallconst 1000  
                    ?_ADC_Select_channel 0091               __end_of_gpio_pin_intialize 442E  
                                __pcinit 4296                                  __ramtop 1000  
                 ?_CCPx_SET_CAPTURE_MODE 008E                                  __ptext0 4AF4  
                                __ptext1 455A                                  __ptext2 48C2  
                                __ptext3 3EC6                                  __ptext4 4128  
                                __ptext5 42FC                                  __ptext6 3E28  
                                __ptext7 473A                                  __ptext8 46DE  
                                __ptext9 4794                            _intialization 4836  
                              _T0CONbits 0FD5                                _T1CONbits 0FCD  
                              _T2CONbits 0FCA                                _CCPx_Init 2EA4  
                           ??i2___xxtofl 0005                               ??___xxtofl 0092  
                              _T3CONbits 0FB1                         ___awmod@dividend 0001  
                        ?_Heater_Operate 0001                          ??_ADC_GetResult 0091  
                    ADC_GetResult@result 0090                        __end_of_send_4bit 4296  
                i2set_cursor_4bit@column 0013                                  _sprintf 4984  
                  _CCPx_SET_COMPARE_MODE 3004                           __pintcode_body 27F0  
                   end_of_initialization 42F2                     ??_ADC_Select_channel 0094  
                      ??_welcome_message 00A9           __end_ofi2_gpio_pin_Write_logic 3754  
                                fputc@fp 0003                                  memset@c 0003  
                                memset@n 0005                                  memset@p 0007  
                                int_func 27F0               __end_of_lcd_4bit_intialize 329E  
                ??_lcd_4bit_send_command 009D                      __end_of_ADC_Set_bit 3B32  
                         i2___xxtofl@arg 000B                           i2___xxtofl@exp 000A  
                         i2___xxtofl@val 0001                    gpio_pin_intialize@ret 009A  
                i2lcd_4bit_send_data@lcd 000D               __end_of_lcd_4bit_send_data 4362  
                         _Write_temp_LCD 3B32                        __end_of_vfpfcnvrt 2638  
                     __end_ofi2___xxtofl 2B5A                                  postdec1 0FE5  
                                postdec2 0FDD                                  postinc0 0FEE  
                                postinc1 0FE6                                  postinc2 0FDE  
                       vfpfcnvrt@convarg 0011                    ADC_Select_channel@pin 0091  
                             ??_vfprintf 0019              i2gpio_pin_Write_logic@logic 0003  
     __end_ofi2_lcd_4bit_send_string_pos 4944               i2_lcd_4bit_send_string_pos 4904  
                         ?_intialization 0001                                _TMR2_Init 4098  
                  _INT1_InterruptHandler 0065                   _convert_byte_to_string 47EA  
               __end_of_CCP_PWM_Set_Duty 2EA4            gpio_pin_intialize@_pin_config 0097  
                             ?_CCPx_Init 0182                              ___fladd@grs 00C4  
   __end_of_gpio_pin_direction_intialize 33DE             _gpio_pin_direction_intialize 329E  
                       ?_InterruptManger 0001                            ___xxtofl@sign 0096  
           CCPx_SET_CAPTURE_MODE@ccp_obj 008E             CCPx_SET_COMPARE_MODE@ccp_obj 008E  
                    _ADC_StartConversion 4B1E                              ___fldiv@grs 00AF  
                            ___fldiv@rem 00A8                          i2___fltol@sign1 0049  
                      _CCPx_SET_PWM_MODE 2B5A                                i2___fldiv 20D0  
                              i2___flmul 190A                                i2___fltol 3860  
               CCP_PWM_Set_Duty@duty_cyc 017F                       ?_CCPx_SET_PWM_MODE 0176  
                            ___flmul@grs 00D3                              _CCP1CONbits 0FBD  
                            _CCP2CONbits 0FBA                   __end_of_Write_temp_LCD 3BFA  
                    ??_CCPx_SET_PWM_MODE 0178                            _CCP_PWM_Start 442E  
                   ?_ADC_StartConversion 008E                     _gpio_pin_Write_logic 350A  
                 lcd_4bit_send_data@data 009C              lcd_4bit_send_string_pos@lcd 00A3  
            lcd_4bit_send_string_pos@row 00A5              lcd_4bit_send_string_pos@str 00A7  
                            vfpfcnvrt@ap 000D                              vfpfcnvrt@cp 0010  
                            vfpfcnvrt@fp 000B                               ?_TMR2_Init 008E  
                         __end_of_memset 49F8                     i2set_cursor_4bit@lcd 0010  
                   i2set_cursor_4bit@row 0012                 i2send_4bit@_data_command 000C  
                    start_initialization 4296                __end_of_CCPx_SET_PWM_MODE 2D08  
                   _RB4_InterruptHandler 0061                              __end_of_abs 4A62  
          ?_gpio_pin_direction_intialize 008E                   ?_CCPx_SET_COMPARE_MODE 008E  
          __end_of_CCPx_SET_TIMER_CONFIG 46DE                               ?i2___fldiv 0028  
                             ?i2___flmul 000F                               ?i2___fltol 0041  
                            _ADC_Set_bit 3A56                      CCP_PWM_Stop@ccp_obj 008E  
                        ?_Write_temp_LCD 0001                             ??_Timer0_ISR 0001  
                         ?_CCP_PWM_Start 008E                    ??_ADC_StartConversion 0090  
                  ?_gpio_pin_Write_logic 008E                              vfprintf@fmt 0017  
                        ??_intialization 00E4                              __pdataBANK0 00F0  
                            __pdataBANK1 0100                convert_byte_to_string@str 002C  
                               ?_ADC_ISR 0001                                 ??_memset 0007  
                             memset@dest 0001             lcd_4bit_send_command@command 009C  
                              ___fladd@a 00B9                                ___fladd@b 00B5  
            convert_byte_to_string@value 002E                                ___fldiv@a 00A0  
                              ___fldiv@b 009C                              ??_CCPx_Init 0184  
                              ___flmul@a 00C9                                ___flmul@b 00C5  
                            __pbssCOMRAM 004B                            __pcstackBANK0 0080  
                          __pcstackBANK1 0172                       __end_of_Timer0_ISR 4B46  
                           send_4bit@lcd 0097                   i2_lcd_4bit_send_string 41AC  
                      i2_set_cursor_4bit 3FFE                    _INT2_InterruptHandler 0063  
                     ?i2_set_cursor_4bit 0010                      ??i2_set_cursor_4bit 0014  
                              __pintcode 0008                                 ?___fladd 00B5  
                ??_CCPx_SET_CAPTURE_MODE 0090                i2lcd_4bit_send_string@lcd 0010  
                               ?___fldiv 009C                                 ?___awdiv 0001  
                     ADC_Set_bit@channel 0090                                 ?___awmod 0001  
                               ?___flmul 00C5                                 ?___fltol 00DE  
              i2lcd_4bit_send_string@str 0012                         ??_Heater_Operate 0181  
                            ??_TMR2_Init 0090                 CCPx_SET_PWM_MODE@ccp_obj 0176  
                        _welcome_message 455A                              __smallconst 1000  
                               _CCP1_ISR 4B76                                 _CCP2_ISR 4B72  
                               _ADC_Init 3966                              ADC_Init@pin 0091  
              __end_ofi2_set_cursor_4bit 4098                              ??i2___fldiv 0030  
                               ?_sprintf 001A                              ??i2___flmul 0017  
                            ??i2___fltol 0045                       _gpio_pin_intialize 43C8  
         ??_gpio_pin_direction_intialize 0090                            AC_Operate@ACC 0183  
                              _send_4bit 422A                                 _INT0_ISR 4B6E  
                               _INT1_ISR 4B6A                                 _INT2_ISR 4B66  
                        ??_CCP_PWM_Start 0090                      ?_gpio_pin_intialize 0097  
                               _PIE1bits 0F9D                                 _PIE2bits 0FA0  
                      ??_set_cursor_4bit 00A1                   ??_gpio_pin_Write_logic 0091  
                            _lcd_counter 00EF            __end_of_lcd_4bit_send_command 43C8  
                               i2u400_40 3C86                                 i2u400_41 3C82  
                               i2u401_40 3CAC                                 i2u401_41 3CA8  
                               i2u402_40 3D8A                                 i2u410_40 3D04  
                               i2u402_41 3D86                                 i2u410_41 3D00  
                               i2u403_40 3DA4                                 i2u411_40 3D36  
                               i2u403_41 3DA0                                 i2u411_41 3D32  
                               i2u404_40 3DBE                                 i2u412_40 4A3C  
                               i2u404_41 3DBA                                 i2u412_41 4A38  
                               i2u405_40 3DDC                                 i2u421_40 248E  
                               i2u405_41 3DD8                                 i2u421_41 248A  
                               i2u406_40 3DF2                                 i2u430_40 2602  
                               i2u422_40 24D0                                 i2u406_41 3DEE  
                               i2u430_41 25FE                                 i2u422_41 24CC  
                               i2u407_40 3E16                                 i2u423_40 24EE  
                               i2u431_40 497A                                 i2u407_41 3E12  
                               i2u423_41 24EA                                 i2u431_41 4976  
                               i2u408_40 3CCE                                 i2u424_40 2524  
                               i2u600_40 19A8                                 i2u408_41 3CCA  
                               i2u424_41 251E                                 i2u600_41 19A4  
                               i2u409_40 3CDE                                 i2u425_40 2526  
                               i2u601_40 19DE                                 i2u409_41 3CDA  
                               i2u601_41 19DA                                 _PIR1bits 0F9E  
                               i2u426_40 258A                                 i2u610_40 1C66  
                               i2u602_40 19EE                                 i2u426_41 2586  
                               i2u610_41 1C62                                 i2u602_41 19EA  
                               i2u427_40 259A                                 i2u611_40 1CAE  
                               i2u603_40 1B68                                 i2u427_41 2596  
                               i2u611_41 1CAA                                 _PIR2bits 0FA1  
                               i2u603_45 1B5E                                 i2u428_40 25AA  
                               i2u612_40 1CDC                                 i2u604_40 1BC2  
                               i2u620_40 2AF0                                 i2u428_41 25A6  
                               i2u612_41 1CD8                                 i2u604_41 1BBE  
                               i2u620_41 2AEC                                 i2u429_40 25BA  
                               i2u613_40 1D16                                 i2u605_40 1BE2  
                               i2u621_40 2AFE                     _RB5_InterruptHandler 005F  
                               i2u429_41 25B6                                 i2u613_41 1D12  
                               i2u605_41 1BDE                                 i2u621_41 2AFA  
                               i2u606_40 1BF4                                 i2u622_40 2B38  
                               i2u614_40 29B8                                 i2u606_41 1BF0  
                               i2u622_41 2B34                                 i2u614_41 29B4  
                               i2u607_40 1C22                                 i2u623_40 2B46  
                               i2u615_40 29C6                                 i2u607_41 1C1E  
                               i2u623_41 2B42                                 i2u615_41 29C2  
                               i2u608_40 1C38                                 i2u616_40 2A22  
                               i2u608_41 1C34                                 i2u616_41 2A1E  
                               i2u609_40 1C4C                                 i2u617_40 2A78  
                               i2u609_41 1C48                                 i2u617_41 2A74  
                               i2u570_40 3934                                 i2u618_40 2AC2  
                               i2u570_41 3930                                 i2u618_41 2ABE  
                               i2u571_40 3944                                 i2u619_40 2AE0  
                               i2u723_40 3644                                 i2u731_40 45CE  
                               i2u571_41 3940                                 i2u619_41 2ADC  
                               i2u723_41 3640                                 i2u731_41 45CA  
                               i2u396_40 3C0C                                 i2u580_40 2268  
                               i2u572_40 20EA                                 i2u724_40 3666  
                               i2u732_40 4630                                 i2u396_41 3C08  
                               i2u580_41 2264                                 i2u572_41 20E6  
                               i2u724_41 3662                                 i2u732_41 462C  
                               i2u741_40 49F6                                 i2u397_40 3C26  
                               i2u581_40 228A                                 i2u573_40 20FC  
                               i2u565_40 3876                                 i2u741_41 49F2  
                               i2u397_41 3C22                                 i2u581_41 2286  
                               i2u573_41 20F8                                 i2u565_41 3872  
                               i2u725_44 368A                                 i2u725_45 3686  
                               i2u398_40 3C4C                                 i2u590_40 2396  
                               i2u582_40 22B4                                 i2u574_40 210C  
                               i2u566_40 38AA                                 i2u398_41 3C48  
                               i2u590_41 2392                                 i2u582_41 22B0  
                               i2u574_41 2108                                 i2u726_44 36EC  
                               i2u566_45 38A0                                 i2u726_45 36E8  
                               i2u399_40 3C6A                                 i2u591_40 23B0  
                               i2u583_40 22D8                                 i2u575_40 2150  
                               i2u567_40 38D8                                 i2u399_41 3C66  
                               i2u591_41 23AC                                 i2u583_41 22D4  
                               i2u575_41 214C                                 i2u567_41 38D4  
                               i2u592_40 23F8                                 i2u584_40 22EE  
                               i2u576_40 2162                                 i2u568_40 38EC  
                               i2u840_40 41BE                                 i2u592_41 23F4  
                               i2u584_41 22EA                                 i2u576_41 215E  
                               i2u568_41 38E8                                 i2u840_41 41BA  
                               i2u593_40 2428                                 i2u585_40 230C  
                               i2u577_40 2172                                 i2u569_40 3914  
                               i2u841_40 41EC                                 i2u593_41 2424  
                               i2u585_41 2308                                 i2u577_41 216E  
                               i2u569_41 3910                                 i2u841_47 41E2  
                               i2u850_40 47FE                                 i2u594_40 2456  
                               i2u586_40 232C                                 i2u578_40 21B2  
                               i2u842_40 4218                                 i2u930_40 2886  
                               i2u850_41 47FA                                 i2u594_41 2452  
                               i2u586_41 2328                                 i2u578_41 21AE  
                               i2u930_41 2882                                 i2u842_47 420E  
                               i2u587_40 233E                                 i2u579_40 21F2  
                               i2u595_40 1924                                 i2u843_40 4228  
                               i2u931_40 2898                                 i2u587_41 233A  
                               i2u579_41 21EE                                 i2u595_41 1920  
                               i2u843_41 4224                                 i2u931_41 2894  
             ?i2_send_4bit_enable_signal 000A                  _send_4bit_enable_signal 49F8  
                               i2u588_40 236C                                 i2u596_40 1936  
                               i2u940_40 2926                                 i2u932_40 28A6  
                               i2u588_41 2368                                 i2u596_41 1932  
                               i2u940_41 2922                                 i2u932_41 28A2  
                               i2u589_40 2382                                 i2u597_40 1946  
                               i2u941_40 2938                                 i2u933_40 28B8  
                               i2u925_40 2838                                 i2u589_41 237E  
                               i2u597_41 1942                                 i2u941_41 2934  
                               i2u933_41 28B4                                 i2u925_41 2834  
                               i2u598_40 1986                                 i2u942_40 2946  
                               i2u934_40 28C6                                 i2u926_40 2846  
                               i2u598_41 1982                                 i2u942_41 2942  
                               i2u934_41 28C2                                 i2u926_41 2842  
                               i2u599_40 1998                                 i2u863_40 4916  
                               i2u943_40 2958                                 i2u935_40 28D8  
                               i2u927_40 2858                                 i2u599_41 1994  
                               i2u863_41 4912                                 i2u943_41 2954  
                               i2u935_41 28D4                                 i2u927_41 2854  
                               i2u951_47 4AAA                                 i2u944_40 2966  
                               i2u936_40 28E6                                 i2u928_40 2866  
                               i2u944_41 2962                                 i2u936_41 28E2  
                               i2u928_41 2862                                 i2u937_40 28F8  
                               i2u929_40 2878                                 i2u937_41 28F4  
                               i2u929_41 2874                                 i2u938_40 2906  
                               i2u938_41 2902                                 i2u939_40 2918  
                               i2u939_41 2914                                 i2u898_40 4ADA  
                               i2u898_41 4AD6                        i2___fldiv@new_exp 0039  
                               i2u899_48 4AE0                                 i2u899_49 4AF2  
                               _TMR1_ISR 4B52                                 _TMR2_ISR 4B5E  
                               _TMR3_ISR 4B46                  ?_convert_byte_to_string 002C  
                     _lcd_4bit_intialize 3158                                _vfpfcnvrt 246A  
            ?i2_lcd_4bit_send_string_pos 0016                 _lcd_4bit_send_string_pos 48C2  
                             _ADCON0bits 0FC2                               _ADCON1bits 0FC1  
                             _ADCON2bits 0FC0                     ??_gpio_pin_intialize 0099  
                      ?_CCP_PWM_Set_Duty 0176                       _lcd_4bit_send_data 42FC  
                    ?_lcd_4bit_intialize 009D                       ??_CCP_PWM_Set_Duty 0179  
                  __end_of_ADC_GetResult 3FFE                               vfpfcnvrt@c 0015  
                    ?_lcd_4bit_send_data 009A                              _INTCON2bits 0FF1  
                            _INTCON3bits 0FF0                                copy_data0 42AA  
               ?i2_lcd_4bit_send_command 000D                               ?_send_4bit 0097  
                             _EECON1bits 0FA6                     ??_lcd_4bit_intialize 009F  
                               __Hrparam 0000                            ?_CCP_PWM_Stop 008E  
                             vfprintf@ap 0018                                 __Lrparam 0000  
                             vfprintf@fp 0016           __end_of_convert_byte_to_string 4836  
                      _ADC_GetConversion 4492        __end_ofi2_send_4bit_enable_signal 4AC6  
                   ??_lcd_4bit_send_data 009D                  __end_of_welcome_message 45BC  
                           _tmr0_preload 0057                       ?_ADC_GetConversion 0095  
                           _Tempe_reader 0136                    _CCP1_InterruptHandler 00EC  
                             ?_vfpfcnvrt 000B                                 _adc_read 0070  
                  _TMR1_InterruptHandler 0055                      ??_ADC_GetConversion 0099  
                ??_CCPx_SET_COMPARE_MODE 0090                               sprintf@fmt 001C  
                               ___xxtofl 2638                         _operation_select 3E28  
                               __ptext10 442E                                 __ptext11 2D08  
                               __ptext20 2EA4                                 __ptext12 4836  
                               __ptext21 329E                                 __ptext13 3158  
                               __ptext30 33DE                                 __ptext22 4680  
                               __ptext14 4362                                 __ptext31 3966  
                               __ptext23 2B5A                                 __ptext15 49F8  
                               __ptext40 4B5E                                 __ptext32 4492  
                               __ptext24 2638                                 __ptext16 422A  
                               __ptext41 4B52                                 __ptext33 4B1E  
                               __ptext25 3754                                 __ptext17 43C8  
                               __ptext50 3FFE                                 __ptext42 4B66  
                               __ptext34 4A62                                 __ptext26 14DE  
                               __ptext18 350A                                 __ptext51 45BC  
                               __ptext43 4B6A                                 __ptext35 3A56  
                               __ptext27 1D34                                 __ptext19 4098  
                               __ptext60 20D0                                 __ptext52 41AC  
                               __ptext44 4B6E                                 __ptext36 3F62  
                               __ptext28 101C                                 __ptext61 47EA  
                               __ptext53 461E                                 __ptext45 4B72  
                               __ptext29 3004                                 __ptext70 49C0  
                               __ptext62 4984                                 __ptext54 4A94  
                               __ptext46 4B76                                 __ptext38 4B3A  
                               __ptext71 0000                                 __ptext63 4944  
                               __ptext55 44F6                                 __ptext47 4AC6  
                               __ptext39 4B46                                 __ptext64 246A  
                               __ptext56 3632                                 __ptext48 3B32  
                               __ptext65 3CBE                                 __ptext57 29A6  
                               __ptext49 4904                                 __ptext66 4B7C  
                               __ptext58 3860                                 __ptext67 4A2E  
                               __ptext59 190A                                 __ptext68 3D78  
                               __ptext69 3BFA                             ?_ADC_Set_bit 0001  
                             _AC_Operate 4794                         ??_Write_temp_LCD 004B  
                         i2send_4bit@lcd 000A                ??_send_4bit_enable_signal 0099  
              __end_of_ADC_GetConversion 44F6                           ??_CCP_PWM_Stop 0090  
                               isa$xinst 0000                                 int$flags 0072  
           __end_of_lcd_4bit_send_string 41AC                                 _vfprintf 4944  
                               main@argc 0186                                 main@argv 0188  
                           TMR2_Init@obj 008E                             _temp_display 0164  
                             _INTCONbits 0FF2          __end_ofi2_lcd_4bit_send_command 461E  
               ??i2_gpio_pin_Write_logic 0004                  ?i2_lcd_4bit_send_string 0010  
                   _RB6_InterruptHandler 005D                                 intlevel2 0000  
                              sprintf@ap 001F           i2lcd_4bit_send_command@command 000F  
                  _CCPx_SET_TIMER_CONFIG 4680                             _TMR1_preload 0053  
                        i2___xxtofl@sign 0009              __end_of_ADC_StartConversion 4B3A  
                          ??i2_send_4bit 000D                              ??_send_4bit 009A  
                           _TMR2_preload 00EE                             _TMR3_preload 004F  
               i2lcd_4bit_send_data@data 000F                         ?_welcome_message 0001  
      i2gpio_pin_Write_logic@_pin_config 0001          gpio_pin_Write_logic@_pin_config 008E  
                            ??_vfpfcnvrt 000E            __end_of_CCPx_SET_CAPTURE_MODE 350A  
           i2send_4bit_enable_signal@lcd 000A                    __end_of_intialization 487E  
        __end_of_send_4bit_enable_signal 4A2E                                 sprintf@f 0020  
                               sprintf@s 001A           __end_ofi2_lcd_4bit_send_string 422A  
                         _port_registers 0100                          _set_cursor_4bit 3EC6  
                            ?_AC_Operate 0001                            ___fladd@signs 00C1  
                  _CCP2_InterruptHandler 00EA                             ___fladd@aexp 00C2  
                           ___fladd@bexp 00C3             __end_ofi2_lcd_4bit_send_data 4680  
                  _TMR2_InterruptHandler 00E8               ??_lcd_4bit_send_string_pos 00A9  
                      ??_InterruptManger 0080  
